

Microchip MPLAB XC8 Assembler V2.40 build 20220703182018 
                                                                                               Thu Mar 09 21:44:10 2023

Microchip MPLAB XC8 C Compiler v2.40 (Free license) build 20220703182018 Og1 
     1                           	processor	18F67K40
     2                           	fnconf	rparam,??,?,0
     3                           	pagewidth 120
     4                           	opt	flic
     5                           	psect	idataBANK0,global,class=CODE,delta=1,noexec
     6                           	psect	smallconst,global,reloc=2,class=SMALLCONST,delta=1,noexec
     7                           	psect	cinit,global,reloc=2,class=CODE,delta=1
     8                           	psect	bssCOMRAM,global,class=COMRAM,space=1,delta=1,lowdata,noexec
     9                           	psect	bssBANK0,global,class=BANK0,space=1,delta=1,lowdata,noexec
    10                           	psect	dataBANK0,global,class=BANK0,space=1,delta=1,lowdata,noexec
    11                           	psect	bssBANK1,global,class=BANK1,space=1,delta=1,lowdata,noexec
    12                           	psect	cstackBANK0,global,class=BANK0,space=1,delta=1,lowdata,noexec
    13                           	psect	cstackCOMRAM,global,class=COMRAM,space=1,delta=1,lowdata,noexec
    14                           	psect	text0,global,reloc=2,class=CODE,delta=1
    15                           	psect	text1,global,reloc=2,class=CODE,delta=1
    16                           	psect	text2,global,reloc=2,class=CODE,delta=1
    17                           	psect	text3,global,reloc=2,class=CODE,delta=1
    18                           	psect	text4,global,reloc=2,class=CODE,delta=1
    19                           	psect	text5,global,reloc=2,class=CODE,delta=1
    20                           	psect	text6,global,reloc=2,class=CODE,delta=1
    21                           	psect	text7,global,reloc=2,class=CODE,delta=1
    22                           	psect	text8,global,reloc=2,class=CODE,delta=1
    23                           	psect	text9,global,reloc=2,class=CODE,delta=1
    24                           	psect	text10,global,reloc=2,class=CODE,delta=1
    25                           	psect	text11,global,reloc=2,class=CODE,delta=1
    26                           	psect	text12,global,reloc=2,class=CODE,delta=1
    27                           	psect	text13,global,reloc=2,class=CODE,delta=1
    28                           	psect	text14,global,reloc=2,class=CODE,delta=1
    29                           	psect	text15,global,reloc=2,class=CODE,delta=1
    30                           	psect	text16,global,reloc=2,class=CODE,delta=1
    31                           	psect	text17,global,reloc=2,class=CODE,delta=1,group=2
    32                           	psect	text18,global,reloc=2,class=CODE,delta=1,group=2
    33                           	psect	text19,global,reloc=2,class=CODE,delta=1,group=2
    34                           	psect	text20,global,reloc=2,class=CODE,delta=1,group=2
    35                           	psect	text21,global,reloc=2,class=CODE,delta=1,group=2
    36                           	psect	text22,global,reloc=2,class=CODE,delta=1,group=2
    37                           	psect	text23,global,reloc=2,class=CODE,delta=1,group=2
    38                           	psect	text24,global,reloc=2,class=CODE,delta=1
    39                           	psect	text25,global,reloc=2,class=CODE,delta=1,group=3
    40                           	psect	text26,global,reloc=2,class=CODE,delta=1,group=1
    41                           	psect	text27,global,reloc=2,class=CODE,delta=1,group=1
    42                           	psect	text28,global,reloc=2,class=CODE,delta=1,group=3
    43                           	psect	text29,global,reloc=2,class=CODE,delta=1,group=1
    44                           	psect	text30,global,reloc=2,class=CODE,delta=1,group=3
    45                           	psect	text31,global,reloc=2,class=CODE,delta=1,group=3
    46                           	psect	text32,global,reloc=2,class=CODE,delta=1,group=3
    47                           	psect	text33,global,reloc=2,class=CODE,delta=1
    48                           	psect	text34,global,reloc=2,class=CODE,delta=1
    49                           	psect	text35,global,reloc=2,class=CODE,delta=1
    50                           	psect	text36,global,reloc=2,class=CODE,delta=1,group=2
    51                           	psect	intsave_regs,global,class=BIGRAM,space=1,delta=1,noexec
    52                           	psect	rparam,global,class=COMRAM,space=1,delta=1,noexec
    53                           	psect	idloc,global,abs,ovrld,class=IDLOC,space=5,delta=1,noexec
    54                           	psect	config,global,abs,ovrld,class=CONFIG,space=4,delta=1,noexec
    55   000000                     
    56                           ; Generated 06/04/2022 GMT
    57                           ; 
    58                           ; Copyright © 2022, Microchip Technology Inc. and its subsidiaries ("Microchip")
    59                           ; All rights reserved.
    60                           ; 
    61                           ; This software is developed by Microchip Technology Inc. and its subsidiaries ("Microch
      +                          ip").
    62                           ; 
    63                           ; Redistribution and use in source and binary forms, with or without modification, are
    64                           ; permitted provided that the following conditions are met:
    65                           ; 
    66                           ;     1. Redistributions of source code must retain the above copyright notice, this lis
      +                          t of
    67                           ;        conditions and the following disclaimer.
    68                           ; 
    69                           ;     2. Redistributions in binary form must reproduce the above copyright notice, this 
      +                          list
    70                           ;        of conditions and the following disclaimer in the documentation and/or other
    71                           ;        materials provided with the distribution. Publication is not required when
    72                           ;        this file is used in an embedded application.
    73                           ; 
    74                           ;     3. Microchip's name may not be used to endorse or promote products derived from th
      +                          is
    75                           ;        software without specific prior written permission.
    76                           ; 
    77                           ; THIS SOFTWARE IS PROVIDED BY MICROCHIP "AS IS" AND ANY EXPRESS OR IMPLIED WARRANTIES,
    78                           ; INCLUDING, BUT NOT LIMITED TO, THE IMPLIED WARRANTIES OF MERCHANTABILITY AND FITNESS F
      +                          OR
    79                           ; PURPOSE ARE DISCLAIMED.  IN NO EVENT SHALL MICROCHIP BE LIABLE FOR ANY DIRECT, INDIREC
      +                          T,
    80                           ; INCIDENTAL, SPECIAL, EXEMPLARY, OR CONSEQUENTIAL DAMAGES (INCLUDING BUT NOT LIMITED TO
    81                           ; PROCUREMENT OF SUBSTITUTE GOODS OR SERVICES; LOSS OF USE, DATA OR PROFITS; OR BUSINESS
    82                           ; INTERRUPTION) HOWSOEVER CAUSED AND ON ANY THEORY OF LIABILITY, WHETHER IN CONTRACT, ST
      +                          RICT
    83                           ; LIABILITY, OR TORT (INCLUDING NEGLIGENCE OR OTHERWISE) ARISING IN ANY WAY OUT OF THE U
      +                          SE OF
    84                           ; THIS SOFTWARE, EVEN IF ADVISED OF THE POSSIBILITY OF SUCH DAMAGE.
    85                           ; 
    86                           ; 
    87                           ; Code-generator required, PIC18F67K40 Definitions
    88                           ; 
    89                           ; SFR Addresses
    90   000000                     
    91                           	psect	idataBANK0
    92   003464                     __pidataBANK0:
    93                           	callstack 0
    94                           
    95                           ;initializer for _Colourslist
    96   003464  4C                 	db	low STR_1
    97   003465  0E                 	db	high STR_1
    98   003466  26                 	db	low STR_2
    99   003467  0E                 	db	high STR_2
   100   003468  43                 	db	low STR_3
   101   003469  0E                 	db	high STR_3
   102   00346A  36                 	db	low STR_4
   103   00346B  0E                 	db	high STR_4
   104   00346C  2F                 	db	low STR_5
   105   00346D  0E                 	db	high STR_5
   106   00346E  11                 	db	low STR_6
   107   00346F  0E                 	db	high STR_6
   108   003470  1C                 	db	low STR_7
   109   003471  0E                 	db	high STR_7
   110   003472  3D                 	db	low STR_8
   111   003473  0E                 	db	high STR_8
   112                           
   113                           ;initializer for stoa@F1144
   114   003474  28                 	db	40
   115   003475  6E                 	db	110
   116   003476  75                 	db	117
   117   003477  6C                 	db	108
   118   003478  6C                 	db	108
   119   003479  29                 	db	41
   120   00347A  00                 	db	0
   121   000000                     _TX4REG	set	3812
   122   000000                     _RC4STAbits	set	3815
   123   000000                     _SP4BRGH	set	3814
   124   000000                     _SSP2CON2bits	set	3802
   125   000000                     _RX4PPS	set	3605
   126   000000                     _SSP2CLKPPS	set	3612
   127   000000                     _SSP2DATPPS	set	3613
   128   000000                     _ANSELDbits	set	3751
   129   000000                     _SSP2ADD	set	3798
   130   000000                     _SSP2CON1bits	set	3801
   131   000000                     _RC4REG	set	3811
   132   000000                     _SP4BRGL	set	3813
   133   000000                     _TX4STAbits	set	3816
   134   000000                     _BAUD4CONbits	set	3817
   135   000000                     _LATAbits	set	3961
   136   000000                     _LATGbits	set	3967
   137   000000                     _SSP2CON2	set	3802
   138   000000                     _TRISDbits	set	3972
   139   000000                     _SSP2STAT	set	3800
   140   000000                     _TRISFbits	set	3974
   141   000000                     _TRISGbits	set	3975
   142   000000                     _SSP2BUF	set	3797
   143   000000                     _PIR4bits	set	3639
   144   000000                     _RC0PPS	set	3682
   145   000000                     _RD5PPS	set	3695
   146   000000                     _RD6PPS	set	3696
   147   000000                     _TRISAbits	set	3969
   148   000000                     _LATFbits	set	3966
   149   000000                     _TRISCbits	set	3971
   150                           
   151                           	psect	smallconst
   152   000E00                     __psmallconst:
   153                           	callstack 0
   154   000E00  00                 	db	0
   155   000E01                     STR_34:
   156   000E01  43                 	db	67	;'C'
   157   000E02  6F                 	db	111	;'o'
   158   000E03  6C                 	db	108	;'l'
   159   000E04  6F                 	db	111	;'o'
   160   000E05  75                 	db	117	;'u'
   161   000E06  72                 	db	114	;'r'
   162   000E07  20                 	db	32
   163   000E08  69                 	db	105	;'i'
   164   000E09  73                 	db	115	;'s'
   165   000E0A  20                 	db	32
   166   000E0B  25                 	db	37
   167   000E0C  73                 	db	115	;'s'
   168   000E0D  20                 	db	32
   169   000E0E  20                 	db	32
   170   000E0F  0D                 	db	13
   171   000E10  00                 	db	0
   172   000E11                     STR_6:
   173   000E11  4C                 	db	76	;'L'
   174   000E12  69                 	db	105	;'i'
   175   000E13  67                 	db	103	;'g'
   176   000E14  68                 	db	104	;'h'
   177   000E15  74                 	db	116	;'t'
   178   000E16  20                 	db	32
   179   000E17  42                 	db	66	;'B'
   180   000E18  6C                 	db	108	;'l'
   181   000E19  75                 	db	117	;'u'
   182   000E1A  65                 	db	101	;'e'
   183   000E1B  00                 	db	0
   184   000E1C                     STR_7:
   185   000E1C  44                 	db	68	;'D'
   186   000E1D  61                 	db	97	;'a'
   187   000E1E  72                 	db	114	;'r'
   188   000E1F  6B                 	db	107	;'k'
   189   000E20  20                 	db	32
   190   000E21  42                 	db	66	;'B'
   191   000E22  6C                 	db	108	;'l'
   192   000E23  75                 	db	117	;'u'
   193   000E24  65                 	db	101	;'e'
   194   000E25  00                 	db	0
   195   000E26                     STR_2:
   196   000E26  45                 	db	69	;'E'
   197   000E27  67                 	db	103	;'g'
   198   000E28  67                 	db	103	;'g'
   199   000E29  73                 	db	115	;'s'
   200   000E2A  68                 	db	104	;'h'
   201   000E2B  65                 	db	101	;'e'
   202   000E2C  6C                 	db	108	;'l'
   203   000E2D  6C                 	db	108	;'l'
   204   000E2E  00                 	db	0
   205   000E2F                     STR_5:
   206   000E2F  4F                 	db	79	;'O'
   207   000E30  72                 	db	114	;'r'
   208   000E31  61                 	db	97	;'a'
   209   000E32  6E                 	db	110	;'n'
   210   000E33  67                 	db	103	;'g'
   211   000E34  65                 	db	101	;'e'
   212   000E35  00                 	db	0
   213   000E36                     STR_4:
   214   000E36  59                 	db	89	;'Y'
   215   000E37  65                 	db	101	;'e'
   216   000E38  6C                 	db	108	;'l'
   217   000E39  6C                 	db	108	;'l'
   218   000E3A  6F                 	db	111	;'o'
   219   000E3B  77                 	db	119	;'w'
   220   000E3C  00                 	db	0
   221   000E3D                     STR_8:
   222   000E3D  47                 	db	71	;'G'
   223   000E3E  72                 	db	114	;'r'
   224   000E3F  65                 	db	101	;'e'
   225   000E40  65                 	db	101	;'e'
   226   000E41  6E                 	db	110	;'n'
   227   000E42  00                 	db	0
   228   000E43                     STR_3:
   229   000E43  50                 	db	80	;'P'
   230   000E44  69                 	db	105	;'i'
   231   000E45  6E                 	db	110	;'n'
   232   000E46  6B                 	db	107	;'k'
   233   000E47  00                 	db	0
   234   000E48                     STR_35:
   235   000E48  6C                 	db	108	;'l'
   236   000E49  6C                 	db	108	;'l'
   237   000E4A  73                 	db	115	;'s'
   238   000E4B  00                 	db	0
   239   000E4C                     STR_1:
   240   000E4C  52                 	db	82	;'R'
   241   000E4D  65                 	db	101	;'e'
   242   000E4E  64                 	db	100	;'d'
   243   000E4F  00                 	db	0
   244   000E50  00                 	db	0	; dummy byte at the end
   245   000000                     
   246                           ; #config settings
   247                           
   248                           	psect	cinit
   249   00327E                     __pcinit:
   250                           	callstack 0
   251   00327E                     start_initialization:
   252                           	callstack 0
   253   00327E                     __initialization:
   254                           	callstack 0
   255                           
   256                           ; Initialize objects allocated to BANK0 (23 bytes)
   257                           ; load TBLPTR registers with __pidataBANK0
   258   00327E  0E64               	movlw	low __pidataBANK0
   259   003280  6EF6               	movwf	tblptrl,c
   260   003282  0E34               	movlw	high __pidataBANK0
   261   003284  6EF7               	movwf	tblptrh,c
   262   003286  0E00               	movlw	low (__pidataBANK0 shr (0+16))
   263   003288  6EF8               	movwf	tblptru,c
   264   00328A  EE00  F0DD         	lfsr	0,__pdataBANK0
   265   00328E  EE10 F017          	lfsr	1,23
   266   003292                     copy_data0:
   267   003292  0009               	tblrd		*+
   268   003294  CFF5 FFEE          	movff	tablat,postinc0
   269   003298  50E5               	movf	postdec1,w,c
   270   00329A  50E1               	movf	fsr1l,w,c
   271   00329C  E1FA               	bnz	copy_data0
   272                           
   273                           ; Clear objects allocated to BANK1 (32 bytes)
   274   00329E  EE01  F000         	lfsr	0,__pbssBANK1
   275   0032A2  0E20               	movlw	32
   276   0032A4                     clear_0:
   277   0032A4  6AEE               	clrf	postinc0,c
   278   0032A6  06E8               	decf	wreg,f,c
   279   0032A8  E1FD               	bnz	clear_0
   280                           
   281                           ; Clear objects allocated to BANK0 (24 bytes)
   282   0032AA  EE00  F0C5         	lfsr	0,__pbssBANK0
   283   0032AE  0E18               	movlw	24
   284   0032B0                     clear_1:
   285   0032B0  6AEE               	clrf	postinc0,c
   286   0032B2  06E8               	decf	wreg,f,c
   287   0032B4  E1FD               	bnz	clear_1
   288                           
   289                           ; Clear objects allocated to COMRAM (1 bytes)
   290   0032B6  6A5F               	clrf	__pbssCOMRAM& (0+255),c
   291   0032B8                     end_of_initialization:
   292                           	callstack 0
   293   0032B8                     __end_of__initialization:
   294                           	callstack 0
   295   0032B8  0E00               	movlw	low (__Lmediumconst shr (0+16))
   296   0032BA  6EF8               	movwf	tblptru,c
   297   0032BC  0100               	movlb	0
   298   0032BE  EFD4  F017         	goto	_main	;jump to C main() function
   299                           
   300                           	psect	bssCOMRAM
   301   00005F                     __pbssCOMRAM:
   302                           	callstack 0
   303   00005F                     _flags:
   304                           	callstack 0
   305   00005F                     	ds	1
   306                           
   307                           	psect	bssBANK0
   308   0000C5                     __pbssBANK0:
   309                           	callstack 0
   310   0000C5                     _width:
   311                           	callstack 0
   312   0000C5                     	ds	2
   313   0000C7                     _prec:
   314                           	callstack 0
   315   0000C7                     	ds	2
   316   0000C9                     _colorf:
   317                           	callstack 0
   318   0000C9                     	ds	20
   319                           
   320                           	psect	dataBANK0
   321   0000DD                     __pdataBANK0:
   322                           	callstack 0
   323   0000DD                     _Colourslist:
   324                           	callstack 0
   325   0000DD                     	ds	16
   326   0000ED                     stoa@F1144:
   327                           	callstack 0
   328   0000ED                     	ds	7
   329                           
   330                           	psect	bssBANK1
   331   000100                     __pbssBANK1:
   332                           	callstack 0
   333   000100                     	ds	32
   334                           
   335                           	psect	cstackBANK0
   336   000060                     __pcstackBANK0:
   337                           	callstack 0
   338   000060                     ___flmul@sign:
   339                           	callstack 0
   340                           
   341                           ; 1 bytes @ 0x0
   342   000060                     	ds	1
   343   000061                     ___flmul@grs:
   344                           	callstack 0
   345                           
   346                           ; 4 bytes @ 0x1
   347   000061                     	ds	4
   348   000065                     ___flmul@aexp:
   349                           	callstack 0
   350                           
   351                           ; 1 bytes @ 0x5
   352   000065                     	ds	1
   353   000066                     ___flmul@bexp:
   354                           	callstack 0
   355                           
   356                           ; 1 bytes @ 0x6
   357   000066                     	ds	1
   358   000067                     ___flmul@prod:
   359                           	callstack 0
   360                           
   361                           ; 4 bytes @ 0x7
   362   000067                     	ds	4
   363   00006B                     ___flmul@temp:
   364                           	callstack 0
   365                           
   366                           ; 2 bytes @ 0xB
   367   00006B                     	ds	2
   368   00006D                     _RGB2Hue$1609:
   369                           	callstack 0
   370                           
   371                           ; 4 bytes @ 0xD
   372   00006D                     	ds	4
   373   000071                     RGB2Hue@max:
   374                           	callstack 0
   375                           
   376                           ; 2 bytes @ 0x11
   377   000071                     	ds	2
   378   000073                     RGB2Hue@min:
   379                           	callstack 0
   380                           
   381                           ; 2 bytes @ 0x13
   382   000073                     	ds	2
   383   000075                     main@data:
   384                           	callstack 0
   385                           
   386                           ; 80 bytes @ 0x15
   387   000075                     	ds	80
   388                           
   389                           	psect	cstackCOMRAM
   390   000001                     __pcstackCOMRAM:
   391                           	callstack 0
   392   000001                     ??_I2C_2_Master_Idle:
   393   000001                     ?_strlen:
   394                           	callstack 0
   395   000001                     ?_strncmp:
   396                           	callstack 0
   397   000001                     ?___fltol:
   398                           	callstack 0
   399   000001                     sendCharSerial4@charToSend:
   400                           	callstack 0
   401   000001                     fputc@c:
   402                           	callstack 0
   403   000001                     strlen@s:
   404                           	callstack 0
   405   000001                     strncmp@_l:
   406                           	callstack 0
   407   000001                     ___fleq@ff1:
   408                           	callstack 0
   409   000001                     ___flge@ff1:
   410                           	callstack 0
   411   000001                     ___fltol@f1:
   412                           	callstack 0
   413                           
   414                           ; 4 bytes @ 0x0
   415   000001                     	ds	1
   416   000002                     ??_I2C_2_Master_Read:
   417   000002                     I2C_2_Master_Write@data_byte:
   418                           	callstack 0
   419   000002                     sendStringSerial4@string:
   420                           	callstack 0
   421                           
   422                           ; 2 bytes @ 0x1
   423   000002                     	ds	1
   424   000003                     color_writetoaddr@value:
   425                           	callstack 0
   426   000003                     I2C_2_Master_Read@ack:
   427                           	callstack 0
   428   000003                     fputc@fp:
   429                           	callstack 0
   430   000003                     strlen@a:
   431                           	callstack 0
   432   000003                     strncmp@_r:
   433                           	callstack 0
   434                           
   435                           ; 2 bytes @ 0x2
   436   000003                     	ds	1
   437   000004                     color_writetoaddr@address:
   438                           	callstack 0
   439   000004                     I2C_2_Master_Read@tmp:
   440                           	callstack 0
   441                           
   442                           ; 1 bytes @ 0x3
   443   000004                     	ds	1
   444   000005                     ??_fputc:
   445   000005                     ??_color_click_init:
   446   000005                     ??___fltol:
   447   000005                     ?_color_read_Red:
   448                           	callstack 0
   449   000005                     ?_color_read_Green:
   450                           	callstack 0
   451   000005                     ?_color_read_Blue:
   452                           	callstack 0
   453   000005                     ?_color_read_Clear:
   454                           	callstack 0
   455   000005                     strncmp@n:
   456                           	callstack 0
   457   000005                     ___fleq@ff2:
   458                           	callstack 0
   459   000005                     ___flge@ff2:
   460                           	callstack 0
   461                           
   462                           ; 4 bytes @ 0x4
   463   000005                     	ds	2
   464   000007                     ??_strncmp:
   465   000007                     ??_color_read_Red:
   466   000007                     ??_color_read_Green:
   467   000007                     ??_color_read_Blue:
   468   000007                     ??_color_read_Clear:
   469                           
   470                           ; 1 bytes @ 0x6
   471   000007                     	ds	1
   472   000008                     strncmp@l:
   473                           	callstack 0
   474                           
   475                           ; 2 bytes @ 0x7
   476   000008                     	ds	1
   477   000009                     ??___fleq:
   478   000009                     ??___flge:
   479   000009                     ___fltol@sign1:
   480                           	callstack 0
   481                           
   482                           ; 1 bytes @ 0x8
   483   000009                     	ds	1
   484   00000A                     ___fltol@exp1:
   485                           	callstack 0
   486   00000A                     color_read_Red@tmp:
   487                           	callstack 0
   488   00000A                     color_read_Green@tmp:
   489                           	callstack 0
   490   00000A                     color_read_Blue@tmp:
   491                           	callstack 0
   492   00000A                     color_read_Clear@tmp:
   493                           	callstack 0
   494   00000A                     stoa@fp:
   495                           	callstack 0
   496   00000A                     strncmp@r:
   497                           	callstack 0
   498                           
   499                           ; 2 bytes @ 0x9
   500   00000A                     	ds	2
   501   00000C                     ?___xxtofl:
   502                           	callstack 0
   503   00000C                     stoa@s:
   504                           	callstack 0
   505   00000C                     ___xxtofl@val:
   506                           	callstack 0
   507                           
   508                           ; 4 bytes @ 0xB
   509   00000C                     	ds	1
   510   00000D                     ?_Hue2Colour:
   511                           	callstack 0
   512   00000D                     Hue2Colour@cf:
   513                           	callstack 0
   514                           
   515                           ; 2 bytes @ 0xC
   516   00000D                     	ds	1
   517   00000E                     ??_stoa:
   518                           
   519                           ; 1 bytes @ 0xD
   520   00000E                     	ds	1
   521   00000F                     Hue2Colour@colourname:
   522                           	callstack 0
   523   00000F                     stoa@nuls:
   524                           	callstack 0
   525                           
   526                           ; 7 bytes @ 0xE
   527   00000F                     	ds	1
   528   000010                     ??___xxtofl:
   529                           
   530                           ; 1 bytes @ 0xF
   531   000010                     	ds	4
   532   000014                     ___xxtofl@sign:
   533                           	callstack 0
   534                           
   535                           ; 1 bytes @ 0x13
   536   000014                     	ds	1
   537   000015                     ___xxtofl@exp:
   538                           	callstack 0
   539                           
   540                           ; 1 bytes @ 0x14
   541   000015                     	ds	1
   542   000016                     stoa@w:
   543                           	callstack 0
   544   000016                     ___xxtofl@arg:
   545                           	callstack 0
   546                           
   547                           ; 4 bytes @ 0x15
   548   000016                     	ds	2
   549   000018                     stoa@i:
   550                           	callstack 0
   551                           
   552                           ; 2 bytes @ 0x17
   553   000018                     	ds	2
   554   00001A                     ?___fladd:
   555                           	callstack 0
   556   00001A                     colour_read_all@cf:
   557                           	callstack 0
   558   00001A                     stoa@cp:
   559                           	callstack 0
   560   00001A                     ___fladd@b:
   561                           	callstack 0
   562                           
   563                           ; 4 bytes @ 0x19
   564   00001A                     	ds	2
   565   00001C                     stoa@l:
   566                           	callstack 0
   567   00001C                     colour_read_all@R:
   568                           	callstack 0
   569                           
   570                           ; 4 bytes @ 0x1B
   571   00001C                     	ds	2
   572   00001E                     stoa@p:
   573                           	callstack 0
   574   00001E                     ___fladd@a:
   575                           	callstack 0
   576                           
   577                           ; 4 bytes @ 0x1D
   578   00001E                     	ds	2
   579   000020                     vfpfcnvrt@fp:
   580                           	callstack 0
   581   000020                     colour_read_all@G:
   582                           	callstack 0
   583                           
   584                           ; 4 bytes @ 0x1F
   585   000020                     	ds	2
   586   000022                     ??___fladd:
   587   000022                     vfpfcnvrt@fmt:
   588                           	callstack 0
   589                           
   590                           ; 2 bytes @ 0x21
   591   000022                     	ds	2
   592   000024                     vfpfcnvrt@ap:
   593                           	callstack 0
   594   000024                     colour_read_all@B:
   595                           	callstack 0
   596                           
   597                           ; 4 bytes @ 0x23
   598   000024                     	ds	2
   599   000026                     ??_vfpfcnvrt:
   600   000026                     ___fladd@signs:
   601                           	callstack 0
   602                           
   603                           ; 1 bytes @ 0x25
   604   000026                     	ds	1
   605   000027                     ___fladd@aexp:
   606                           	callstack 0
   607                           
   608                           ; 1 bytes @ 0x26
   609   000027                     	ds	1
   610   000028                     ___fladd@bexp:
   611                           	callstack 0
   612   000028                     _vfpfcnvrt$1352:
   613                           	callstack 0
   614                           
   615                           ; 2 bytes @ 0x27
   616   000028                     	ds	1
   617   000029                     ___fladd@grs:
   618                           	callstack 0
   619                           
   620                           ; 1 bytes @ 0x28
   621   000029                     	ds	1
   622   00002A                     ?_vfprintf:
   623                           	callstack 0
   624   00002A                     ?___flsub:
   625                           	callstack 0
   626   00002A                     vfprintf@fp:
   627                           	callstack 0
   628   00002A                     ___flsub@b:
   629                           	callstack 0
   630                           
   631                           ; 4 bytes @ 0x29
   632   00002A                     	ds	2
   633   00002C                     vfprintf@fmt:
   634                           	callstack 0
   635                           
   636                           ; 2 bytes @ 0x2B
   637   00002C                     	ds	2
   638   00002E                     vfprintf@ap:
   639                           	callstack 0
   640   00002E                     ___flsub@a:
   641                           	callstack 0
   642                           
   643                           ; 4 bytes @ 0x2D
   644   00002E                     	ds	2
   645   000030                     vfprintf@cfmt:
   646                           	callstack 0
   647                           
   648                           ; 2 bytes @ 0x2F
   649   000030                     	ds	2
   650   000032                     ?_sprintf:
   651                           	callstack 0
   652   000032                     ?___fldiv:
   653                           	callstack 0
   654   000032                     sprintf@s:
   655                           	callstack 0
   656   000032                     ___fldiv@b:
   657                           	callstack 0
   658                           
   659                           ; 4 bytes @ 0x31
   660   000032                     	ds	2
   661   000034                     sprintf@fmt:
   662                           	callstack 0
   663                           
   664                           ; 2 bytes @ 0x33
   665   000034                     	ds	2
   666   000036                     ___fldiv@a:
   667                           	callstack 0
   668                           
   669                           ; 4 bytes @ 0x35
   670   000036                     	ds	2
   671   000038                     sprintf@ap:
   672                           	callstack 0
   673                           
   674                           ; 2 bytes @ 0x37
   675   000038                     	ds	2
   676   00003A                     ??___fldiv:
   677   00003A                     sprintf@f:
   678                           	callstack 0
   679                           
   680                           ; 11 bytes @ 0x39
   681   00003A                     	ds	4
   682   00003E                     ___fldiv@rem:
   683                           	callstack 0
   684                           
   685                           ; 4 bytes @ 0x3D
   686   00003E                     	ds	4
   687   000042                     ___fldiv@sign:
   688                           	callstack 0
   689                           
   690                           ; 1 bytes @ 0x41
   691   000042                     	ds	1
   692   000043                     ___fldiv@new_exp:
   693                           	callstack 0
   694                           
   695                           ; 2 bytes @ 0x42
   696   000043                     	ds	2
   697   000045                     Color2String@buf:
   698                           	callstack 0
   699   000045                     ___fldiv@grs:
   700                           	callstack 0
   701                           
   702                           ; 4 bytes @ 0x44
   703   000045                     	ds	2
   704   000047                     Color2String@cf:
   705                           	callstack 0
   706                           
   707                           ; 2 bytes @ 0x46
   708   000047                     	ds	2
   709   000049                     ___fldiv@bexp:
   710                           	callstack 0
   711   000049                     Color2String@colourname:
   712                           	callstack 0
   713                           
   714                           ; 2 bytes @ 0x48
   715   000049                     	ds	1
   716   00004A                     ___fldiv@aexp:
   717                           	callstack 0
   718                           
   719                           ; 1 bytes @ 0x49
   720   00004A                     	ds	1
   721   00004B                     ?___flmul:
   722                           	callstack 0
   723   00004B                     ___flmul@b:
   724                           	callstack 0
   725                           
   726                           ; 4 bytes @ 0x4A
   727   00004B                     	ds	4
   728   00004F                     ___flmul@a:
   729                           	callstack 0
   730                           
   731                           ; 4 bytes @ 0x4E
   732   00004F                     	ds	4
   733   000053                     ??___flmul:
   734                           
   735                           ; 1 bytes @ 0x52
   736   000053                     	ds	4
   737   000057                     RGB2Hue@cf:
   738                           	callstack 0
   739                           
   740                           ; 2 bytes @ 0x56
   741   000057                     	ds	2
   742   000059                     ??_RGB2Hue:
   743                           
   744                           ; 1 bytes @ 0x58
   745   000059                     	ds	4
   746   00005D                     ??_main:
   747                           
   748                           ; 1 bytes @ 0x5C
   749   00005D                     	ds	2
   750                           
   751 ;;
   752 ;;Main: autosize = 0, tempsize = 2, incstack = 0, save=0
   753 ;;
   754 ;; *************** function _main *****************
   755 ;; Defined at:
   756 ;;		line 15 in file "main.c"
   757 ;; Parameters:    Size  Location     Type
   758 ;;		None
   759 ;; Auto vars:     Size  Location     Type
   760 ;;  data           80   21[BANK0 ] unsigned char [80]
   761 ;; Return value:  Size  Location     Type
   762 ;;                  1    wreg      void 
   763 ;; Registers used:
   764 ;;		wreg, fsr1l, fsr1h, fsr2l, fsr2h, status,2, status,0, tblptrl, tblptrh, tblptru, prodl, prodh, cstack
   765 ;; Tracked objects:
   766 ;;		On entry : 0/0
   767 ;;		On exit  : 0/0
   768 ;;		Unchanged: 0/0
   769 ;; Data sizes:     COMRAM   BANK0   BANK1   BANK2   BANK3   BANK4   BANK5   BANK6   BANK7   BANK8   BANK9  BANK10  BANK1
      +1  BANK12  BANK13
   770 ;;      Params:         0       0       0       0       0       0       0       0       0       0       0       0       
      +0       0       0
   771 ;;      Locals:         0      80       0       0       0       0       0       0       0       0       0       0       
      +0       0       0
   772 ;;      Temps:          2       0       0       0       0       0       0       0       0       0       0       0       
      +0       0       0
   773 ;;      Totals:         2      80       0       0       0       0       0       0       0       0       0       0       
      +0       0       0
   774 ;;Total ram usage:       82 bytes
   775 ;; Hardware stack levels required when called: 7
   776 ;; This function calls:
   777 ;;		_Color2String
   778 ;;		_I2C_2_Master_Init
   779 ;;		_RGB2Hue
   780 ;;		_color_click_init
   781 ;;		_colour_read_all
   782 ;;		_initUSART4
   783 ;; This function is called by:
   784 ;;		Startup code after reset
   785 ;; This function uses a non-reentrant model
   786 ;;
   787                           
   788                           	psect	text0
   789   002FA8                     __ptext0:
   790                           	callstack 0
   791   002FA8                     _main:
   792                           	callstack 24
   793   002FA8                     
   794                           ;main.c: 16:     char data[80];;main.c: 17:     initUSART4();
   795   002FA8  EC05  F01A         	call	_initUSART4	;wreg free
   796   002FAC                     
   797                           ;main.c: 18:     color_click_init();
   798   002FAC  EC82  F019         	call	_color_click_init	;wreg free
   799   002FB0                     
   800                           ;main.c: 19:     I2C_2_Master_Init();
   801   002FB0  ECDC  F019         	call	_I2C_2_Master_Init	;wreg free
   802   002FB4                     
   803                           ;main.c: 21:     LATGbits.LATG1=1;
   804   002FB4  827F               	bsf	127,1,c	;volatile
   805   002FB6                     
   806                           ;main.c: 22:     TRISGbits.TRISG1=0;
   807   002FB6  9287               	bcf	135,1,c	;volatile
   808   002FB8                     
   809                           ;main.c: 23:     LATAbits.LATA4=1;
   810   002FB8  8879               	bsf	121,4,c	;volatile
   811   002FBA                     
   812                           ;main.c: 24:     TRISAbits.TRISA4=0;
   813   002FBA  9881               	bcf	129,4,c	;volatile
   814   002FBC                     
   815                           ;main.c: 25:     LATFbits.LATF7=1;
   816   002FBC  8E7E               	bsf	126,7,c	;volatile
   817   002FBE                     
   818                           ;main.c: 26:     TRISFbits.TRISF7=0;
   819   002FBE  9E86               	bcf	134,7,c	;volatile
   820   002FC0                     l2974:
   821                           
   822                           ;main.c: 29:         colour_read_all(&colorf);
   823   002FC0  0EC9               	movlw	low _colorf
   824   002FC2  6E1A               	movwf	colour_read_all@cf^0,c
   825   002FC4  0E00               	movlw	high _colorf
   826   002FC6  6E1B               	movwf	(colour_read_all@cf+1)^0,c
   827   002FC8  ECAD  F016         	call	_colour_read_all	;wreg free
   828   002FCC                     
   829                           ;main.c: 30:         RGB2Hue(&colorf);
   830   002FCC  0EC9               	movlw	low _colorf
   831   002FCE  6E57               	movwf	RGB2Hue@cf^0,c
   832   002FD0  0E00               	movlw	high _colorf
   833   002FD2  6E58               	movwf	(RGB2Hue@cf+1)^0,c
   834   002FD4  EC29  F007         	call	_RGB2Hue	;wreg free
   835   002FD8                     
   836                           ;main.c: 32:         Color2String(data,&colorf);
   837   002FD8  0E75               	movlw	low main@data
   838   002FDA  6E45               	movwf	Color2String@buf^0,c
   839   002FDC  0E00               	movlw	high main@data
   840   002FDE  6E46               	movwf	(Color2String@buf+1)^0,c
   841   002FE0  0EC9               	movlw	low _colorf
   842   002FE2  6E47               	movwf	Color2String@cf^0,c
   843   002FE4  0E00               	movlw	high _colorf
   844   002FE6  6E48               	movwf	(Color2String@cf+1)^0,c
   845   002FE8  ECA1  F019         	call	_Color2String	;wreg free
   846   002FEC                     
   847                           ;main.c: 33:         _delay((unsigned long)((1000)*(64000000/4000.0)));
   848   002FEC  0E52               	movlw	82
   849   002FEE  6E5E               	movwf	(??_main+1)^0,c
   850   002FF0  0E2B               	movlw	43
   851   002FF2  6E5D               	movwf	??_main^0,c
   852   002FF4  0E00               	movlw	0
   853   002FF6                     u3267:
   854   002FF6  2EE8               	decfsz	wreg,f,c
   855   002FF8  D7FE               	bra	u3267
   856   002FFA  2E5D               	decfsz	??_main^0,f,c
   857   002FFC  D7FC               	bra	u3267
   858   002FFE  2E5E               	decfsz	(??_main+1)^0,f,c
   859   003000  D7FA               	bra	u3267
   860   003002  D000               	nop2	
   861   003004  EFE0  F017         	goto	l2974
   862   003008  EF00  F000         	goto	start
   863   00300C                     __end_of_main:
   864                           	callstack 0
   865                           
   866 ;; *************** function _initUSART4 *****************
   867 ;; Defined at:
   868 ;;		line 7 in file "serial.c"
   869 ;; Parameters:    Size  Location     Type
   870 ;;		None
   871 ;; Auto vars:     Size  Location     Type
   872 ;;		None
   873 ;; Return value:  Size  Location     Type
   874 ;;                  1    wreg      void 
   875 ;; Registers used:
   876 ;;		wreg, status,2
   877 ;; Tracked objects:
   878 ;;		On entry : 0/0
   879 ;;		On exit  : 0/0
   880 ;;		Unchanged: 0/0
   881 ;; Data sizes:     COMRAM   BANK0   BANK1   BANK2   BANK3   BANK4   BANK5   BANK6   BANK7   BANK8   BANK9  BANK10  BANK1
      +1  BANK12  BANK13
   882 ;;      Params:         0       0       0       0       0       0       0       0       0       0       0       0       
      +0       0       0
   883 ;;      Locals:         0       0       0       0       0       0       0       0       0       0       0       0       
      +0       0       0
   884 ;;      Temps:          0       0       0       0       0       0       0       0       0       0       0       0       
      +0       0       0
   885 ;;      Totals:         0       0       0       0       0       0       0       0       0       0       0       0       
      +0       0       0
   886 ;;Total ram usage:        0 bytes
   887 ;; Hardware stack levels used: 1
   888 ;; This function calls:
   889 ;;		Nothing
   890 ;; This function is called by:
   891 ;;		_main
   892 ;; This function uses a non-reentrant model
   893 ;;
   894                           
   895                           	psect	text1
   896   00340A                     __ptext1:
   897                           	callstack 0
   898   00340A                     _initUSART4:
   899                           	callstack 30
   900   00340A                     
   901                           ;serial.c: 8:     TRISCbits.TRISC4=1;
   902   00340A  8883               	bsf	131,4,c	;volatile
   903                           
   904                           ;serial.c: 9:     TRISCbits.TRISC1=1;
   905   00340C  8283               	bsf	131,1,c	;volatile
   906   00340E                     
   907                           ;serial.c: 10:     RC0PPS = 0x12;
   908   00340E  0E12               	movlw	18
   909   003410  010E               	movlb	14	; () banked
   910   003412  6F62               	movwf	98,b	;volatile
   911                           
   912                           ;serial.c: 11:     RX4PPS = 0x11;
   913   003414  0E11               	movlw	17
   914   003416  6F15               	movwf	21,b	;volatile
   915   003418                     
   916                           ; BSR set to: 14
   917                           ;serial.c: 12:     BAUD4CONbits.BRG16 = 0;
   918   003418  97E9               	bcf	233,3,b	;volatile
   919   00341A                     
   920                           ; BSR set to: 14
   921                           ;serial.c: 13:     TX4STAbits.BRGH = 0;
   922   00341A  95E8               	bcf	232,2,b	;volatile
   923                           
   924                           ;serial.c: 15:     SP4BRGL = 51;
   925   00341C  0E33               	movlw	51
   926   00341E  6FE5               	movwf	229,b	;volatile
   927                           
   928                           ;serial.c: 16:     SP4BRGH = 0;
   929   003420  0E00               	movlw	0
   930   003422  6FE6               	movwf	230,b	;volatile
   931   003424                     
   932                           ; BSR set to: 14
   933                           ;serial.c: 18:     RC4STAbits.CREN = 1;
   934   003424  89E7               	bsf	231,4,b	;volatile
   935   003426                     
   936                           ; BSR set to: 14
   937                           ;serial.c: 19:     TX4STAbits.TXEN = 1;
   938   003426  8BE8               	bsf	232,5,b	;volatile
   939   003428                     
   940                           ; BSR set to: 14
   941                           ;serial.c: 20:     RC4STAbits.SPEN = 1;
   942   003428  8FE7               	bsf	231,7,b	;volatile
   943   00342A                     
   944                           ; BSR set to: 14
   945   00342A  0012               	return		;funcret
   946   00342C                     __end_of_initUSART4:
   947                           	callstack 0
   948                           
   949 ;; *************** function _colour_read_all *****************
   950 ;; Defined at:
   951 ;;		line 6 in file "colorfunctions.c"
   952 ;; Parameters:    Size  Location     Type
   953 ;;  cf              2   25[COMRAM] PTR struct RGBC_rel
   954 ;;		 -> colorf(20), 
   955 ;; Auto vars:     Size  Location     Type
   956 ;;  B               4   35[COMRAM] float 
   957 ;;  G               4   31[COMRAM] float 
   958 ;;  R               4   27[COMRAM] float 
   959 ;;  C               4    0        float 
   960 ;; Return value:  Size  Location     Type
   961 ;;                  1    wreg      void 
   962 ;; Registers used:
   963 ;;		wreg, fsr2l, fsr2h, status,2, status,0, cstack
   964 ;; Tracked objects:
   965 ;;		On entry : 0/0
   966 ;;		On exit  : 0/0
   967 ;;		Unchanged: 0/0
   968 ;; Data sizes:     COMRAM   BANK0   BANK1   BANK2   BANK3   BANK4   BANK5   BANK6   BANK7   BANK8   BANK9  BANK10  BANK1
      +1  BANK12  BANK13
   969 ;;      Params:         2       0       0       0       0       0       0       0       0       0       0       0       
      +0       0       0
   970 ;;      Locals:        12       0       0       0       0       0       0       0       0       0       0       0       
      +0       0       0
   971 ;;      Temps:          0       0       0       0       0       0       0       0       0       0       0       0       
      +0       0       0
   972 ;;      Totals:        14       0       0       0       0       0       0       0       0       0       0       0       
      +0       0       0
   973 ;;Total ram usage:       14 bytes
   974 ;; Hardware stack levels used: 1
   975 ;; Hardware stack levels required when called: 3
   976 ;; This function calls:
   977 ;;		___xxtofl
   978 ;;		_color_read_Blue
   979 ;;		_color_read_Clear
   980 ;;		_color_read_Green
   981 ;;		_color_read_Red
   982 ;; This function is called by:
   983 ;;		_main
   984 ;; This function uses a non-reentrant model
   985 ;;
   986                           
   987                           	psect	text2
   988   002D5A                     __ptext2:
   989                           	callstack 0
   990   002D5A                     _colour_read_all:
   991                           	callstack 27
   992   002D5A                     
   993                           ;colorfunctions.c: 8:     float R = color_read_Red();
   994   002D5A  EC06  F018         	call	_color_read_Red	;wreg free
   995   002D5E  C005  F00C         	movff	?_color_read_Red,___xxtofl@val
   996   002D62  C006  F00D         	movff	?_color_read_Red+1,___xxtofl@val+1
   997   002D66  6A0E               	clrf	(___xxtofl@val+2)^0,c
   998   002D68  6A0F               	clrf	(___xxtofl@val+3)^0,c
   999   002D6A  0E00               	movlw	0
  1000   002D6C  EC14  F013         	call	___xxtofl
  1001   002D70  C00C  F01C         	movff	?___xxtofl,colour_read_all@R
  1002   002D74  C00D  F01D         	movff	?___xxtofl+1,colour_read_all@R+1
  1003   002D78  C00E  F01E         	movff	?___xxtofl+2,colour_read_all@R+2
  1004   002D7C  C00F  F01F         	movff	?___xxtofl+3,colour_read_all@R+3
  1005                           
  1006                           ;colorfunctions.c: 9:     float G= color_read_Green();
  1007   002D80  EC2E  F018         	call	_color_read_Green	;wreg free
  1008   002D84  C005  F00C         	movff	?_color_read_Green,___xxtofl@val
  1009   002D88  C006  F00D         	movff	?_color_read_Green+1,___xxtofl@val+1
  1010   002D8C  6A0E               	clrf	(___xxtofl@val+2)^0,c
  1011   002D8E  6A0F               	clrf	(___xxtofl@val+3)^0,c
  1012   002D90  0E00               	movlw	0
  1013   002D92  EC14  F013         	call	___xxtofl
  1014   002D96  C00C  F020         	movff	?___xxtofl,colour_read_all@G
  1015   002D9A  C00D  F021         	movff	?___xxtofl+1,colour_read_all@G+1
  1016   002D9E  C00E  F022         	movff	?___xxtofl+2,colour_read_all@G+2
  1017   002DA2  C00F  F023         	movff	?___xxtofl+3,colour_read_all@G+3
  1018                           
  1019                           ;colorfunctions.c: 10:     float B= color_read_Blue();
  1020   002DA6  EC7E  F018         	call	_color_read_Blue	;wreg free
  1021   002DAA  C005  F00C         	movff	?_color_read_Blue,___xxtofl@val
  1022   002DAE  C006  F00D         	movff	?_color_read_Blue+1,___xxtofl@val+1
  1023   002DB2  6A0E               	clrf	(___xxtofl@val+2)^0,c
  1024   002DB4  6A0F               	clrf	(___xxtofl@val+3)^0,c
  1025   002DB6  0E00               	movlw	0
  1026   002DB8  EC14  F013         	call	___xxtofl
  1027   002DBC  C00C  F024         	movff	?___xxtofl,colour_read_all@B
  1028   002DC0  C00D  F025         	movff	?___xxtofl+1,colour_read_all@B+1
  1029   002DC4  C00E  F026         	movff	?___xxtofl+2,colour_read_all@B+2
  1030   002DC8  C00F  F027         	movff	?___xxtofl+3,colour_read_all@B+3
  1031   002DCC  EC56  F018         	call	_color_read_Clear	;wreg free
  1032   002DD0  C005  F00C         	movff	?_color_read_Clear,___xxtofl@val
  1033   002DD4  C006  F00D         	movff	?_color_read_Clear+1,___xxtofl@val+1
  1034   002DD8  6A0E               	clrf	(___xxtofl@val+2)^0,c
  1035   002DDA  6A0F               	clrf	(___xxtofl@val+3)^0,c
  1036   002DDC  0E00               	movlw	0
  1037   002DDE  EC14  F013         	call	___xxtofl
  1038   002DE2                     
  1039                           ;colorfunctions.c: 15:     (cf->Rf)=R;
  1040   002DE2  C01A  FFD9         	movff	colour_read_all@cf,fsr2l
  1041   002DE6  C01B  FFDA         	movff	colour_read_all@cf+1,fsr2h
  1042   002DEA  C01C  FFDE         	movff	colour_read_all@R,postinc2
  1043   002DEE  C01D  FFDE         	movff	colour_read_all@R+1,postinc2
  1044   002DF2  C01E  FFDE         	movff	colour_read_all@R+2,postinc2
  1045   002DF6  C01F  FFDE         	movff	colour_read_all@R+3,postinc2
  1046   002DFA                     
  1047                           ;colorfunctions.c: 16:     (cf->Bf)=B;
  1048   002DFA  EE20 F008          	lfsr	2,8
  1049   002DFE  501A               	movf	colour_read_all@cf^0,w,c
  1050   002E00  26D9               	addwf	fsr2l,f,c
  1051   002E02  501B               	movf	(colour_read_all@cf+1)^0,w,c
  1052   002E04  22DA               	addwfc	fsr2h,f,c
  1053   002E06  C024  FFDE         	movff	colour_read_all@B,postinc2
  1054   002E0A  C025  FFDE         	movff	colour_read_all@B+1,postinc2
  1055   002E0E  C026  FFDE         	movff	colour_read_all@B+2,postinc2
  1056   002E12  C027  FFDE         	movff	colour_read_all@B+3,postinc2
  1057   002E16                     
  1058                           ;colorfunctions.c: 17:     (cf->Gf)=G;
  1059   002E16  EE20 F004          	lfsr	2,4
  1060   002E1A  501A               	movf	colour_read_all@cf^0,w,c
  1061   002E1C  26D9               	addwf	fsr2l,f,c
  1062   002E1E  501B               	movf	(colour_read_all@cf+1)^0,w,c
  1063   002E20  22DA               	addwfc	fsr2h,f,c
  1064   002E22  C020  FFDE         	movff	colour_read_all@G,postinc2
  1065   002E26  C021  FFDE         	movff	colour_read_all@G+1,postinc2
  1066   002E2A  C022  FFDE         	movff	colour_read_all@G+2,postinc2
  1067   002E2E  C023  FFDE         	movff	colour_read_all@G+3,postinc2
  1068   002E32  0012               	return		;funcret
  1069   002E34                     __end_of_colour_read_all:
  1070                           	callstack 0
  1071                           
  1072 ;; *************** function _color_read_Red *****************
  1073 ;; Defined at:
  1074 ;;		line 32 in file "colorclick.c"
  1075 ;; Parameters:    Size  Location     Type
  1076 ;;		None
  1077 ;; Auto vars:     Size  Location     Type
  1078 ;;  tmp             2    9[COMRAM] unsigned int 
  1079 ;; Return value:  Size  Location     Type
  1080 ;;                  2    4[COMRAM] unsigned int 
  1081 ;; Registers used:
  1082 ;;		wreg, status,2, status,0, cstack
  1083 ;; Tracked objects:
  1084 ;;		On entry : 0/0
  1085 ;;		On exit  : 0/0
  1086 ;;		Unchanged: 0/0
  1087 ;; Data sizes:     COMRAM   BANK0   BANK1   BANK2   BANK3   BANK4   BANK5   BANK6   BANK7   BANK8   BANK9  BANK10  BANK1
      +1  BANK12  BANK13
  1088 ;;      Params:         2       0       0       0       0       0       0       0       0       0       0       0       
      +0       0       0
  1089 ;;      Locals:         2       0       0       0       0       0       0       0       0       0       0       0       
      +0       0       0
  1090 ;;      Temps:          3       0       0       0       0       0       0       0       0       0       0       0       
      +0       0       0
  1091 ;;      Totals:         7       0       0       0       0       0       0       0       0       0       0       0       
      +0       0       0
  1092 ;;Total ram usage:        7 bytes
  1093 ;; Hardware stack levels used: 1
  1094 ;; Hardware stack levels required when called: 2
  1095 ;; This function calls:
  1096 ;;		_I2C_2_Master_Read
  1097 ;;		_I2C_2_Master_RepStart
  1098 ;;		_I2C_2_Master_Start
  1099 ;;		_I2C_2_Master_Stop
  1100 ;;		_I2C_2_Master_Write
  1101 ;; This function is called by:
  1102 ;;		_colour_read_all
  1103 ;; This function uses a non-reentrant model
  1104 ;;
  1105                           
  1106                           	psect	text3
  1107   00300C                     __ptext3:
  1108                           	callstack 0
  1109   00300C                     _color_read_Red:
  1110                           	callstack 27
  1111   00300C                     
  1112                           ;colorclick.c: 34:  unsigned int tmp;;colorclick.c: 35:  I2C_2_Master_Start();
  1113   00300C  EC4E  F01A         	call	_I2C_2_Master_Start	;wreg free
  1114                           
  1115                           ;colorclick.c: 36:  I2C_2_Master_Write(0x52 | 0x00);
  1116   003010  0E52               	movlw	82
  1117   003012  EC3E  F01A         	call	_I2C_2_Master_Write
  1118                           
  1119                           ;colorclick.c: 37:  I2C_2_Master_Write(0xA0 | 0x16);
  1120   003016  0EB6               	movlw	182
  1121   003018  EC3E  F01A         	call	_I2C_2_Master_Write
  1122                           
  1123                           ;colorclick.c: 38:  I2C_2_Master_RepStart();
  1124   00301C  EC44  F01A         	call	_I2C_2_Master_RepStart	;wreg free
  1125                           
  1126                           ;colorclick.c: 39:  I2C_2_Master_Write(0x52 | 0x01);
  1127   003020  0E53               	movlw	83
  1128   003022  EC3E  F01A         	call	_I2C_2_Master_Write
  1129                           
  1130                           ;colorclick.c: 40:  tmp=I2C_2_Master_Read(1);
  1131   003026  0E01               	movlw	1
  1132   003028  EC61  F019         	call	_I2C_2_Master_Read
  1133   00302C  6E07               	movwf	??_color_read_Red^0,c
  1134   00302E  5007               	movf	??_color_read_Red^0,w,c
  1135   003030  6E0A               	movwf	color_read_Red@tmp^0,c
  1136   003032  6A0B               	clrf	(color_read_Red@tmp+1)^0,c
  1137                           
  1138                           ;colorclick.c: 41:  tmp=tmp | (I2C_2_Master_Read(0)<<8);
  1139   003034  0E00               	movlw	0
  1140   003036  EC61  F019         	call	_I2C_2_Master_Read
  1141   00303A  6E07               	movwf	??_color_read_Red^0,c
  1142   00303C  5007               	movf	??_color_read_Red^0,w,c
  1143   00303E  6E09               	movwf	(??_color_read_Red+2)^0,c
  1144   003040  6A08               	clrf	(??_color_read_Red+1)^0,c
  1145   003042  500A               	movf	color_read_Red@tmp^0,w,c
  1146   003044  1008               	iorwf	(??_color_read_Red+1)^0,w,c
  1147   003046  6E0A               	movwf	color_read_Red@tmp^0,c
  1148   003048  500B               	movf	(color_read_Red@tmp+1)^0,w,c
  1149   00304A  1009               	iorwf	(??_color_read_Red+2)^0,w,c
  1150   00304C  6E0B               	movwf	(color_read_Red@tmp+1)^0,c
  1151                           
  1152                           ;colorclick.c: 42:  I2C_2_Master_Stop();
  1153   00304E  EC49  F01A         	call	_I2C_2_Master_Stop	;wreg free
  1154   003052                     
  1155                           ;colorclick.c: 43:  return tmp;
  1156   003052  C00A  F005         	movff	color_read_Red@tmp,?_color_read_Red
  1157   003056  C00B  F006         	movff	color_read_Red@tmp+1,?_color_read_Red+1
  1158   00305A  0012               	return		;funcret
  1159   00305C                     __end_of_color_read_Red:
  1160                           	callstack 0
  1161                           
  1162 ;; *************** function _color_read_Green *****************
  1163 ;; Defined at:
  1164 ;;		line 45 in file "colorclick.c"
  1165 ;; Parameters:    Size  Location     Type
  1166 ;;		None
  1167 ;; Auto vars:     Size  Location     Type
  1168 ;;  tmp             2    9[COMRAM] unsigned int 
  1169 ;; Return value:  Size  Location     Type
  1170 ;;                  2    4[COMRAM] unsigned int 
  1171 ;; Registers used:
  1172 ;;		wreg, status,2, status,0, cstack
  1173 ;; Tracked objects:
  1174 ;;		On entry : 0/0
  1175 ;;		On exit  : 0/0
  1176 ;;		Unchanged: 0/0
  1177 ;; Data sizes:     COMRAM   BANK0   BANK1   BANK2   BANK3   BANK4   BANK5   BANK6   BANK7   BANK8   BANK9  BANK10  BANK1
      +1  BANK12  BANK13
  1178 ;;      Params:         2       0       0       0       0       0       0       0       0       0       0       0       
      +0       0       0
  1179 ;;      Locals:         2       0       0       0       0       0       0       0       0       0       0       0       
      +0       0       0
  1180 ;;      Temps:          3       0       0       0       0       0       0       0       0       0       0       0       
      +0       0       0
  1181 ;;      Totals:         7       0       0       0       0       0       0       0       0       0       0       0       
      +0       0       0
  1182 ;;Total ram usage:        7 bytes
  1183 ;; Hardware stack levels used: 1
  1184 ;; Hardware stack levels required when called: 2
  1185 ;; This function calls:
  1186 ;;		_I2C_2_Master_Read
  1187 ;;		_I2C_2_Master_RepStart
  1188 ;;		_I2C_2_Master_Start
  1189 ;;		_I2C_2_Master_Stop
  1190 ;;		_I2C_2_Master_Write
  1191 ;; This function is called by:
  1192 ;;		_colour_read_all
  1193 ;; This function uses a non-reentrant model
  1194 ;;
  1195                           
  1196                           	psect	text4
  1197   00305C                     __ptext4:
  1198                           	callstack 0
  1199   00305C                     _color_read_Green:
  1200                           	callstack 27
  1201   00305C                     
  1202                           ;colorclick.c: 47:     unsigned int tmp;;colorclick.c: 48:     I2C_2_Master_Start();
  1203   00305C  EC4E  F01A         	call	_I2C_2_Master_Start	;wreg free
  1204                           
  1205                           ;colorclick.c: 49:     I2C_2_Master_Write(0x52 | 0x00);
  1206   003060  0E52               	movlw	82
  1207   003062  EC3E  F01A         	call	_I2C_2_Master_Write
  1208                           
  1209                           ;colorclick.c: 50:     I2C_2_Master_Write(0xA0 | 0x18);
  1210   003066  0EB8               	movlw	184
  1211   003068  EC3E  F01A         	call	_I2C_2_Master_Write
  1212                           
  1213                           ;colorclick.c: 51:     I2C_2_Master_RepStart();
  1214   00306C  EC44  F01A         	call	_I2C_2_Master_RepStart	;wreg free
  1215                           
  1216                           ;colorclick.c: 52:     I2C_2_Master_Write(0x52 | 0x01);
  1217   003070  0E53               	movlw	83
  1218   003072  EC3E  F01A         	call	_I2C_2_Master_Write
  1219                           
  1220                           ;colorclick.c: 53:     tmp=I2C_2_Master_Read(1);
  1221   003076  0E01               	movlw	1
  1222   003078  EC61  F019         	call	_I2C_2_Master_Read
  1223   00307C  6E07               	movwf	??_color_read_Green^0,c
  1224   00307E  5007               	movf	??_color_read_Green^0,w,c
  1225   003080  6E0A               	movwf	color_read_Green@tmp^0,c
  1226   003082  6A0B               	clrf	(color_read_Green@tmp+1)^0,c
  1227                           
  1228                           ;colorclick.c: 54:     tmp=tmp | (I2C_2_Master_Read(0)<<8);
  1229   003084  0E00               	movlw	0
  1230   003086  EC61  F019         	call	_I2C_2_Master_Read
  1231   00308A  6E07               	movwf	??_color_read_Green^0,c
  1232   00308C  5007               	movf	??_color_read_Green^0,w,c
  1233   00308E  6E09               	movwf	(??_color_read_Green+2)^0,c
  1234   003090  6A08               	clrf	(??_color_read_Green+1)^0,c
  1235   003092  500A               	movf	color_read_Green@tmp^0,w,c
  1236   003094  1008               	iorwf	(??_color_read_Green+1)^0,w,c
  1237   003096  6E0A               	movwf	color_read_Green@tmp^0,c
  1238   003098  500B               	movf	(color_read_Green@tmp+1)^0,w,c
  1239   00309A  1009               	iorwf	(??_color_read_Green+2)^0,w,c
  1240   00309C  6E0B               	movwf	(color_read_Green@tmp+1)^0,c
  1241                           
  1242                           ;colorclick.c: 55:     I2C_2_Master_Stop();
  1243   00309E  EC49  F01A         	call	_I2C_2_Master_Stop	;wreg free
  1244   0030A2                     
  1245                           ;colorclick.c: 56:     return tmp;
  1246   0030A2  C00A  F005         	movff	color_read_Green@tmp,?_color_read_Green
  1247   0030A6  C00B  F006         	movff	color_read_Green@tmp+1,?_color_read_Green+1
  1248   0030AA  0012               	return		;funcret
  1249   0030AC                     __end_of_color_read_Green:
  1250                           	callstack 0
  1251                           
  1252 ;; *************** function _color_read_Clear *****************
  1253 ;; Defined at:
  1254 ;;		line 74 in file "colorclick.c"
  1255 ;; Parameters:    Size  Location     Type
  1256 ;;		None
  1257 ;; Auto vars:     Size  Location     Type
  1258 ;;  tmp             2    9[COMRAM] unsigned int 
  1259 ;; Return value:  Size  Location     Type
  1260 ;;                  2    4[COMRAM] unsigned int 
  1261 ;; Registers used:
  1262 ;;		wreg, status,2, status,0, cstack
  1263 ;; Tracked objects:
  1264 ;;		On entry : 0/0
  1265 ;;		On exit  : 0/0
  1266 ;;		Unchanged: 0/0
  1267 ;; Data sizes:     COMRAM   BANK0   BANK1   BANK2   BANK3   BANK4   BANK5   BANK6   BANK7   BANK8   BANK9  BANK10  BANK1
      +1  BANK12  BANK13
  1268 ;;      Params:         2       0       0       0       0       0       0       0       0       0       0       0       
      +0       0       0
  1269 ;;      Locals:         2       0       0       0       0       0       0       0       0       0       0       0       
      +0       0       0
  1270 ;;      Temps:          3       0       0       0       0       0       0       0       0       0       0       0       
      +0       0       0
  1271 ;;      Totals:         7       0       0       0       0       0       0       0       0       0       0       0       
      +0       0       0
  1272 ;;Total ram usage:        7 bytes
  1273 ;; Hardware stack levels used: 1
  1274 ;; Hardware stack levels required when called: 2
  1275 ;; This function calls:
  1276 ;;		_I2C_2_Master_Read
  1277 ;;		_I2C_2_Master_RepStart
  1278 ;;		_I2C_2_Master_Start
  1279 ;;		_I2C_2_Master_Stop
  1280 ;;		_I2C_2_Master_Write
  1281 ;; This function is called by:
  1282 ;;		_colour_read_all
  1283 ;; This function uses a non-reentrant model
  1284 ;;
  1285                           
  1286                           	psect	text5
  1287   0030AC                     __ptext5:
  1288                           	callstack 0
  1289   0030AC                     _color_read_Clear:
  1290                           	callstack 27
  1291   0030AC                     
  1292                           ;colorclick.c: 76:     unsigned int tmp;;colorclick.c: 77:     I2C_2_Master_Start();
  1293   0030AC  EC4E  F01A         	call	_I2C_2_Master_Start	;wreg free
  1294                           
  1295                           ;colorclick.c: 78:     I2C_2_Master_Write(0x52 | 0x00);
  1296   0030B0  0E52               	movlw	82
  1297   0030B2  EC3E  F01A         	call	_I2C_2_Master_Write
  1298                           
  1299                           ;colorclick.c: 79:     I2C_2_Master_Write(0xA0 | 0x14);
  1300   0030B6  0EB4               	movlw	180
  1301   0030B8  EC3E  F01A         	call	_I2C_2_Master_Write
  1302                           
  1303                           ;colorclick.c: 80:     I2C_2_Master_RepStart();
  1304   0030BC  EC44  F01A         	call	_I2C_2_Master_RepStart	;wreg free
  1305                           
  1306                           ;colorclick.c: 81:     I2C_2_Master_Write(0x52 | 0x01);
  1307   0030C0  0E53               	movlw	83
  1308   0030C2  EC3E  F01A         	call	_I2C_2_Master_Write
  1309                           
  1310                           ;colorclick.c: 82:     tmp=I2C_2_Master_Read(1);
  1311   0030C6  0E01               	movlw	1
  1312   0030C8  EC61  F019         	call	_I2C_2_Master_Read
  1313   0030CC  6E07               	movwf	??_color_read_Clear^0,c
  1314   0030CE  5007               	movf	??_color_read_Clear^0,w,c
  1315   0030D0  6E0A               	movwf	color_read_Clear@tmp^0,c
  1316   0030D2  6A0B               	clrf	(color_read_Clear@tmp+1)^0,c
  1317                           
  1318                           ;colorclick.c: 83:     tmp=tmp | (I2C_2_Master_Read(0)<<8);
  1319   0030D4  0E00               	movlw	0
  1320   0030D6  EC61  F019         	call	_I2C_2_Master_Read
  1321   0030DA  6E07               	movwf	??_color_read_Clear^0,c
  1322   0030DC  5007               	movf	??_color_read_Clear^0,w,c
  1323   0030DE  6E09               	movwf	(??_color_read_Clear+2)^0,c
  1324   0030E0  6A08               	clrf	(??_color_read_Clear+1)^0,c
  1325   0030E2  500A               	movf	color_read_Clear@tmp^0,w,c
  1326   0030E4  1008               	iorwf	(??_color_read_Clear+1)^0,w,c
  1327   0030E6  6E0A               	movwf	color_read_Clear@tmp^0,c
  1328   0030E8  500B               	movf	(color_read_Clear@tmp+1)^0,w,c
  1329   0030EA  1009               	iorwf	(??_color_read_Clear+2)^0,w,c
  1330   0030EC  6E0B               	movwf	(color_read_Clear@tmp+1)^0,c
  1331                           
  1332                           ;colorclick.c: 84:     I2C_2_Master_Stop();
  1333   0030EE  EC49  F01A         	call	_I2C_2_Master_Stop	;wreg free
  1334   0030F2                     
  1335                           ;colorclick.c: 85:     return tmp;
  1336   0030F2  C00A  F005         	movff	color_read_Clear@tmp,?_color_read_Clear
  1337   0030F6  C00B  F006         	movff	color_read_Clear@tmp+1,?_color_read_Clear+1
  1338   0030FA  0012               	return		;funcret
  1339   0030FC                     __end_of_color_read_Clear:
  1340                           	callstack 0
  1341                           
  1342 ;; *************** function _color_read_Blue *****************
  1343 ;; Defined at:
  1344 ;;		line 59 in file "colorclick.c"
  1345 ;; Parameters:    Size  Location     Type
  1346 ;;		None
  1347 ;; Auto vars:     Size  Location     Type
  1348 ;;  tmp             2    9[COMRAM] unsigned int 
  1349 ;; Return value:  Size  Location     Type
  1350 ;;                  2    4[COMRAM] unsigned int 
  1351 ;; Registers used:
  1352 ;;		wreg, status,2, status,0, cstack
  1353 ;; Tracked objects:
  1354 ;;		On entry : 0/0
  1355 ;;		On exit  : 0/0
  1356 ;;		Unchanged: 0/0
  1357 ;; Data sizes:     COMRAM   BANK0   BANK1   BANK2   BANK3   BANK4   BANK5   BANK6   BANK7   BANK8   BANK9  BANK10  BANK1
      +1  BANK12  BANK13
  1358 ;;      Params:         2       0       0       0       0       0       0       0       0       0       0       0       
      +0       0       0
  1359 ;;      Locals:         2       0       0       0       0       0       0       0       0       0       0       0       
      +0       0       0
  1360 ;;      Temps:          3       0       0       0       0       0       0       0       0       0       0       0       
      +0       0       0
  1361 ;;      Totals:         7       0       0       0       0       0       0       0       0       0       0       0       
      +0       0       0
  1362 ;;Total ram usage:        7 bytes
  1363 ;; Hardware stack levels used: 1
  1364 ;; Hardware stack levels required when called: 2
  1365 ;; This function calls:
  1366 ;;		_I2C_2_Master_Read
  1367 ;;		_I2C_2_Master_RepStart
  1368 ;;		_I2C_2_Master_Start
  1369 ;;		_I2C_2_Master_Stop
  1370 ;;		_I2C_2_Master_Write
  1371 ;; This function is called by:
  1372 ;;		_colour_read_all
  1373 ;; This function uses a non-reentrant model
  1374 ;;
  1375                           
  1376                           	psect	text6
  1377   0030FC                     __ptext6:
  1378                           	callstack 0
  1379   0030FC                     _color_read_Blue:
  1380                           	callstack 27
  1381   0030FC                     
  1382                           ;colorclick.c: 61:     unsigned int tmp;;colorclick.c: 62:     I2C_2_Master_Start();
  1383   0030FC  EC4E  F01A         	call	_I2C_2_Master_Start	;wreg free
  1384                           
  1385                           ;colorclick.c: 63:     I2C_2_Master_Write(0x52 | 0x00);
  1386   003100  0E52               	movlw	82
  1387   003102  EC3E  F01A         	call	_I2C_2_Master_Write
  1388                           
  1389                           ;colorclick.c: 64:     I2C_2_Master_Write(0xA0 | 0x1A);
  1390   003106  0EBA               	movlw	186
  1391   003108  EC3E  F01A         	call	_I2C_2_Master_Write
  1392                           
  1393                           ;colorclick.c: 65:     I2C_2_Master_RepStart();
  1394   00310C  EC44  F01A         	call	_I2C_2_Master_RepStart	;wreg free
  1395                           
  1396                           ;colorclick.c: 66:     I2C_2_Master_Write(0x52 | 0x01);
  1397   003110  0E53               	movlw	83
  1398   003112  EC3E  F01A         	call	_I2C_2_Master_Write
  1399                           
  1400                           ;colorclick.c: 67:     tmp=I2C_2_Master_Read(1);
  1401   003116  0E01               	movlw	1
  1402   003118  EC61  F019         	call	_I2C_2_Master_Read
  1403   00311C  6E07               	movwf	??_color_read_Blue^0,c
  1404   00311E  5007               	movf	??_color_read_Blue^0,w,c
  1405   003120  6E0A               	movwf	color_read_Blue@tmp^0,c
  1406   003122  6A0B               	clrf	(color_read_Blue@tmp+1)^0,c
  1407                           
  1408                           ;colorclick.c: 68:     tmp=tmp | (I2C_2_Master_Read(0)<<8);
  1409   003124  0E00               	movlw	0
  1410   003126  EC61  F019         	call	_I2C_2_Master_Read
  1411   00312A  6E07               	movwf	??_color_read_Blue^0,c
  1412   00312C  5007               	movf	??_color_read_Blue^0,w,c
  1413   00312E  6E09               	movwf	(??_color_read_Blue+2)^0,c
  1414   003130  6A08               	clrf	(??_color_read_Blue+1)^0,c
  1415   003132  500A               	movf	color_read_Blue@tmp^0,w,c
  1416   003134  1008               	iorwf	(??_color_read_Blue+1)^0,w,c
  1417   003136  6E0A               	movwf	color_read_Blue@tmp^0,c
  1418   003138  500B               	movf	(color_read_Blue@tmp+1)^0,w,c
  1419   00313A  1009               	iorwf	(??_color_read_Blue+2)^0,w,c
  1420   00313C  6E0B               	movwf	(color_read_Blue@tmp+1)^0,c
  1421                           
  1422                           ;colorclick.c: 69:     I2C_2_Master_Stop();
  1423   00313E  EC49  F01A         	call	_I2C_2_Master_Stop	;wreg free
  1424   003142                     
  1425                           ;colorclick.c: 70:     return tmp;
  1426   003142  C00A  F005         	movff	color_read_Blue@tmp,?_color_read_Blue
  1427   003146  C00B  F006         	movff	color_read_Blue@tmp+1,?_color_read_Blue+1
  1428   00314A  0012               	return		;funcret
  1429   00314C                     __end_of_color_read_Blue:
  1430                           	callstack 0
  1431                           
  1432 ;; *************** function _I2C_2_Master_RepStart *****************
  1433 ;; Defined at:
  1434 ;;		line 33 in file "i2c.c"
  1435 ;; Parameters:    Size  Location     Type
  1436 ;;		None
  1437 ;; Auto vars:     Size  Location     Type
  1438 ;;		None
  1439 ;; Return value:  Size  Location     Type
  1440 ;;                  1    wreg      void 
  1441 ;; Registers used:
  1442 ;;		wreg, status,2, status,0, cstack
  1443 ;; Tracked objects:
  1444 ;;		On entry : 0/0
  1445 ;;		On exit  : 0/0
  1446 ;;		Unchanged: 0/0
  1447 ;; Data sizes:     COMRAM   BANK0   BANK1   BANK2   BANK3   BANK4   BANK5   BANK6   BANK7   BANK8   BANK9  BANK10  BANK1
      +1  BANK12  BANK13
  1448 ;;      Params:         0       0       0       0       0       0       0       0       0       0       0       0       
      +0       0       0
  1449 ;;      Locals:         0       0       0       0       0       0       0       0       0       0       0       0       
      +0       0       0
  1450 ;;      Temps:          0       0       0       0       0       0       0       0       0       0       0       0       
      +0       0       0
  1451 ;;      Totals:         0       0       0       0       0       0       0       0       0       0       0       0       
      +0       0       0
  1452 ;;Total ram usage:        0 bytes
  1453 ;; Hardware stack levels used: 1
  1454 ;; Hardware stack levels required when called: 1
  1455 ;; This function calls:
  1456 ;;		_I2C_2_Master_Idle
  1457 ;; This function is called by:
  1458 ;;		_color_read_Red
  1459 ;;		_color_read_Green
  1460 ;;		_color_read_Blue
  1461 ;;		_color_read_Clear
  1462 ;; This function uses a non-reentrant model
  1463 ;;
  1464                           
  1465                           	psect	text7
  1466   003488                     __ptext7:
  1467                           	callstack 0
  1468   003488                     _I2C_2_Master_RepStart:
  1469                           	callstack 27
  1470   003488                     
  1471                           ;i2c.c: 35:   I2C_2_Master_Idle();
  1472   003488  ECF1  F019         	call	_I2C_2_Master_Idle	;wreg free
  1473   00348C                     
  1474                           ;i2c.c: 36:   SSP2CON2bits.RSEN = 1;
  1475   00348C  010E               	movlb	14	; () banked
  1476   00348E  83DA               	bsf	218,1,b	;volatile
  1477   003490                     
  1478                           ; BSR set to: 14
  1479   003490  0012               	return		;funcret
  1480   003492                     __end_of_I2C_2_Master_RepStart:
  1481                           	callstack 0
  1482                           
  1483 ;; *************** function _I2C_2_Master_Read *****************
  1484 ;; Defined at:
  1485 ;;		line 51 in file "i2c.c"
  1486 ;; Parameters:    Size  Location     Type
  1487 ;;  ack             1    wreg     unsigned char 
  1488 ;; Auto vars:     Size  Location     Type
  1489 ;;  ack             1    2[COMRAM] unsigned char 
  1490 ;;  tmp             1    3[COMRAM] unsigned char 
  1491 ;; Return value:  Size  Location     Type
  1492 ;;                  1    wreg      unsigned char 
  1493 ;; Registers used:
  1494 ;;		wreg, status,2, status,0, cstack
  1495 ;; Tracked objects:
  1496 ;;		On entry : 0/0
  1497 ;;		On exit  : 0/0
  1498 ;;		Unchanged: 0/0
  1499 ;; Data sizes:     COMRAM   BANK0   BANK1   BANK2   BANK3   BANK4   BANK5   BANK6   BANK7   BANK8   BANK9  BANK10  BANK1
      +1  BANK12  BANK13
  1500 ;;      Params:         0       0       0       0       0       0       0       0       0       0       0       0       
      +0       0       0
  1501 ;;      Locals:         2       0       0       0       0       0       0       0       0       0       0       0       
      +0       0       0
  1502 ;;      Temps:          1       0       0       0       0       0       0       0       0       0       0       0       
      +0       0       0
  1503 ;;      Totals:         3       0       0       0       0       0       0       0       0       0       0       0       
      +0       0       0
  1504 ;;Total ram usage:        3 bytes
  1505 ;; Hardware stack levels used: 1
  1506 ;; Hardware stack levels required when called: 1
  1507 ;; This function calls:
  1508 ;;		_I2C_2_Master_Idle
  1509 ;; This function is called by:
  1510 ;;		_color_read_Red
  1511 ;;		_color_read_Green
  1512 ;;		_color_read_Blue
  1513 ;;		_color_read_Clear
  1514 ;; This function uses a non-reentrant model
  1515 ;;
  1516                           
  1517                           	psect	text8
  1518   0032C2                     __ptext8:
  1519                           	callstack 0
  1520   0032C2                     _I2C_2_Master_Read:
  1521                           	callstack 27
  1522                           
  1523                           ; BSR set to: 14
  1524                           ;incstack = 0
  1525                           ;I2C_2_Master_Read@ack stored from wreg
  1526   0032C2  6E03               	movwf	I2C_2_Master_Read@ack^0,c
  1527   0032C4                     
  1528                           ;i2c.c: 51: unsigned char I2C_2_Master_Read(unsigned char ack);i2c.c: 52: {;i2c.c: 53:  
      +                           unsigned char tmp;;i2c.c: 54:   I2C_2_Master_Idle();
  1529   0032C4  ECF1  F019         	call	_I2C_2_Master_Idle	;wreg free
  1530   0032C8                     
  1531                           ;i2c.c: 55:   SSP2CON2bits.RCEN = 1;
  1532   0032C8  010E               	movlb	14	; () banked
  1533   0032CA  87DA               	bsf	218,3,b	;volatile
  1534                           
  1535                           ;i2c.c: 56:   I2C_2_Master_Idle();
  1536   0032CC  ECF1  F019         	call	_I2C_2_Master_Idle	;wreg free
  1537   0032D0                     
  1538                           ;i2c.c: 57:   tmp = SSP2BUF;
  1539   0032D0  CED5 F004          	movff	3797,I2C_2_Master_Read@tmp	;volatile
  1540                           
  1541                           ;i2c.c: 58:   I2C_2_Master_Idle();
  1542   0032D4  ECF1  F019         	call	_I2C_2_Master_Idle	;wreg free
  1543   0032D8                     
  1544                           ;i2c.c: 59:   SSP2CON2bits.ACKDT = !ack;
  1545   0032D8  5003               	movf	I2C_2_Master_Read@ack^0,w,c
  1546   0032DA  B4D8               	btfsc	status,2,c
  1547   0032DC  EF72  F019         	goto	u1881
  1548   0032E0  EF76  F019         	goto	u1880
  1549   0032E4                     u1881:
  1550   0032E4  6A02               	clrf	??_I2C_2_Master_Read^0,c
  1551   0032E6  2A02               	incf	??_I2C_2_Master_Read^0,f,c
  1552   0032E8  EF77  F019         	goto	u1898
  1553   0032EC                     u1880:
  1554   0032EC  6A02               	clrf	??_I2C_2_Master_Read^0,c
  1555   0032EE                     u1898:
  1556   0032EE  3A02               	swapf	??_I2C_2_Master_Read^0,f,c
  1557   0032F0  4602               	rlncf	??_I2C_2_Master_Read^0,f,c
  1558   0032F2  010E               	movlb	14	; () banked
  1559   0032F4  51DA               	movf	218,w,b	;volatile
  1560   0032F6  1802               	xorwf	??_I2C_2_Master_Read^0,w,c
  1561   0032F8  0BDF               	andlw	-33
  1562   0032FA  1802               	xorwf	??_I2C_2_Master_Read^0,w,c
  1563   0032FC  6FDA               	movwf	218,b	;volatile
  1564   0032FE                     
  1565                           ; BSR set to: 14
  1566                           ;i2c.c: 60:   SSP2CON2bits.ACKEN = 1;
  1567   0032FE  89DA               	bsf	218,4,b	;volatile
  1568   003300                     
  1569                           ; BSR set to: 14
  1570                           ;i2c.c: 61:   return tmp;
  1571   003300  5004               	movf	I2C_2_Master_Read@tmp^0,w,c
  1572   003302                     
  1573                           ; BSR set to: 14
  1574   003302  0012               	return		;funcret
  1575   003304                     __end_of_I2C_2_Master_Read:
  1576                           	callstack 0
  1577                           
  1578 ;; *************** function _color_click_init *****************
  1579 ;; Defined at:
  1580 ;;		line 6 in file "colorclick.c"
  1581 ;; Parameters:    Size  Location     Type
  1582 ;;		None
  1583 ;; Auto vars:     Size  Location     Type
  1584 ;;		None
  1585 ;; Return value:  Size  Location     Type
  1586 ;;                  1    wreg      void 
  1587 ;; Registers used:
  1588 ;;		wreg, status,2, status,0, cstack
  1589 ;; Tracked objects:
  1590 ;;		On entry : 0/0
  1591 ;;		On exit  : 0/0
  1592 ;;		Unchanged: 0/0
  1593 ;; Data sizes:     COMRAM   BANK0   BANK1   BANK2   BANK3   BANK4   BANK5   BANK6   BANK7   BANK8   BANK9  BANK10  BANK1
      +1  BANK12  BANK13
  1594 ;;      Params:         0       0       0       0       0       0       0       0       0       0       0       0       
      +0       0       0
  1595 ;;      Locals:         0       0       0       0       0       0       0       0       0       0       0       0       
      +0       0       0
  1596 ;;      Temps:          1       0       0       0       0       0       0       0       0       0       0       0       
      +0       0       0
  1597 ;;      Totals:         1       0       0       0       0       0       0       0       0       0       0       0       
      +0       0       0
  1598 ;;Total ram usage:        1 bytes
  1599 ;; Hardware stack levels used: 1
  1600 ;; Hardware stack levels required when called: 3
  1601 ;; This function calls:
  1602 ;;		_I2C_2_Master_Init
  1603 ;;		_color_writetoaddr
  1604 ;; This function is called by:
  1605 ;;		_main
  1606 ;; This function uses a non-reentrant model
  1607 ;;
  1608                           
  1609                           	psect	text9
  1610   003304                     __ptext9:
  1611                           	callstack 0
  1612   003304                     _color_click_init:
  1613                           	callstack 27
  1614   003304                     
  1615                           ;colorclick.c: 9:     I2C_2_Master_Init();
  1616   003304  ECDC  F019         	call	_I2C_2_Master_Init	;wreg free
  1617   003308                     
  1618                           ;colorclick.c: 12:   color_writetoaddr(0x00, 0x01);
  1619   003308  0E01               	movlw	1
  1620   00330A  6E03               	movwf	color_writetoaddr@value^0,c
  1621   00330C  0E00               	movlw	0
  1622   00330E  EC16  F01A         	call	_color_writetoaddr
  1623   003312                     
  1624                           ;colorclick.c: 13:     _delay((unsigned long)((3)*(64000000/4000.0)));
  1625   003312  0E3F               	movlw	63
  1626   003314  6E05               	movwf	??_color_click_init^0,c
  1627   003316  0E55               	movlw	85
  1628   003318                     u3277:
  1629   003318  2EE8               	decfsz	wreg,f,c
  1630   00331A  D7FE               	bra	u3277
  1631   00331C  2E05               	decfsz	??_color_click_init^0,f,c
  1632   00331E  D7FC               	bra	u3277
  1633   003320  F000               	nop	
  1634   003322                     
  1635                           ;colorclick.c: 16:  color_writetoaddr(0x00, 0x03);
  1636   003322  0E03               	movlw	3
  1637   003324  6E03               	movwf	color_writetoaddr@value^0,c
  1638   003326  0E00               	movlw	0
  1639   003328  EC16  F01A         	call	_color_writetoaddr
  1640   00332C                     
  1641                           ;colorclick.c: 19:  color_writetoaddr(0x01, 0xD6);
  1642   00332C  0ED6               	movlw	214
  1643   00332E  6E03               	movwf	color_writetoaddr@value^0,c
  1644   003330  0E01               	movlw	1
  1645   003332  EC16  F01A         	call	_color_writetoaddr
  1646   003336                     
  1647                           ;colorclick.c: 21:     color_writetoaddr(0x00, 0x13);
  1648   003336  0E13               	movlw	19
  1649   003338  6E03               	movwf	color_writetoaddr@value^0,c
  1650   00333A  0E00               	movlw	0
  1651   00333C  EC16  F01A         	call	_color_writetoaddr
  1652   003340  0012               	return		;funcret
  1653   003342                     __end_of_color_click_init:
  1654                           	callstack 0
  1655                           
  1656 ;; *************** function _color_writetoaddr *****************
  1657 ;; Defined at:
  1658 ;;		line 24 in file "colorclick.c"
  1659 ;; Parameters:    Size  Location     Type
  1660 ;;  address         1    wreg     unsigned char 
  1661 ;;  value           1    2[COMRAM] unsigned char 
  1662 ;; Auto vars:     Size  Location     Type
  1663 ;;  address         1    3[COMRAM] unsigned char 
  1664 ;; Return value:  Size  Location     Type
  1665 ;;                  1    wreg      void 
  1666 ;; Registers used:
  1667 ;;		wreg, status,2, status,0, cstack
  1668 ;; Tracked objects:
  1669 ;;		On entry : 0/0
  1670 ;;		On exit  : 0/0
  1671 ;;		Unchanged: 0/0
  1672 ;; Data sizes:     COMRAM   BANK0   BANK1   BANK2   BANK3   BANK4   BANK5   BANK6   BANK7   BANK8   BANK9  BANK10  BANK1
      +1  BANK12  BANK13
  1673 ;;      Params:         1       0       0       0       0       0       0       0       0       0       0       0       
      +0       0       0
  1674 ;;      Locals:         1       0       0       0       0       0       0       0       0       0       0       0       
      +0       0       0
  1675 ;;      Temps:          0       0       0       0       0       0       0       0       0       0       0       0       
      +0       0       0
  1676 ;;      Totals:         2       0       0       0       0       0       0       0       0       0       0       0       
      +0       0       0
  1677 ;;Total ram usage:        2 bytes
  1678 ;; Hardware stack levels used: 1
  1679 ;; Hardware stack levels required when called: 2
  1680 ;; This function calls:
  1681 ;;		_I2C_2_Master_Start
  1682 ;;		_I2C_2_Master_Stop
  1683 ;;		_I2C_2_Master_Write
  1684 ;; This function is called by:
  1685 ;;		_color_click_init
  1686 ;; This function uses a non-reentrant model
  1687 ;;
  1688                           
  1689                           	psect	text10
  1690   00342C                     __ptext10:
  1691                           	callstack 0
  1692   00342C                     _color_writetoaddr:
  1693                           	callstack 27
  1694                           
  1695                           ;incstack = 0
  1696                           ;color_writetoaddr@address stored from wreg
  1697   00342C  6E04               	movwf	color_writetoaddr@address^0,c
  1698   00342E                     
  1699                           ;colorclick.c: 25:     I2C_2_Master_Start();
  1700   00342E  EC4E  F01A         	call	_I2C_2_Master_Start	;wreg free
  1701                           
  1702                           ;colorclick.c: 26:     I2C_2_Master_Write(0x52 | 0x00);
  1703   003432  0E52               	movlw	82
  1704   003434  EC3E  F01A         	call	_I2C_2_Master_Write
  1705                           
  1706                           ;colorclick.c: 27:     I2C_2_Master_Write(0x80 | address);
  1707   003438  5004               	movf	color_writetoaddr@address^0,w,c
  1708   00343A  0980               	iorlw	128
  1709   00343C  EC3E  F01A         	call	_I2C_2_Master_Write
  1710                           
  1711                           ;colorclick.c: 28:     I2C_2_Master_Write(value);
  1712   003440  5003               	movf	color_writetoaddr@value^0,w,c
  1713   003442  EC3E  F01A         	call	_I2C_2_Master_Write
  1714                           
  1715                           ;colorclick.c: 29:     I2C_2_Master_Stop();
  1716   003446  EC49  F01A         	call	_I2C_2_Master_Stop	;wreg free
  1717   00344A  0012               	return		;funcret
  1718   00344C                     __end_of_color_writetoaddr:
  1719                           	callstack 0
  1720                           
  1721 ;; *************** function _I2C_2_Master_Write *****************
  1722 ;; Defined at:
  1723 ;;		line 45 in file "i2c.c"
  1724 ;; Parameters:    Size  Location     Type
  1725 ;;  data_byte       1    wreg     unsigned char 
  1726 ;; Auto vars:     Size  Location     Type
  1727 ;;  data_byte       1    1[COMRAM] unsigned char 
  1728 ;; Return value:  Size  Location     Type
  1729 ;;                  1    wreg      void 
  1730 ;; Registers used:
  1731 ;;		wreg, status,2, status,0, cstack
  1732 ;; Tracked objects:
  1733 ;;		On entry : 0/0
  1734 ;;		On exit  : 0/0
  1735 ;;		Unchanged: 0/0
  1736 ;; Data sizes:     COMRAM   BANK0   BANK1   BANK2   BANK3   BANK4   BANK5   BANK6   BANK7   BANK8   BANK9  BANK10  BANK1
      +1  BANK12  BANK13
  1737 ;;      Params:         0       0       0       0       0       0       0       0       0       0       0       0       
      +0       0       0
  1738 ;;      Locals:         1       0       0       0       0       0       0       0       0       0       0       0       
      +0       0       0
  1739 ;;      Temps:          0       0       0       0       0       0       0       0       0       0       0       0       
      +0       0       0
  1740 ;;      Totals:         1       0       0       0       0       0       0       0       0       0       0       0       
      +0       0       0
  1741 ;;Total ram usage:        1 bytes
  1742 ;; Hardware stack levels used: 1
  1743 ;; Hardware stack levels required when called: 1
  1744 ;; This function calls:
  1745 ;;		_I2C_2_Master_Idle
  1746 ;; This function is called by:
  1747 ;;		_color_writetoaddr
  1748 ;;		_color_read_Red
  1749 ;;		_color_read_Green
  1750 ;;		_color_read_Blue
  1751 ;;		_color_read_Clear
  1752 ;; This function uses a non-reentrant model
  1753 ;;
  1754                           
  1755                           	psect	text11
  1756   00347C                     __ptext11:
  1757                           	callstack 0
  1758   00347C                     _I2C_2_Master_Write:
  1759                           	callstack 27
  1760                           
  1761                           ;incstack = 0
  1762                           ;I2C_2_Master_Write@data_byte stored from wreg
  1763   00347C  6E02               	movwf	I2C_2_Master_Write@data_byte^0,c
  1764   00347E                     
  1765                           ;i2c.c: 45: void I2C_2_Master_Write(unsigned char data_byte);i2c.c: 46: {;i2c.c: 47:   I
      +                          2C_2_Master_Idle();
  1766   00347E  ECF1  F019         	call	_I2C_2_Master_Idle	;wreg free
  1767   003482                     
  1768                           ;i2c.c: 48:   SSP2BUF = data_byte;
  1769   003482  C002  FED5         	movff	I2C_2_Master_Write@data_byte,3797	;volatile
  1770   003486  0012               	return		;funcret
  1771   003488                     __end_of_I2C_2_Master_Write:
  1772                           	callstack 0
  1773                           
  1774 ;; *************** function _I2C_2_Master_Stop *****************
  1775 ;; Defined at:
  1776 ;;		line 39 in file "i2c.c"
  1777 ;; Parameters:    Size  Location     Type
  1778 ;;		None
  1779 ;; Auto vars:     Size  Location     Type
  1780 ;;		None
  1781 ;; Return value:  Size  Location     Type
  1782 ;;                  1    wreg      void 
  1783 ;; Registers used:
  1784 ;;		wreg, status,2, status,0, cstack
  1785 ;; Tracked objects:
  1786 ;;		On entry : 0/0
  1787 ;;		On exit  : 0/0
  1788 ;;		Unchanged: 0/0
  1789 ;; Data sizes:     COMRAM   BANK0   BANK1   BANK2   BANK3   BANK4   BANK5   BANK6   BANK7   BANK8   BANK9  BANK10  BANK1
      +1  BANK12  BANK13
  1790 ;;      Params:         0       0       0       0       0       0       0       0       0       0       0       0       
      +0       0       0
  1791 ;;      Locals:         0       0       0       0       0       0       0       0       0       0       0       0       
      +0       0       0
  1792 ;;      Temps:          0       0       0       0       0       0       0       0       0       0       0       0       
      +0       0       0
  1793 ;;      Totals:         0       0       0       0       0       0       0       0       0       0       0       0       
      +0       0       0
  1794 ;;Total ram usage:        0 bytes
  1795 ;; Hardware stack levels used: 1
  1796 ;; Hardware stack levels required when called: 1
  1797 ;; This function calls:
  1798 ;;		_I2C_2_Master_Idle
  1799 ;; This function is called by:
  1800 ;;		_color_writetoaddr
  1801 ;;		_color_read_Red
  1802 ;;		_color_read_Green
  1803 ;;		_color_read_Blue
  1804 ;;		_color_read_Clear
  1805 ;; This function uses a non-reentrant model
  1806 ;;
  1807                           
  1808                           	psect	text12
  1809   003492                     __ptext12:
  1810                           	callstack 0
  1811   003492                     _I2C_2_Master_Stop:
  1812                           	callstack 27
  1813   003492                     
  1814                           ;i2c.c: 41:   I2C_2_Master_Idle();
  1815   003492  ECF1  F019         	call	_I2C_2_Master_Idle	;wreg free
  1816   003496                     
  1817                           ;i2c.c: 42:   SSP2CON2bits.PEN = 1;
  1818   003496  010E               	movlb	14	; () banked
  1819   003498  85DA               	bsf	218,2,b	;volatile
  1820   00349A                     
  1821                           ; BSR set to: 14
  1822   00349A  0012               	return		;funcret
  1823   00349C                     __end_of_I2C_2_Master_Stop:
  1824                           	callstack 0
  1825                           
  1826 ;; *************** function _I2C_2_Master_Start *****************
  1827 ;; Defined at:
  1828 ;;		line 27 in file "i2c.c"
  1829 ;; Parameters:    Size  Location     Type
  1830 ;;		None
  1831 ;; Auto vars:     Size  Location     Type
  1832 ;;		None
  1833 ;; Return value:  Size  Location     Type
  1834 ;;                  1    wreg      void 
  1835 ;; Registers used:
  1836 ;;		wreg, status,2, status,0, cstack
  1837 ;; Tracked objects:
  1838 ;;		On entry : 0/0
  1839 ;;		On exit  : 0/0
  1840 ;;		Unchanged: 0/0
  1841 ;; Data sizes:     COMRAM   BANK0   BANK1   BANK2   BANK3   BANK4   BANK5   BANK6   BANK7   BANK8   BANK9  BANK10  BANK1
      +1  BANK12  BANK13
  1842 ;;      Params:         0       0       0       0       0       0       0       0       0       0       0       0       
      +0       0       0
  1843 ;;      Locals:         0       0       0       0       0       0       0       0       0       0       0       0       
      +0       0       0
  1844 ;;      Temps:          0       0       0       0       0       0       0       0       0       0       0       0       
      +0       0       0
  1845 ;;      Totals:         0       0       0       0       0       0       0       0       0       0       0       0       
      +0       0       0
  1846 ;;Total ram usage:        0 bytes
  1847 ;; Hardware stack levels used: 1
  1848 ;; Hardware stack levels required when called: 1
  1849 ;; This function calls:
  1850 ;;		_I2C_2_Master_Idle
  1851 ;; This function is called by:
  1852 ;;		_color_writetoaddr
  1853 ;;		_color_read_Red
  1854 ;;		_color_read_Green
  1855 ;;		_color_read_Blue
  1856 ;;		_color_read_Clear
  1857 ;; This function uses a non-reentrant model
  1858 ;;
  1859                           
  1860                           	psect	text13
  1861   00349C                     __ptext13:
  1862                           	callstack 0
  1863   00349C                     _I2C_2_Master_Start:
  1864                           	callstack 27
  1865   00349C                     
  1866                           ;i2c.c: 29:   I2C_2_Master_Idle();
  1867   00349C  ECF1  F019         	call	_I2C_2_Master_Idle	;wreg free
  1868   0034A0                     
  1869                           ;i2c.c: 30:   SSP2CON2bits.SEN = 1;
  1870   0034A0  010E               	movlb	14	; () banked
  1871   0034A2  81DA               	bsf	218,0,b	;volatile
  1872   0034A4                     
  1873                           ; BSR set to: 14
  1874   0034A4  0012               	return		;funcret
  1875   0034A6                     __end_of_I2C_2_Master_Start:
  1876                           	callstack 0
  1877                           
  1878 ;; *************** function _I2C_2_Master_Idle *****************
  1879 ;; Defined at:
  1880 ;;		line 22 in file "i2c.c"
  1881 ;; Parameters:    Size  Location     Type
  1882 ;;		None
  1883 ;; Auto vars:     Size  Location     Type
  1884 ;;		None
  1885 ;; Return value:  Size  Location     Type
  1886 ;;                  1    wreg      void 
  1887 ;; Registers used:
  1888 ;;		wreg, status,2, status,0
  1889 ;; Tracked objects:
  1890 ;;		On entry : 0/0
  1891 ;;		On exit  : 0/0
  1892 ;;		Unchanged: 0/0
  1893 ;; Data sizes:     COMRAM   BANK0   BANK1   BANK2   BANK3   BANK4   BANK5   BANK6   BANK7   BANK8   BANK9  BANK10  BANK1
      +1  BANK12  BANK13
  1894 ;;      Params:         0       0       0       0       0       0       0       0       0       0       0       0       
      +0       0       0
  1895 ;;      Locals:         0       0       0       0       0       0       0       0       0       0       0       0       
      +0       0       0
  1896 ;;      Temps:          1       0       0       0       0       0       0       0       0       0       0       0       
      +0       0       0
  1897 ;;      Totals:         1       0       0       0       0       0       0       0       0       0       0       0       
      +0       0       0
  1898 ;;Total ram usage:        1 bytes
  1899 ;; Hardware stack levels used: 1
  1900 ;; This function calls:
  1901 ;;		Nothing
  1902 ;; This function is called by:
  1903 ;;		_I2C_2_Master_Start
  1904 ;;		_I2C_2_Master_RepStart
  1905 ;;		_I2C_2_Master_Stop
  1906 ;;		_I2C_2_Master_Write
  1907 ;;		_I2C_2_Master_Read
  1908 ;; This function uses a non-reentrant model
  1909 ;;
  1910                           
  1911                           	psect	text14
  1912   0033E2                     __ptext14:
  1913                           	callstack 0
  1914   0033E2                     _I2C_2_Master_Idle:
  1915                           	callstack 27
  1916   0033E2                     l110:
  1917   0033E2  010E               	movlb	14	; () banked
  1918   0033E4  B5D8               	btfsc	216,2,b	;volatile
  1919   0033E6  EFF7  F019         	goto	u1821
  1920   0033EA  EFF9  F019         	goto	u1820
  1921   0033EE                     u1821:
  1922   0033EE  EFF1  F019         	goto	l110
  1923   0033F2                     u1820:
  1924   0033F2                     
  1925                           ; BSR set to: 14
  1926   0033F2  CEDA F001          	movff	3802,??_I2C_2_Master_Idle	;volatile
  1927   0033F6  0E1F               	movlw	31
  1928   0033F8  1601               	andwf	??_I2C_2_Master_Idle^0,f,c
  1929   0033FA  A4D8               	btfss	status,2,c
  1930   0033FC  EF02  F01A         	goto	u1831
  1931   003400  EF04  F01A         	goto	u1830
  1932   003404                     u1831:
  1933   003404  EFF1  F019         	goto	l110
  1934   003408                     u1830:
  1935   003408                     
  1936                           ; BSR set to: 14
  1937   003408  0012               	return		;funcret
  1938   00340A                     __end_of_I2C_2_Master_Idle:
  1939                           	callstack 0
  1940                           
  1941 ;; *************** function _I2C_2_Master_Init *****************
  1942 ;; Defined at:
  1943 ;;		line 4 in file "i2c.c"
  1944 ;; Parameters:    Size  Location     Type
  1945 ;;		None
  1946 ;; Auto vars:     Size  Location     Type
  1947 ;;		None
  1948 ;; Return value:  Size  Location     Type
  1949 ;;                  1    wreg      void 
  1950 ;; Registers used:
  1951 ;;		wreg, status,2
  1952 ;; Tracked objects:
  1953 ;;		On entry : 0/0
  1954 ;;		On exit  : 0/0
  1955 ;;		Unchanged: 0/0
  1956 ;; Data sizes:     COMRAM   BANK0   BANK1   BANK2   BANK3   BANK4   BANK5   BANK6   BANK7   BANK8   BANK9  BANK10  BANK1
      +1  BANK12  BANK13
  1957 ;;      Params:         0       0       0       0       0       0       0       0       0       0       0       0       
      +0       0       0
  1958 ;;      Locals:         0       0       0       0       0       0       0       0       0       0       0       0       
      +0       0       0
  1959 ;;      Temps:          0       0       0       0       0       0       0       0       0       0       0       0       
      +0       0       0
  1960 ;;      Totals:         0       0       0       0       0       0       0       0       0       0       0       0       
      +0       0       0
  1961 ;;Total ram usage:        0 bytes
  1962 ;; Hardware stack levels used: 1
  1963 ;; This function calls:
  1964 ;;		Nothing
  1965 ;; This function is called by:
  1966 ;;		_color_click_init
  1967 ;;		_main
  1968 ;; This function uses a non-reentrant model
  1969 ;;
  1970                           
  1971                           	psect	text15
  1972   0033B8                     __ptext15:
  1973                           	callstack 0
  1974   0033B8                     _I2C_2_Master_Init:
  1975                           	callstack 29
  1976   0033B8                     
  1977                           ;i2c.c: 7:   SSP2CON1bits.SSPM= 0b1000;
  1978   0033B8  010E               	movlb	14	; () banked
  1979   0033BA  51D9               	movf	217,w,b	;volatile
  1980   0033BC  0BF0               	andlw	-16
  1981   0033BE  0908               	iorlw	8
  1982   0033C0  6FD9               	movwf	217,b	;volatile
  1983   0033C2                     
  1984                           ; BSR set to: 14
  1985                           ;i2c.c: 8:   SSP2CON1bits.SSPEN = 1;
  1986   0033C2  8BD9               	bsf	217,5,b	;volatile
  1987                           
  1988                           ;i2c.c: 9:   SSP2ADD = (64000000/(4*100000))-1;
  1989   0033C4  0E9F               	movlw	159
  1990   0033C6  6FD6               	movwf	214,b	;volatile
  1991   0033C8                     
  1992                           ; BSR set to: 14
  1993                           ;i2c.c: 12:   TRISDbits.TRISD5 = 1;
  1994   0033C8  8A84               	bsf	132,5,c	;volatile
  1995   0033CA                     
  1996                           ; BSR set to: 14
  1997                           ;i2c.c: 13:   TRISDbits.TRISD6 = 1;
  1998   0033CA  8C84               	bsf	132,6,c	;volatile
  1999   0033CC                     
  2000                           ; BSR set to: 14
  2001                           ;i2c.c: 14:   ANSELDbits.ANSELD5=0;
  2002   0033CC  9BA7               	bcf	167,5,b	;volatile
  2003   0033CE                     
  2004                           ; BSR set to: 14
  2005                           ;i2c.c: 15:   ANSELDbits.ANSELD6=0;
  2006   0033CE  9DA7               	bcf	167,6,b	;volatile
  2007                           
  2008                           ;i2c.c: 16:   SSP2DATPPS=0x1D;
  2009   0033D0  0E1D               	movlw	29
  2010   0033D2  6F1D               	movwf	29,b	;volatile
  2011                           
  2012                           ;i2c.c: 17:   SSP2CLKPPS=0x1E;
  2013   0033D4  0E1E               	movlw	30
  2014   0033D6  6F1C               	movwf	28,b	;volatile
  2015                           
  2016                           ;i2c.c: 18:   RD5PPS=0x1C;
  2017   0033D8  0E1C               	movlw	28
  2018   0033DA  6F6F               	movwf	111,b	;volatile
  2019                           
  2020                           ;i2c.c: 19:   RD6PPS=0x1B;
  2021   0033DC  0E1B               	movlw	27
  2022   0033DE  6F70               	movwf	112,b	;volatile
  2023   0033E0                     
  2024                           ; BSR set to: 14
  2025   0033E0  0012               	return		;funcret
  2026   0033E2                     __end_of_I2C_2_Master_Init:
  2027                           	callstack 0
  2028                           
  2029 ;; *************** function _RGB2Hue *****************
  2030 ;; Defined at:
  2031 ;;		line 20 in file "colorfunctions.c"
  2032 ;; Parameters:    Size  Location     Type
  2033 ;;  cf              2   86[COMRAM] PTR struct RGBC_rel
  2034 ;;		 -> colorf(20), 
  2035 ;; Auto vars:     Size  Location     Type
  2036 ;;  min             2   19[BANK0 ] int 
  2037 ;;  max             2   17[BANK0 ] int 
  2038 ;; Return value:  Size  Location     Type
  2039 ;;                  1    wreg      void 
  2040 ;; Registers used:
  2041 ;;		wreg, fsr2l, fsr2h, status,2, status,0, prodl, prodh, cstack
  2042 ;; Tracked objects:
  2043 ;;		On entry : 0/0
  2044 ;;		On exit  : 0/0
  2045 ;;		Unchanged: 0/0
  2046 ;; Data sizes:     COMRAM   BANK0   BANK1   BANK2   BANK3   BANK4   BANK5   BANK6   BANK7   BANK8   BANK9  BANK10  BANK1
      +1  BANK12  BANK13
  2047 ;;      Params:         2       0       0       0       0       0       0       0       0       0       0       0       
      +0       0       0
  2048 ;;      Locals:         0       8       0       0       0       0       0       0       0       0       0       0       
      +0       0       0
  2049 ;;      Temps:          4       0       0       0       0       0       0       0       0       0       0       0       
      +0       0       0
  2050 ;;      Totals:         6       8       0       0       0       0       0       0       0       0       0       0       
      +0       0       0
  2051 ;;Total ram usage:       14 bytes
  2052 ;; Hardware stack levels used: 1
  2053 ;; Hardware stack levels required when called: 2
  2054 ;; This function calls:
  2055 ;;		___fladd
  2056 ;;		___fldiv
  2057 ;;		___fleq
  2058 ;;		___flge
  2059 ;;		___flmul
  2060 ;;		___flsub
  2061 ;;		___fltol
  2062 ;;		___xxtofl
  2063 ;; This function is called by:
  2064 ;;		_main
  2065 ;; This function uses a non-reentrant model
  2066 ;;
  2067                           
  2068                           	psect	text16
  2069   000E52                     __ptext16:
  2070                           	callstack 0
  2071   000E52                     _RGB2Hue:
  2072                           	callstack 28
  2073   000E52                     
  2074                           ;colorfunctions.c: 21:     if ((cf->Rf == cf->Gf)&&(cf->Rf == cf->Bf)){
  2075   000E52  C057  FFD9         	movff	RGB2Hue@cf,fsr2l
  2076   000E56  C058  FFDA         	movff	RGB2Hue@cf+1,fsr2h
  2077   000E5A  CFDE F001          	movff	postinc2,___fleq@ff1
  2078   000E5E  CFDE F002          	movff	postinc2,___fleq@ff1+1
  2079   000E62  CFDE F003          	movff	postinc2,___fleq@ff1+2
  2080   000E66  CFDE F004          	movff	postinc2,___fleq@ff1+3
  2081   000E6A  EE20 F004          	lfsr	2,4
  2082   000E6E  5057               	movf	RGB2Hue@cf^0,w,c
  2083   000E70  26D9               	addwf	fsr2l,f,c
  2084   000E72  5058               	movf	(RGB2Hue@cf+1)^0,w,c
  2085   000E74  22DA               	addwfc	fsr2h,f,c
  2086   000E76  CFDE F005          	movff	postinc2,___fleq@ff2
  2087   000E7A  CFDE F006          	movff	postinc2,___fleq@ff2+1
  2088   000E7E  CFDE F007          	movff	postinc2,___fleq@ff2+2
  2089   000E82  CFDE F008          	movff	postinc2,___fleq@ff2+3
  2090   000E86  EC7F  F017         	call	___fleq	;wreg free
  2091   000E8A  A0D8               	btfss	status,0,c
  2092   000E8C  EF4A  F007         	goto	u3151
  2093   000E90  EF4C  F007         	goto	u3150
  2094   000E94                     u3151:
  2095   000E94  EF7F  F007         	goto	l2898
  2096   000E98                     u3150:
  2097   000E98  C057  FFD9         	movff	RGB2Hue@cf,fsr2l
  2098   000E9C  C058  FFDA         	movff	RGB2Hue@cf+1,fsr2h
  2099   000EA0  CFDE F001          	movff	postinc2,___fleq@ff1
  2100   000EA4  CFDE F002          	movff	postinc2,___fleq@ff1+1
  2101   000EA8  CFDE F003          	movff	postinc2,___fleq@ff1+2
  2102   000EAC  CFDE F004          	movff	postinc2,___fleq@ff1+3
  2103   000EB0  EE20 F008          	lfsr	2,8
  2104   000EB4  5057               	movf	RGB2Hue@cf^0,w,c
  2105   000EB6  26D9               	addwf	fsr2l,f,c
  2106   000EB8  5058               	movf	(RGB2Hue@cf+1)^0,w,c
  2107   000EBA  22DA               	addwfc	fsr2h,f,c
  2108   000EBC  CFDE F005          	movff	postinc2,___fleq@ff2
  2109   000EC0  CFDE F006          	movff	postinc2,___fleq@ff2+1
  2110   000EC4  CFDE F007          	movff	postinc2,___fleq@ff2+2
  2111   000EC8  CFDE F008          	movff	postinc2,___fleq@ff2+3
  2112   000ECC  EC7F  F017         	call	___fleq	;wreg free
  2113   000ED0  A0D8               	btfss	status,0,c
  2114   000ED2  EF6D  F007         	goto	u3161
  2115   000ED6  EF6F  F007         	goto	u3160
  2116   000EDA                     u3161:
  2117   000EDA  EF7F  F007         	goto	l2898
  2118   000EDE                     u3160:
  2119   000EDE                     
  2120                           ;colorfunctions.c: 22:         cf->h=0;
  2121   000EDE  EE20 F010          	lfsr	2,16
  2122   000EE2  5057               	movf	RGB2Hue@cf^0,w,c
  2123   000EE4  26D9               	addwf	fsr2l,f,c
  2124   000EE6  5058               	movf	(RGB2Hue@cf+1)^0,w,c
  2125   000EE8  22DA               	addwfc	fsr2h,f,c
  2126   000EEA  0E00               	movlw	0
  2127   000EEC  6EDE               	movwf	postinc2,c
  2128   000EEE  0E00               	movlw	0
  2129   000EF0  6EDE               	movwf	postinc2,c
  2130   000EF2  0E00               	movlw	0
  2131   000EF4  6EDE               	movwf	postinc2,c
  2132   000EF6  0E00               	movlw	0
  2133   000EF8  6EDD               	movwf	postdec2,c
  2134                           
  2135                           ;colorfunctions.c: 23:     } else{
  2136   000EFA  EFA9  F00A         	goto	l63
  2137   000EFE                     l2898:
  2138                           
  2139                           ;colorfunctions.c: 25:         signed int min=0;
  2140   000EFE  0E00               	movlw	0
  2141   000F00  0100               	movlb	0	; () banked
  2142   000F02  6F74               	movwf	(RGB2Hue@min+1)& (0+255),b
  2143   000F04  0E00               	movlw	0
  2144   000F06  6F73               	movwf	RGB2Hue@min& (0+255),b
  2145   000F08                     
  2146                           ; BSR set to: 0
  2147                           ;colorfunctions.c: 27:         if ((cf->Rf < cf->Gf)&(cf->Rf < cf->Bf)){
  2148   000F08  C057  FFD9         	movff	RGB2Hue@cf,fsr2l
  2149   000F0C  C058  FFDA         	movff	RGB2Hue@cf+1,fsr2h
  2150   000F10  CFDE F001          	movff	postinc2,___flge@ff1
  2151   000F14  CFDE F002          	movff	postinc2,___flge@ff1+1
  2152   000F18  CFDE F003          	movff	postinc2,___flge@ff1+2
  2153   000F1C  CFDE F004          	movff	postinc2,___flge@ff1+3
  2154   000F20  EE20 F004          	lfsr	2,4
  2155   000F24  5057               	movf	RGB2Hue@cf^0,w,c
  2156   000F26  26D9               	addwf	fsr2l,f,c
  2157   000F28  5058               	movf	(RGB2Hue@cf+1)^0,w,c
  2158   000F2A  22DA               	addwfc	fsr2h,f,c
  2159   000F2C  CFDE F005          	movff	postinc2,___flge@ff2
  2160   000F30  CFDE F006          	movff	postinc2,___flge@ff2+1
  2161   000F34  CFDE F007          	movff	postinc2,___flge@ff2+2
  2162   000F38  CFDE F008          	movff	postinc2,___flge@ff2+3
  2163   000F3C  ECBC  F015         	call	___flge	;wreg free
  2164   000F40  B0D8               	btfsc	status,0,c
  2165   000F42  EFA5  F007         	goto	u3171
  2166   000F46  EFA7  F007         	goto	u3170
  2167   000F4A                     u3171:
  2168   000F4A  EFDE  F007         	goto	l2906
  2169   000F4E                     u3170:
  2170   000F4E  C057  FFD9         	movff	RGB2Hue@cf,fsr2l
  2171   000F52  C058  FFDA         	movff	RGB2Hue@cf+1,fsr2h
  2172   000F56  CFDE F001          	movff	postinc2,___flge@ff1
  2173   000F5A  CFDE F002          	movff	postinc2,___flge@ff1+1
  2174   000F5E  CFDE F003          	movff	postinc2,___flge@ff1+2
  2175   000F62  CFDE F004          	movff	postinc2,___flge@ff1+3
  2176   000F66  EE20 F008          	lfsr	2,8
  2177   000F6A  5057               	movf	RGB2Hue@cf^0,w,c
  2178   000F6C  26D9               	addwf	fsr2l,f,c
  2179   000F6E  5058               	movf	(RGB2Hue@cf+1)^0,w,c
  2180   000F70  22DA               	addwfc	fsr2h,f,c
  2181   000F72  CFDE F005          	movff	postinc2,___flge@ff2
  2182   000F76  CFDE F006          	movff	postinc2,___flge@ff2+1
  2183   000F7A  CFDE F007          	movff	postinc2,___flge@ff2+2
  2184   000F7E  CFDE F008          	movff	postinc2,___flge@ff2+3
  2185   000F82  ECBC  F015         	call	___flge	;wreg free
  2186   000F86  B0D8               	btfsc	status,0,c
  2187   000F88  EFC8  F007         	goto	u3181
  2188   000F8C  EFCA  F007         	goto	u3180
  2189   000F90                     u3181:
  2190   000F90  EFDE  F007         	goto	l2906
  2191   000F94                     u3180:
  2192   000F94                     
  2193                           ;colorfunctions.c: 28:             min=cf->Rf;
  2194   000F94  C057  FFD9         	movff	RGB2Hue@cf,fsr2l
  2195   000F98  C058  FFDA         	movff	RGB2Hue@cf+1,fsr2h
  2196   000F9C  CFDE F001          	movff	postinc2,___fltol@f1
  2197   000FA0  CFDE F002          	movff	postinc2,___fltol@f1+1
  2198   000FA4  CFDE F003          	movff	postinc2,___fltol@f1+2
  2199   000FA8  CFDE F004          	movff	postinc2,___fltol@f1+3
  2200   000FAC  EC39  F015         	call	___fltol	;wreg free
  2201   000FB0  C001  F073         	movff	?___fltol,RGB2Hue@min
  2202   000FB4  C002  F074         	movff	?___fltol+1,RGB2Hue@min+1
  2203                           
  2204                           ;colorfunctions.c: 29:         } else if((cf->Gf < cf->Rf)&(cf->Gf < cf->Bf)){
  2205   000FB8  EF50  F008         	goto	l55
  2206   000FBC                     l2906:
  2207   000FBC  EE20 F004          	lfsr	2,4
  2208   000FC0  5057               	movf	RGB2Hue@cf^0,w,c
  2209   000FC2  26D9               	addwf	fsr2l,f,c
  2210   000FC4  5058               	movf	(RGB2Hue@cf+1)^0,w,c
  2211   000FC6  22DA               	addwfc	fsr2h,f,c
  2212   000FC8  CFDE F001          	movff	postinc2,___flge@ff1
  2213   000FCC  CFDE F002          	movff	postinc2,___flge@ff1+1
  2214   000FD0  CFDE F003          	movff	postinc2,___flge@ff1+2
  2215   000FD4  CFDE F004          	movff	postinc2,___flge@ff1+3
  2216   000FD8  C057  FFD9         	movff	RGB2Hue@cf,fsr2l
  2217   000FDC  C058  FFDA         	movff	RGB2Hue@cf+1,fsr2h
  2218   000FE0  CFDE F005          	movff	postinc2,___flge@ff2
  2219   000FE4  CFDE F006          	movff	postinc2,___flge@ff2+1
  2220   000FE8  CFDE F007          	movff	postinc2,___flge@ff2+2
  2221   000FEC  CFDE F008          	movff	postinc2,___flge@ff2+3
  2222   000FF0  ECBC  F015         	call	___flge	;wreg free
  2223   000FF4  B0D8               	btfsc	status,0,c
  2224   000FF6  EFFF  F007         	goto	u3191
  2225   000FFA  EF01  F008         	goto	u3190
  2226   000FFE                     u3191:
  2227   000FFE  EF3C  F008         	goto	l2912
  2228   001002                     u3190:
  2229   001002  EE20 F004          	lfsr	2,4
  2230   001006  5057               	movf	RGB2Hue@cf^0,w,c
  2231   001008  26D9               	addwf	fsr2l,f,c
  2232   00100A  5058               	movf	(RGB2Hue@cf+1)^0,w,c
  2233   00100C  22DA               	addwfc	fsr2h,f,c
  2234   00100E  CFDE F001          	movff	postinc2,___flge@ff1
  2235   001012  CFDE F002          	movff	postinc2,___flge@ff1+1
  2236   001016  CFDE F003          	movff	postinc2,___flge@ff1+2
  2237   00101A  CFDE F004          	movff	postinc2,___flge@ff1+3
  2238   00101E  EE20 F008          	lfsr	2,8
  2239   001022  5057               	movf	RGB2Hue@cf^0,w,c
  2240   001024  26D9               	addwf	fsr2l,f,c
  2241   001026  5058               	movf	(RGB2Hue@cf+1)^0,w,c
  2242   001028  22DA               	addwfc	fsr2h,f,c
  2243   00102A  CFDE F005          	movff	postinc2,___flge@ff2
  2244   00102E  CFDE F006          	movff	postinc2,___flge@ff2+1
  2245   001032  CFDE F007          	movff	postinc2,___flge@ff2+2
  2246   001036  CFDE F008          	movff	postinc2,___flge@ff2+3
  2247   00103A  ECBC  F015         	call	___flge	;wreg free
  2248   00103E  B0D8               	btfsc	status,0,c
  2249   001040  EF24  F008         	goto	u3201
  2250   001044  EF26  F008         	goto	u3200
  2251   001048                     u3201:
  2252   001048  EF3C  F008         	goto	l2912
  2253   00104C                     u3200:
  2254   00104C                     
  2255                           ;colorfunctions.c: 30:             min=cf->Gf;
  2256   00104C  EE20 F004          	lfsr	2,4
  2257   001050  5057               	movf	RGB2Hue@cf^0,w,c
  2258   001052  26D9               	addwf	fsr2l,f,c
  2259   001054  5058               	movf	(RGB2Hue@cf+1)^0,w,c
  2260   001056  22DA               	addwfc	fsr2h,f,c
  2261   001058  CFDE F001          	movff	postinc2,___fltol@f1
  2262   00105C  CFDE F002          	movff	postinc2,___fltol@f1+1
  2263   001060  CFDE F003          	movff	postinc2,___fltol@f1+2
  2264   001064  CFDE F004          	movff	postinc2,___fltol@f1+3
  2265   001068  EC39  F015         	call	___fltol	;wreg free
  2266   00106C  C001  F073         	movff	?___fltol,RGB2Hue@min
  2267   001070  C002  F074         	movff	?___fltol+1,RGB2Hue@min+1
  2268                           
  2269                           ;colorfunctions.c: 31:         } else{
  2270   001074  EF50  F008         	goto	l55
  2271   001078                     l2912:
  2272                           
  2273                           ;colorfunctions.c: 32:             min=cf->Bf;
  2274   001078  EE20 F008          	lfsr	2,8
  2275   00107C  5057               	movf	RGB2Hue@cf^0,w,c
  2276   00107E  26D9               	addwf	fsr2l,f,c
  2277   001080  5058               	movf	(RGB2Hue@cf+1)^0,w,c
  2278   001082  22DA               	addwfc	fsr2h,f,c
  2279   001084  CFDE F001          	movff	postinc2,___fltol@f1
  2280   001088  CFDE F002          	movff	postinc2,___fltol@f1+1
  2281   00108C  CFDE F003          	movff	postinc2,___fltol@f1+2
  2282   001090  CFDE F004          	movff	postinc2,___fltol@f1+3
  2283   001094  EC39  F015         	call	___fltol	;wreg free
  2284   001098  C001  F073         	movff	?___fltol,RGB2Hue@min
  2285   00109C  C002  F074         	movff	?___fltol+1,RGB2Hue@min+1
  2286   0010A0                     l55:
  2287                           
  2288                           ;colorfunctions.c: 35:         if ((cf->Rf > cf->Gf)&(cf->Rf > cf->Bf)){
  2289   0010A0  EE20 F004          	lfsr	2,4
  2290   0010A4  5057               	movf	RGB2Hue@cf^0,w,c
  2291   0010A6  26D9               	addwf	fsr2l,f,c
  2292   0010A8  5058               	movf	(RGB2Hue@cf+1)^0,w,c
  2293   0010AA  22DA               	addwfc	fsr2h,f,c
  2294   0010AC  CFDE F001          	movff	postinc2,___flge@ff1
  2295   0010B0  CFDE F002          	movff	postinc2,___flge@ff1+1
  2296   0010B4  CFDE F003          	movff	postinc2,___flge@ff1+2
  2297   0010B8  CFDE F004          	movff	postinc2,___flge@ff1+3
  2298   0010BC  C057  FFD9         	movff	RGB2Hue@cf,fsr2l
  2299   0010C0  C058  FFDA         	movff	RGB2Hue@cf+1,fsr2h
  2300   0010C4  CFDE F005          	movff	postinc2,___flge@ff2
  2301   0010C8  CFDE F006          	movff	postinc2,___flge@ff2+1
  2302   0010CC  CFDE F007          	movff	postinc2,___flge@ff2+2
  2303   0010D0  CFDE F008          	movff	postinc2,___flge@ff2+3
  2304   0010D4  ECBC  F015         	call	___flge	;wreg free
  2305   0010D8  B0D8               	btfsc	status,0,c
  2306   0010DA  EF71  F008         	goto	u3211
  2307   0010DE  EF73  F008         	goto	u3210
  2308   0010E2                     u3211:
  2309   0010E2  EF0D  F009         	goto	l2920
  2310   0010E6                     u3210:
  2311   0010E6  EE20 F008          	lfsr	2,8
  2312   0010EA  5057               	movf	RGB2Hue@cf^0,w,c
  2313   0010EC  26D9               	addwf	fsr2l,f,c
  2314   0010EE  5058               	movf	(RGB2Hue@cf+1)^0,w,c
  2315   0010F0  22DA               	addwfc	fsr2h,f,c
  2316   0010F2  CFDE F001          	movff	postinc2,___flge@ff1
  2317   0010F6  CFDE F002          	movff	postinc2,___flge@ff1+1
  2318   0010FA  CFDE F003          	movff	postinc2,___flge@ff1+2
  2319   0010FE  CFDE F004          	movff	postinc2,___flge@ff1+3
  2320   001102  C057  FFD9         	movff	RGB2Hue@cf,fsr2l
  2321   001106  C058  FFDA         	movff	RGB2Hue@cf+1,fsr2h
  2322   00110A  CFDE F005          	movff	postinc2,___flge@ff2
  2323   00110E  CFDE F006          	movff	postinc2,___flge@ff2+1
  2324   001112  CFDE F007          	movff	postinc2,___flge@ff2+2
  2325   001116  CFDE F008          	movff	postinc2,___flge@ff2+3
  2326   00111A  ECBC  F015         	call	___flge	;wreg free
  2327   00111E  B0D8               	btfsc	status,0,c
  2328   001120  EF94  F008         	goto	u3221
  2329   001124  EF96  F008         	goto	u3220
  2330   001128                     u3221:
  2331   001128  EF0D  F009         	goto	l2920
  2332   00112C                     u3220:
  2333   00112C                     
  2334                           ;colorfunctions.c: 36:             max=(cf->Rf);
  2335   00112C  C057  FFD9         	movff	RGB2Hue@cf,fsr2l
  2336   001130  C058  FFDA         	movff	RGB2Hue@cf+1,fsr2h
  2337   001134  CFDE F001          	movff	postinc2,___fltol@f1
  2338   001138  CFDE F002          	movff	postinc2,___fltol@f1+1
  2339   00113C  CFDE F003          	movff	postinc2,___fltol@f1+2
  2340   001140  CFDE F004          	movff	postinc2,___fltol@f1+3
  2341   001144  EC39  F015         	call	___fltol	;wreg free
  2342   001148  C001  F071         	movff	?___fltol,RGB2Hue@max
  2343   00114C  C002  F072         	movff	?___fltol+1,RGB2Hue@max+1
  2344   001150                     
  2345                           ;colorfunctions.c: 39:             (cf->h)=60*(((cf->Gf)-(cf->Bf))/(max-min));
  2346   001150  0100               	movlb	0	; () banked
  2347   001152  5173               	movf	RGB2Hue@min& (0+255),w,b
  2348   001154  5D71               	subwf	RGB2Hue@max& (0+255),w,b
  2349   001156  6E59               	movwf	??_RGB2Hue^0,c
  2350   001158  5174               	movf	(RGB2Hue@min+1)& (0+255),w,b
  2351   00115A  5972               	subwfb	(RGB2Hue@max+1)& (0+255),w,b
  2352   00115C  6E5A               	movwf	(??_RGB2Hue+1)^0,c
  2353   00115E  C059  F00C         	movff	??_RGB2Hue,___xxtofl@val
  2354   001162  C05A  F00D         	movff	??_RGB2Hue+1,___xxtofl@val+1
  2355   001166  0E00               	movlw	0
  2356   001168  BE0D               	btfsc	(___xxtofl@val+1)^0,7,c
  2357   00116A  0EFF               	movlw	-1
  2358   00116C  6E0E               	movwf	(___xxtofl@val+2)^0,c
  2359   00116E  6E0F               	movwf	(___xxtofl@val+3)^0,c
  2360   001170  0E01               	movlw	1
  2361   001172  EC14  F013         	call	___xxtofl
  2362   001176  C00C  F036         	movff	?___xxtofl,___fldiv@a
  2363   00117A  C00D  F037         	movff	?___xxtofl+1,___fldiv@a+1
  2364   00117E  C00E  F038         	movff	?___xxtofl+2,___fldiv@a+2
  2365   001182  C00F  F039         	movff	?___xxtofl+3,___fldiv@a+3
  2366   001186  EE20 F008          	lfsr	2,8
  2367   00118A  5057               	movf	RGB2Hue@cf^0,w,c
  2368   00118C  26D9               	addwf	fsr2l,f,c
  2369   00118E  5058               	movf	(RGB2Hue@cf+1)^0,w,c
  2370   001190  22DA               	addwfc	fsr2h,f,c
  2371   001192  CFDE F02E          	movff	postinc2,___flsub@a
  2372   001196  CFDE F02F          	movff	postinc2,___flsub@a+1
  2373   00119A  CFDE F030          	movff	postinc2,___flsub@a+2
  2374   00119E  CFDE F031          	movff	postinc2,___flsub@a+3
  2375   0011A2  EE20 F004          	lfsr	2,4
  2376   0011A6  5057               	movf	RGB2Hue@cf^0,w,c
  2377   0011A8  26D9               	addwf	fsr2l,f,c
  2378   0011AA  5058               	movf	(RGB2Hue@cf+1)^0,w,c
  2379   0011AC  22DA               	addwfc	fsr2h,f,c
  2380   0011AE  CFDE F02A          	movff	postinc2,___flsub@b
  2381   0011B2  CFDE F02B          	movff	postinc2,___flsub@b+1
  2382   0011B6  CFDE F02C          	movff	postinc2,___flsub@b+2
  2383   0011BA  CFDE F02D          	movff	postinc2,___flsub@b+3
  2384   0011BE  EC1C  F019         	call	___flsub	;wreg free
  2385   0011C2  C02A  F032         	movff	?___flsub,___fldiv@b
  2386   0011C6  C02B  F033         	movff	?___flsub+1,___fldiv@b+1
  2387   0011CA  C02C  F034         	movff	?___flsub+2,___fldiv@b+2
  2388   0011CE  C02D  F035         	movff	?___flsub+3,___fldiv@b+3
  2389   0011D2  EC47  F011         	call	___fldiv	;wreg free
  2390   0011D6  C032  F04B         	movff	?___fldiv,___flmul@b
  2391   0011DA  C033  F04C         	movff	?___fldiv+1,___flmul@b+1
  2392   0011DE  C034  F04D         	movff	?___fldiv+2,___flmul@b+2
  2393   0011E2  C035  F04E         	movff	?___fldiv+3,___flmul@b+3
  2394   0011E6  0E00               	movlw	0
  2395   0011E8  6E4F               	movwf	___flmul@a^0,c
  2396   0011EA  0E00               	movlw	0
  2397   0011EC  6E50               	movwf	(___flmul@a+1)^0,c
  2398   0011EE  0E70               	movlw	112
  2399   0011F0  6E51               	movwf	(___flmul@a+2)^0,c
  2400   0011F2  0E42               	movlw	66
  2401   0011F4  6E52               	movwf	(___flmul@a+3)^0,c
  2402   0011F6  EC31  F00F         	call	___flmul	;wreg free
  2403   0011FA  EE20 F010          	lfsr	2,16
  2404   0011FE  5057               	movf	RGB2Hue@cf^0,w,c
  2405   001200  26D9               	addwf	fsr2l,f,c
  2406   001202  5058               	movf	(RGB2Hue@cf+1)^0,w,c
  2407   001204  22DA               	addwfc	fsr2h,f,c
  2408   001206  C04B  FFDE         	movff	?___flmul,postinc2
  2409   00120A  C04C  FFDE         	movff	?___flmul+1,postinc2
  2410   00120E  C04D  FFDE         	movff	?___flmul+2,postinc2
  2411   001212  C04E  FFDE         	movff	?___flmul+3,postinc2
  2412                           
  2413                           ;colorfunctions.c: 40:         } else if((cf->Gf > cf->Rf)&(cf->Gf > cf->Bf)){
  2414   001216  EF75  F00A         	goto	l2932
  2415   00121A                     l2920:
  2416   00121A  C057  FFD9         	movff	RGB2Hue@cf,fsr2l
  2417   00121E  C058  FFDA         	movff	RGB2Hue@cf+1,fsr2h
  2418   001222  CFDE F001          	movff	postinc2,___flge@ff1
  2419   001226  CFDE F002          	movff	postinc2,___flge@ff1+1
  2420   00122A  CFDE F003          	movff	postinc2,___flge@ff1+2
  2421   00122E  CFDE F004          	movff	postinc2,___flge@ff1+3
  2422   001232  EE20 F004          	lfsr	2,4
  2423   001236  5057               	movf	RGB2Hue@cf^0,w,c
  2424   001238  26D9               	addwf	fsr2l,f,c
  2425   00123A  5058               	movf	(RGB2Hue@cf+1)^0,w,c
  2426   00123C  22DA               	addwfc	fsr2h,f,c
  2427   00123E  CFDE F005          	movff	postinc2,___flge@ff2
  2428   001242  CFDE F006          	movff	postinc2,___flge@ff2+1
  2429   001246  CFDE F007          	movff	postinc2,___flge@ff2+2
  2430   00124A  CFDE F008          	movff	postinc2,___flge@ff2+3
  2431   00124E  ECBC  F015         	call	___flge	;wreg free
  2432   001252  B0D8               	btfsc	status,0,c
  2433   001254  EF2E  F009         	goto	u3231
  2434   001258  EF30  F009         	goto	u3230
  2435   00125C                     u3231:
  2436   00125C  EFE6  F009         	goto	l2928
  2437   001260                     u3230:
  2438   001260  EE20 F008          	lfsr	2,8
  2439   001264  5057               	movf	RGB2Hue@cf^0,w,c
  2440   001266  26D9               	addwf	fsr2l,f,c
  2441   001268  5058               	movf	(RGB2Hue@cf+1)^0,w,c
  2442   00126A  22DA               	addwfc	fsr2h,f,c
  2443   00126C  CFDE F001          	movff	postinc2,___flge@ff1
  2444   001270  CFDE F002          	movff	postinc2,___flge@ff1+1
  2445   001274  CFDE F003          	movff	postinc2,___flge@ff1+2
  2446   001278  CFDE F004          	movff	postinc2,___flge@ff1+3
  2447   00127C  EE20 F004          	lfsr	2,4
  2448   001280  5057               	movf	RGB2Hue@cf^0,w,c
  2449   001282  26D9               	addwf	fsr2l,f,c
  2450   001284  5058               	movf	(RGB2Hue@cf+1)^0,w,c
  2451   001286  22DA               	addwfc	fsr2h,f,c
  2452   001288  CFDE F005          	movff	postinc2,___flge@ff2
  2453   00128C  CFDE F006          	movff	postinc2,___flge@ff2+1
  2454   001290  CFDE F007          	movff	postinc2,___flge@ff2+2
  2455   001294  CFDE F008          	movff	postinc2,___flge@ff2+3
  2456   001298  ECBC  F015         	call	___flge	;wreg free
  2457   00129C  B0D8               	btfsc	status,0,c
  2458   00129E  EF53  F009         	goto	u3241
  2459   0012A2  EF55  F009         	goto	u3240
  2460   0012A6                     u3241:
  2461   0012A6  EFE6  F009         	goto	l2928
  2462   0012AA                     u3240:
  2463   0012AA                     
  2464                           ;colorfunctions.c: 41:             max=cf->Gf;
  2465   0012AA  EE20 F004          	lfsr	2,4
  2466   0012AE  5057               	movf	RGB2Hue@cf^0,w,c
  2467   0012B0  26D9               	addwf	fsr2l,f,c
  2468   0012B2  5058               	movf	(RGB2Hue@cf+1)^0,w,c
  2469   0012B4  22DA               	addwfc	fsr2h,f,c
  2470   0012B6  CFDE F001          	movff	postinc2,___fltol@f1
  2471   0012BA  CFDE F002          	movff	postinc2,___fltol@f1+1
  2472   0012BE  CFDE F003          	movff	postinc2,___fltol@f1+2
  2473   0012C2  CFDE F004          	movff	postinc2,___fltol@f1+3
  2474   0012C6  EC39  F015         	call	___fltol	;wreg free
  2475   0012CA  C001  F071         	movff	?___fltol,RGB2Hue@max
  2476   0012CE  C002  F072         	movff	?___fltol+1,RGB2Hue@max+1
  2477                           
  2478                           ;colorfunctions.c: 42:             (cf->h)=60*(2+(((cf->Bf)-(cf->Rf))/(max-min)));
  2479   0012D2  0100               	movlb	0	; () banked
  2480   0012D4  5173               	movf	RGB2Hue@min& (0+255),w,b
  2481   0012D6  5D71               	subwf	RGB2Hue@max& (0+255),w,b
  2482   0012D8  6E59               	movwf	??_RGB2Hue^0,c
  2483   0012DA  5174               	movf	(RGB2Hue@min+1)& (0+255),w,b
  2484   0012DC  5972               	subwfb	(RGB2Hue@max+1)& (0+255),w,b
  2485   0012DE  6E5A               	movwf	(??_RGB2Hue+1)^0,c
  2486   0012E0  C059  F00C         	movff	??_RGB2Hue,___xxtofl@val
  2487   0012E4  C05A  F00D         	movff	??_RGB2Hue+1,___xxtofl@val+1
  2488   0012E8  0E00               	movlw	0
  2489   0012EA  BE0D               	btfsc	(___xxtofl@val+1)^0,7,c
  2490   0012EC  0EFF               	movlw	-1
  2491   0012EE  6E0E               	movwf	(___xxtofl@val+2)^0,c
  2492   0012F0  6E0F               	movwf	(___xxtofl@val+3)^0,c
  2493   0012F2  0E01               	movlw	1
  2494   0012F4  EC14  F013         	call	___xxtofl
  2495   0012F8  C00C  F036         	movff	?___xxtofl,___fldiv@a
  2496   0012FC  C00D  F037         	movff	?___xxtofl+1,___fldiv@a+1
  2497   001300  C00E  F038         	movff	?___xxtofl+2,___fldiv@a+2
  2498   001304  C00F  F039         	movff	?___xxtofl+3,___fldiv@a+3
  2499   001308  C057  FFD9         	movff	RGB2Hue@cf,fsr2l
  2500   00130C  C058  FFDA         	movff	RGB2Hue@cf+1,fsr2h
  2501   001310  CFDE F02E          	movff	postinc2,___flsub@a
  2502   001314  CFDE F02F          	movff	postinc2,___flsub@a+1
  2503   001318  CFDE F030          	movff	postinc2,___flsub@a+2
  2504   00131C  CFDE F031          	movff	postinc2,___flsub@a+3
  2505   001320  EE20 F008          	lfsr	2,8
  2506   001324  5057               	movf	RGB2Hue@cf^0,w,c
  2507   001326  26D9               	addwf	fsr2l,f,c
  2508   001328  5058               	movf	(RGB2Hue@cf+1)^0,w,c
  2509   00132A  22DA               	addwfc	fsr2h,f,c
  2510   00132C  CFDE F02A          	movff	postinc2,___flsub@b
  2511   001330  CFDE F02B          	movff	postinc2,___flsub@b+1
  2512   001334  CFDE F02C          	movff	postinc2,___flsub@b+2
  2513   001338  CFDE F02D          	movff	postinc2,___flsub@b+3
  2514   00133C  EC1C  F019         	call	___flsub	;wreg free
  2515   001340  C02A  F032         	movff	?___flsub,___fldiv@b
  2516   001344  C02B  F033         	movff	?___flsub+1,___fldiv@b+1
  2517   001348  C02C  F034         	movff	?___flsub+2,___fldiv@b+2
  2518   00134C  C02D  F035         	movff	?___flsub+3,___fldiv@b+3
  2519   001350  EC47  F011         	call	___fldiv	;wreg free
  2520   001354  C032  F06D         	movff	?___fldiv,_RGB2Hue$1609
  2521   001358  C033  F06E         	movff	?___fldiv+1,_RGB2Hue$1609+1
  2522   00135C  C034  F06F         	movff	?___fldiv+2,_RGB2Hue$1609+2
  2523   001360  C035  F070         	movff	?___fldiv+3,_RGB2Hue$1609+3
  2524   001364                     
  2525                           ;colorfunctions.c: 42:             (cf->h)=60*(2+(((cf->Bf)-(cf->Rf))/(max-min)));
  2526   001364  0E00               	movlw	0
  2527   001366  6E1E               	movwf	___fladd@a^0,c
  2528   001368  0E00               	movlw	0
  2529   00136A  6E1F               	movwf	(___fladd@a+1)^0,c
  2530   00136C  0E00               	movlw	0
  2531   00136E  6E20               	movwf	(___fladd@a+2)^0,c
  2532   001370  0E40               	movlw	64
  2533   001372  6E21               	movwf	(___fladd@a+3)^0,c
  2534   001374  C06D  F01A         	movff	_RGB2Hue$1609,___fladd@b
  2535   001378  C06E  F01B         	movff	_RGB2Hue$1609+1,___fladd@b+1
  2536   00137C  C06F  F01C         	movff	_RGB2Hue$1609+2,___fladd@b+2
  2537   001380  C070  F01D         	movff	_RGB2Hue$1609+3,___fladd@b+3
  2538   001384  ECAA  F00A         	call	___fladd	;wreg free
  2539   001388  C01A  F04B         	movff	?___fladd,___flmul@b
  2540   00138C  C01B  F04C         	movff	?___fladd+1,___flmul@b+1
  2541   001390  C01C  F04D         	movff	?___fladd+2,___flmul@b+2
  2542   001394  C01D  F04E         	movff	?___fladd+3,___flmul@b+3
  2543   001398  0E00               	movlw	0
  2544   00139A  6E4F               	movwf	___flmul@a^0,c
  2545   00139C  0E00               	movlw	0
  2546   00139E  6E50               	movwf	(___flmul@a+1)^0,c
  2547   0013A0  0E70               	movlw	112
  2548   0013A2  6E51               	movwf	(___flmul@a+2)^0,c
  2549   0013A4  0E42               	movlw	66
  2550   0013A6  6E52               	movwf	(___flmul@a+3)^0,c
  2551   0013A8  EC31  F00F         	call	___flmul	;wreg free
  2552   0013AC  EE20 F010          	lfsr	2,16
  2553   0013B0  5057               	movf	RGB2Hue@cf^0,w,c
  2554   0013B2  26D9               	addwf	fsr2l,f,c
  2555   0013B4  5058               	movf	(RGB2Hue@cf+1)^0,w,c
  2556   0013B6  22DA               	addwfc	fsr2h,f,c
  2557   0013B8  C04B  FFDE         	movff	?___flmul,postinc2
  2558   0013BC  C04C  FFDE         	movff	?___flmul+1,postinc2
  2559   0013C0  C04D  FFDE         	movff	?___flmul+2,postinc2
  2560   0013C4  C04E  FFDE         	movff	?___flmul+3,postinc2
  2561                           
  2562                           ;colorfunctions.c: 43:         }else{
  2563   0013C8  EF75  F00A         	goto	l2932
  2564   0013CC                     l2928:
  2565                           
  2566                           ;colorfunctions.c: 44:             max=cf->Bf;
  2567   0013CC  EE20 F008          	lfsr	2,8
  2568   0013D0  5057               	movf	RGB2Hue@cf^0,w,c
  2569   0013D2  26D9               	addwf	fsr2l,f,c
  2570   0013D4  5058               	movf	(RGB2Hue@cf+1)^0,w,c
  2571   0013D6  22DA               	addwfc	fsr2h,f,c
  2572   0013D8  CFDE F001          	movff	postinc2,___fltol@f1
  2573   0013DC  CFDE F002          	movff	postinc2,___fltol@f1+1
  2574   0013E0  CFDE F003          	movff	postinc2,___fltol@f1+2
  2575   0013E4  CFDE F004          	movff	postinc2,___fltol@f1+3
  2576   0013E8  EC39  F015         	call	___fltol	;wreg free
  2577   0013EC  C001  F071         	movff	?___fltol,RGB2Hue@max
  2578   0013F0  C002  F072         	movff	?___fltol+1,RGB2Hue@max+1
  2579                           
  2580                           ;colorfunctions.c: 45:             (cf->h)=60*(4+(((cf->Rf)-(cf->Gf))/(max-min)));
  2581   0013F4  0100               	movlb	0	; () banked
  2582   0013F6  5173               	movf	RGB2Hue@min& (0+255),w,b
  2583   0013F8  5D71               	subwf	RGB2Hue@max& (0+255),w,b
  2584   0013FA  6E59               	movwf	??_RGB2Hue^0,c
  2585   0013FC  5174               	movf	(RGB2Hue@min+1)& (0+255),w,b
  2586   0013FE  5972               	subwfb	(RGB2Hue@max+1)& (0+255),w,b
  2587   001400  6E5A               	movwf	(??_RGB2Hue+1)^0,c
  2588   001402  C059  F00C         	movff	??_RGB2Hue,___xxtofl@val
  2589   001406  C05A  F00D         	movff	??_RGB2Hue+1,___xxtofl@val+1
  2590   00140A  0E00               	movlw	0
  2591   00140C  BE0D               	btfsc	(___xxtofl@val+1)^0,7,c
  2592   00140E  0EFF               	movlw	-1
  2593   001410  6E0E               	movwf	(___xxtofl@val+2)^0,c
  2594   001412  6E0F               	movwf	(___xxtofl@val+3)^0,c
  2595   001414  0E01               	movlw	1
  2596   001416  EC14  F013         	call	___xxtofl
  2597   00141A  C00C  F036         	movff	?___xxtofl,___fldiv@a
  2598   00141E  C00D  F037         	movff	?___xxtofl+1,___fldiv@a+1
  2599   001422  C00E  F038         	movff	?___xxtofl+2,___fldiv@a+2
  2600   001426  C00F  F039         	movff	?___xxtofl+3,___fldiv@a+3
  2601   00142A  EE20 F004          	lfsr	2,4
  2602   00142E  5057               	movf	RGB2Hue@cf^0,w,c
  2603   001430  26D9               	addwf	fsr2l,f,c
  2604   001432  5058               	movf	(RGB2Hue@cf+1)^0,w,c
  2605   001434  22DA               	addwfc	fsr2h,f,c
  2606   001436  CFDE F02E          	movff	postinc2,___flsub@a
  2607   00143A  CFDE F02F          	movff	postinc2,___flsub@a+1
  2608   00143E  CFDE F030          	movff	postinc2,___flsub@a+2
  2609   001442  CFDE F031          	movff	postinc2,___flsub@a+3
  2610   001446  C057  FFD9         	movff	RGB2Hue@cf,fsr2l
  2611   00144A  C058  FFDA         	movff	RGB2Hue@cf+1,fsr2h
  2612   00144E  CFDE F02A          	movff	postinc2,___flsub@b
  2613   001452  CFDE F02B          	movff	postinc2,___flsub@b+1
  2614   001456  CFDE F02C          	movff	postinc2,___flsub@b+2
  2615   00145A  CFDE F02D          	movff	postinc2,___flsub@b+3
  2616   00145E  EC1C  F019         	call	___flsub	;wreg free
  2617   001462  C02A  F032         	movff	?___flsub,___fldiv@b
  2618   001466  C02B  F033         	movff	?___flsub+1,___fldiv@b+1
  2619   00146A  C02C  F034         	movff	?___flsub+2,___fldiv@b+2
  2620   00146E  C02D  F035         	movff	?___flsub+3,___fldiv@b+3
  2621   001472  EC47  F011         	call	___fldiv	;wreg free
  2622   001476  C032  F06D         	movff	?___fldiv,_RGB2Hue$1609
  2623   00147A  C033  F06E         	movff	?___fldiv+1,_RGB2Hue$1609+1
  2624   00147E  C034  F06F         	movff	?___fldiv+2,_RGB2Hue$1609+2
  2625   001482  C035  F070         	movff	?___fldiv+3,_RGB2Hue$1609+3
  2626   001486                     
  2627                           ;colorfunctions.c: 45:             (cf->h)=60*(4+(((cf->Rf)-(cf->Gf))/(max-min)));
  2628   001486  0E00               	movlw	0
  2629   001488  6E1E               	movwf	___fladd@a^0,c
  2630   00148A  0E00               	movlw	0
  2631   00148C  6E1F               	movwf	(___fladd@a+1)^0,c
  2632   00148E  0E80               	movlw	128
  2633   001490  6E20               	movwf	(___fladd@a+2)^0,c
  2634   001492  0E40               	movlw	64
  2635   001494  6E21               	movwf	(___fladd@a+3)^0,c
  2636   001496  C06D  F01A         	movff	_RGB2Hue$1609,___fladd@b
  2637   00149A  C06E  F01B         	movff	_RGB2Hue$1609+1,___fladd@b+1
  2638   00149E  C06F  F01C         	movff	_RGB2Hue$1609+2,___fladd@b+2
  2639   0014A2  C070  F01D         	movff	_RGB2Hue$1609+3,___fladd@b+3
  2640   0014A6  ECAA  F00A         	call	___fladd	;wreg free
  2641   0014AA  C01A  F04B         	movff	?___fladd,___flmul@b
  2642   0014AE  C01B  F04C         	movff	?___fladd+1,___flmul@b+1
  2643   0014B2  C01C  F04D         	movff	?___fladd+2,___flmul@b+2
  2644   0014B6  C01D  F04E         	movff	?___fladd+3,___flmul@b+3
  2645   0014BA  0E00               	movlw	0
  2646   0014BC  6E4F               	movwf	___flmul@a^0,c
  2647   0014BE  0E00               	movlw	0
  2648   0014C0  6E50               	movwf	(___flmul@a+1)^0,c
  2649   0014C2  0E70               	movlw	112
  2650   0014C4  6E51               	movwf	(___flmul@a+2)^0,c
  2651   0014C6  0E42               	movlw	66
  2652   0014C8  6E52               	movwf	(___flmul@a+3)^0,c
  2653   0014CA  EC31  F00F         	call	___flmul	;wreg free
  2654   0014CE  EE20 F010          	lfsr	2,16
  2655   0014D2  5057               	movf	RGB2Hue@cf^0,w,c
  2656   0014D4  26D9               	addwf	fsr2l,f,c
  2657   0014D6  5058               	movf	(RGB2Hue@cf+1)^0,w,c
  2658   0014D8  22DA               	addwfc	fsr2h,f,c
  2659   0014DA  C04B  FFDE         	movff	?___flmul,postinc2
  2660   0014DE  C04C  FFDE         	movff	?___flmul+1,postinc2
  2661   0014E2  C04D  FFDE         	movff	?___flmul+2,postinc2
  2662   0014E6  C04E  FFDE         	movff	?___flmul+3,postinc2
  2663   0014EA                     l2932:
  2664                           
  2665                           ;colorfunctions.c: 47:         if (cf->h < 0){
  2666   0014EA  EE20 F010          	lfsr	2,16
  2667   0014EE  5057               	movf	RGB2Hue@cf^0,w,c
  2668   0014F0  26D9               	addwf	fsr2l,f,c
  2669   0014F2  5058               	movf	(RGB2Hue@cf+1)^0,w,c
  2670   0014F4  22DA               	addwfc	fsr2h,f,c
  2671   0014F6  0E03               	movlw	3
  2672   0014F8  BEDB               	btfsc	plusw2,7,c
  2673   0014FA  EF83  F00A         	goto	u3250
  2674   0014FE  EF81  F00A         	goto	u3251
  2675   001502                     u3251:
  2676   001502  EFA9  F00A         	goto	l63
  2677   001506                     u3250:
  2678   001506                     
  2679                           ;colorfunctions.c: 48:             cf->h= cf->h +360;
  2680   001506  EE20 F010          	lfsr	2,16
  2681   00150A  5057               	movf	RGB2Hue@cf^0,w,c
  2682   00150C  26D9               	addwf	fsr2l,f,c
  2683   00150E  5058               	movf	(RGB2Hue@cf+1)^0,w,c
  2684   001510  22DA               	addwfc	fsr2h,f,c
  2685   001512  CFDE F01A          	movff	postinc2,___fladd@b
  2686   001516  CFDE F01B          	movff	postinc2,___fladd@b+1
  2687   00151A  CFDE F01C          	movff	postinc2,___fladd@b+2
  2688   00151E  CFDE F01D          	movff	postinc2,___fladd@b+3
  2689   001522  0E00               	movlw	0
  2690   001524  6E1E               	movwf	___fladd@a^0,c
  2691   001526  0E00               	movlw	0
  2692   001528  6E1F               	movwf	(___fladd@a+1)^0,c
  2693   00152A  0EB4               	movlw	180
  2694   00152C  6E20               	movwf	(___fladd@a+2)^0,c
  2695   00152E  0E43               	movlw	67
  2696   001530  6E21               	movwf	(___fladd@a+3)^0,c
  2697   001532  ECAA  F00A         	call	___fladd	;wreg free
  2698   001536  EE20 F010          	lfsr	2,16
  2699   00153A  5057               	movf	RGB2Hue@cf^0,w,c
  2700   00153C  26D9               	addwf	fsr2l,f,c
  2701   00153E  5058               	movf	(RGB2Hue@cf+1)^0,w,c
  2702   001540  22DA               	addwfc	fsr2h,f,c
  2703   001542  C01A  FFDE         	movff	?___fladd,postinc2
  2704   001546  C01B  FFDE         	movff	?___fladd+1,postinc2
  2705   00154A  C01C  FFDE         	movff	?___fladd+2,postinc2
  2706   00154E  C01D  FFDE         	movff	?___fladd+3,postinc2
  2707   001552                     l63:
  2708   001552  0012               	return		;funcret
  2709   001554                     __end_of_RGB2Hue:
  2710                           	callstack 0
  2711                           
  2712 ;; *************** function ___xxtofl *****************
  2713 ;; Defined at:
  2714 ;;		line 10 in file "C:\Program Files\Microchip\xc8\v2.40\pic\sources\c99\common\xxtofl.c"
  2715 ;; Parameters:    Size  Location     Type
  2716 ;;  sign            1    wreg     unsigned char 
  2717 ;;  val             4   11[COMRAM] long 
  2718 ;; Auto vars:     Size  Location     Type
  2719 ;;  sign            1   19[COMRAM] unsigned char 
  2720 ;;  arg             4   21[COMRAM] unsigned long 
  2721 ;;  exp             1   20[COMRAM] unsigned char 
  2722 ;; Return value:  Size  Location     Type
  2723 ;;                  4   11[COMRAM] unsigned char 
  2724 ;; Registers used:
  2725 ;;		wreg, status,2, status,0
  2726 ;; Tracked objects:
  2727 ;;		On entry : 0/0
  2728 ;;		On exit  : 0/0
  2729 ;;		Unchanged: 0/0
  2730 ;; Data sizes:     COMRAM   BANK0   BANK1   BANK2   BANK3   BANK4   BANK5   BANK6   BANK7   BANK8   BANK9  BANK10  BANK1
      +1  BANK12  BANK13
  2731 ;;      Params:         4       0       0       0       0       0       0       0       0       0       0       0       
      +0       0       0
  2732 ;;      Locals:         6       0       0       0       0       0       0       0       0       0       0       0       
      +0       0       0
  2733 ;;      Temps:          4       0       0       0       0       0       0       0       0       0       0       0       
      +0       0       0
  2734 ;;      Totals:        14       0       0       0       0       0       0       0       0       0       0       0       
      +0       0       0
  2735 ;;Total ram usage:       14 bytes
  2736 ;; Hardware stack levels used: 1
  2737 ;; This function calls:
  2738 ;;		Nothing
  2739 ;; This function is called by:
  2740 ;;		_colour_read_all
  2741 ;;		_RGB2Hue
  2742 ;; This function uses a non-reentrant model
  2743 ;;
  2744                           
  2745                           	psect	text17
  2746   002628                     __ptext17:
  2747                           	callstack 0
  2748   002628                     ___xxtofl:
  2749                           	callstack 29
  2750                           
  2751                           ;incstack = 0
  2752                           ;___xxtofl@sign stored from wreg
  2753   002628  6E14               	movwf	___xxtofl@sign^0,c
  2754   00262A  5014               	movf	___xxtofl@sign^0,w,c
  2755   00262C  B4D8               	btfsc	status,2,c
  2756   00262E  EF1B  F013         	goto	u3051
  2757   002632  EF1D  F013         	goto	u3050
  2758   002636                     u3051:
  2759   002636  EF3F  F013         	goto	l882
  2760   00263A                     u3050:
  2761   00263A  BE0F               	btfsc	(___xxtofl@val+3)^0,7,c
  2762   00263C  EF24  F013         	goto	u3060
  2763   002640  EF22  F013         	goto	u3061
  2764   002644                     u3061:
  2765   002644  EF3F  F013         	goto	l882
  2766   002648                     u3060:
  2767   002648  C00C  F010         	movff	___xxtofl@val,??___xxtofl
  2768   00264C  C00D  F011         	movff	___xxtofl@val+1,??___xxtofl+1
  2769   002650  C00E  F012         	movff	___xxtofl@val+2,??___xxtofl+2
  2770   002654  C00F  F013         	movff	___xxtofl@val+3,??___xxtofl+3
  2771   002658  1E10               	comf	??___xxtofl^0,f,c
  2772   00265A  1E11               	comf	(??___xxtofl+1)^0,f,c
  2773   00265C  1E12               	comf	(??___xxtofl+2)^0,f,c
  2774   00265E  1E13               	comf	(??___xxtofl+3)^0,f,c
  2775   002660  2A10               	incf	??___xxtofl^0,f,c
  2776   002662  0E00               	movlw	0
  2777   002664  2211               	addwfc	(??___xxtofl+1)^0,f,c
  2778   002666  2212               	addwfc	(??___xxtofl+2)^0,f,c
  2779   002668  2213               	addwfc	(??___xxtofl+3)^0,f,c
  2780   00266A  C010  F016         	movff	??___xxtofl,___xxtofl@arg
  2781   00266E  C011  F017         	movff	??___xxtofl+1,___xxtofl@arg+1
  2782   002672  C012  F018         	movff	??___xxtofl+2,___xxtofl@arg+2
  2783   002676  C013  F019         	movff	??___xxtofl+3,___xxtofl@arg+3
  2784   00267A  EF47  F013         	goto	l2832
  2785   00267E                     l882:
  2786   00267E  C00C  F016         	movff	___xxtofl@val,___xxtofl@arg
  2787   002682  C00D  F017         	movff	___xxtofl@val+1,___xxtofl@arg+1
  2788   002686  C00E  F018         	movff	___xxtofl@val+2,___xxtofl@arg+2
  2789   00268A  C00F  F019         	movff	___xxtofl@val+3,___xxtofl@arg+3
  2790   00268E                     l2832:
  2791   00268E  500C               	movf	___xxtofl@val^0,w,c
  2792   002690  100D               	iorwf	(___xxtofl@val+1)^0,w,c
  2793   002692  100E               	iorwf	(___xxtofl@val+2)^0,w,c
  2794   002694  100F               	iorwf	(___xxtofl@val+3)^0,w,c
  2795   002696  A4D8               	btfss	status,2,c
  2796   002698  EF50  F013         	goto	u3071
  2797   00269C  EF52  F013         	goto	u3070
  2798   0026A0                     u3071:
  2799   0026A0  EF5C  F013         	goto	l2838
  2800   0026A4                     u3070:
  2801   0026A4  0E00               	movlw	0
  2802   0026A6  6E0C               	movwf	?___xxtofl^0,c
  2803   0026A8  0E00               	movlw	0
  2804   0026AA  6E0D               	movwf	(?___xxtofl+1)^0,c
  2805   0026AC  0E00               	movlw	0
  2806   0026AE  6E0E               	movwf	(?___xxtofl+2)^0,c
  2807   0026B0  0E00               	movlw	0
  2808   0026B2  6E0F               	movwf	(?___xxtofl+3)^0,c
  2809   0026B4  EFED  F013         	goto	l885
  2810   0026B8                     l2838:
  2811   0026B8  0E96               	movlw	150
  2812   0026BA  6E15               	movwf	___xxtofl@exp^0,c
  2813   0026BC  EF66  F013         	goto	l2842
  2814   0026C0                     l2840:
  2815   0026C0  2A15               	incf	___xxtofl@exp^0,f,c
  2816   0026C2  90D8               	bcf	status,0,c
  2817   0026C4  3219               	rrcf	(___xxtofl@arg+3)^0,f,c
  2818   0026C6  3218               	rrcf	(___xxtofl@arg+2)^0,f,c
  2819   0026C8  3217               	rrcf	(___xxtofl@arg+1)^0,f,c
  2820   0026CA  3216               	rrcf	___xxtofl@arg^0,f,c
  2821   0026CC                     l2842:
  2822   0026CC  0E00               	movlw	0
  2823   0026CE  1416               	andwf	___xxtofl@arg^0,w,c
  2824   0026D0  6E10               	movwf	??___xxtofl^0,c
  2825   0026D2  0E00               	movlw	0
  2826   0026D4  1417               	andwf	(___xxtofl@arg+1)^0,w,c
  2827   0026D6  6E11               	movwf	(??___xxtofl+1)^0,c
  2828   0026D8  0E00               	movlw	0
  2829   0026DA  1418               	andwf	(___xxtofl@arg+2)^0,w,c
  2830   0026DC  6E12               	movwf	(??___xxtofl+2)^0,c
  2831   0026DE  0EFE               	movlw	254
  2832   0026E0  1419               	andwf	(___xxtofl@arg+3)^0,w,c
  2833   0026E2  6E13               	movwf	(??___xxtofl+3)^0,c
  2834   0026E4  5010               	movf	??___xxtofl^0,w,c
  2835   0026E6  1011               	iorwf	(??___xxtofl+1)^0,w,c
  2836   0026E8  1012               	iorwf	(??___xxtofl+2)^0,w,c
  2837   0026EA  1013               	iorwf	(??___xxtofl+3)^0,w,c
  2838   0026EC  A4D8               	btfss	status,2,c
  2839   0026EE  EF7B  F013         	goto	u3081
  2840   0026F2  EF7D  F013         	goto	u3080
  2841   0026F6                     u3081:
  2842   0026F6  EF60  F013         	goto	l2840
  2843   0026FA                     u3080:
  2844   0026FA  EF8B  F013         	goto	l889
  2845   0026FE                     l2844:
  2846   0026FE  2A15               	incf	___xxtofl@exp^0,f,c
  2847   002700  0E01               	movlw	1
  2848   002702  2616               	addwf	___xxtofl@arg^0,f,c
  2849   002704  0E00               	movlw	0
  2850   002706  2217               	addwfc	(___xxtofl@arg+1)^0,f,c
  2851   002708  2218               	addwfc	(___xxtofl@arg+2)^0,f,c
  2852   00270A  2219               	addwfc	(___xxtofl@arg+3)^0,f,c
  2853   00270C  90D8               	bcf	status,0,c
  2854   00270E  3219               	rrcf	(___xxtofl@arg+3)^0,f,c
  2855   002710  3218               	rrcf	(___xxtofl@arg+2)^0,f,c
  2856   002712  3217               	rrcf	(___xxtofl@arg+1)^0,f,c
  2857   002714  3216               	rrcf	___xxtofl@arg^0,f,c
  2858   002716                     l889:
  2859   002716  0E00               	movlw	0
  2860   002718  1416               	andwf	___xxtofl@arg^0,w,c
  2861   00271A  6E10               	movwf	??___xxtofl^0,c
  2862   00271C  0E00               	movlw	0
  2863   00271E  1417               	andwf	(___xxtofl@arg+1)^0,w,c
  2864   002720  6E11               	movwf	(??___xxtofl+1)^0,c
  2865   002722  0E00               	movlw	0
  2866   002724  1418               	andwf	(___xxtofl@arg+2)^0,w,c
  2867   002726  6E12               	movwf	(??___xxtofl+2)^0,c
  2868   002728  0EFF               	movlw	255
  2869   00272A  1419               	andwf	(___xxtofl@arg+3)^0,w,c
  2870   00272C  6E13               	movwf	(??___xxtofl+3)^0,c
  2871   00272E  5010               	movf	??___xxtofl^0,w,c
  2872   002730  1011               	iorwf	(??___xxtofl+1)^0,w,c
  2873   002732  1012               	iorwf	(??___xxtofl+2)^0,w,c
  2874   002734  1013               	iorwf	(??___xxtofl+3)^0,w,c
  2875   002736  A4D8               	btfss	status,2,c
  2876   002738  EFA0  F013         	goto	u3091
  2877   00273C  EFA2  F013         	goto	u3090
  2878   002740                     u3091:
  2879   002740  EF7F  F013         	goto	l2844
  2880   002744                     u3090:
  2881   002744  EFAA  F013         	goto	l2852
  2882   002748                     l2850:
  2883   002748  0615               	decf	___xxtofl@exp^0,f,c
  2884   00274A  90D8               	bcf	status,0,c
  2885   00274C  3616               	rlcf	___xxtofl@arg^0,f,c
  2886   00274E  3617               	rlcf	(___xxtofl@arg+1)^0,f,c
  2887   002750  3618               	rlcf	(___xxtofl@arg+2)^0,f,c
  2888   002752  3619               	rlcf	(___xxtofl@arg+3)^0,f,c
  2889   002754                     l2852:
  2890   002754  BE18               	btfsc	(___xxtofl@arg+2)^0,7,c
  2891   002756  EFAF  F013         	goto	u3101
  2892   00275A  EFB1  F013         	goto	u3100
  2893   00275E                     u3101:
  2894   00275E  EFB9  F013         	goto	l896
  2895   002762                     u3100:
  2896   002762  0E02               	movlw	2
  2897   002764  6015               	cpfslt	___xxtofl@exp^0,c
  2898   002766  EFB7  F013         	goto	u3111
  2899   00276A  EFB9  F013         	goto	u3110
  2900   00276E                     u3111:
  2901   00276E  EFA4  F013         	goto	l2850
  2902   002772                     u3110:
  2903   002772                     l896:
  2904   002772  B015               	btfsc	___xxtofl@exp^0,0,c
  2905   002774  EFBE  F013         	goto	u3121
  2906   002778  EFC0  F013         	goto	u3120
  2907   00277C                     u3121:
  2908   00277C  EFC1  F013         	goto	l2858
  2909   002780                     u3120:
  2910   002780  9E18               	bcf	(___xxtofl@arg+2)^0,7,c
  2911   002782                     l2858:
  2912   002782  90D8               	bcf	status,0,c
  2913   002784  3215               	rrcf	___xxtofl@exp^0,f,c
  2914   002786  C015  F010         	movff	___xxtofl@exp,??___xxtofl
  2915   00278A  6A11               	clrf	(??___xxtofl+1)^0,c
  2916   00278C  6A12               	clrf	(??___xxtofl+2)^0,c
  2917   00278E  6A13               	clrf	(??___xxtofl+3)^0,c
  2918   002790  C010  F013         	movff	??___xxtofl,??___xxtofl+3
  2919   002794  6A12               	clrf	(??___xxtofl+2)^0,c
  2920   002796  6A11               	clrf	(??___xxtofl+1)^0,c
  2921   002798  6A10               	clrf	??___xxtofl^0,c
  2922   00279A  5010               	movf	??___xxtofl^0,w,c
  2923   00279C  1216               	iorwf	___xxtofl@arg^0,f,c
  2924   00279E  5011               	movf	(??___xxtofl+1)^0,w,c
  2925   0027A0  1217               	iorwf	(___xxtofl@arg+1)^0,f,c
  2926   0027A2  5012               	movf	(??___xxtofl+2)^0,w,c
  2927   0027A4  1218               	iorwf	(___xxtofl@arg+2)^0,f,c
  2928   0027A6  5013               	movf	(??___xxtofl+3)^0,w,c
  2929   0027A8  1219               	iorwf	(___xxtofl@arg+3)^0,f,c
  2930   0027AA  5014               	movf	___xxtofl@sign^0,w,c
  2931   0027AC  B4D8               	btfsc	status,2,c
  2932   0027AE  EFDB  F013         	goto	u3131
  2933   0027B2  EFDD  F013         	goto	u3130
  2934   0027B6                     u3131:
  2935   0027B6  EFE5  F013         	goto	l2868
  2936   0027BA                     u3130:
  2937   0027BA  BE0F               	btfsc	(___xxtofl@val+3)^0,7,c
  2938   0027BC  EFE4  F013         	goto	u3140
  2939   0027C0  EFE2  F013         	goto	u3141
  2940   0027C4                     u3141:
  2941   0027C4  EFE5  F013         	goto	l2868
  2942   0027C8                     u3140:
  2943   0027C8  8E19               	bsf	(___xxtofl@arg+3)^0,7,c
  2944   0027CA                     l2868:
  2945   0027CA  C016  F00C         	movff	___xxtofl@arg,?___xxtofl
  2946   0027CE  C017  F00D         	movff	___xxtofl@arg+1,?___xxtofl+1
  2947   0027D2  C018  F00E         	movff	___xxtofl@arg+2,?___xxtofl+2
  2948   0027D6  C019  F00F         	movff	___xxtofl@arg+3,?___xxtofl+3
  2949   0027DA                     l885:
  2950   0027DA  0012               	return		;funcret
  2951   0027DC                     __end_of___xxtofl:
  2952                           	callstack 0
  2953                           
  2954 ;; *************** function ___fltol *****************
  2955 ;; Defined at:
  2956 ;;		line 43 in file "C:\Program Files\Microchip\xc8\v2.40\pic\sources\c99\common\fltol.c"
  2957 ;; Parameters:    Size  Location     Type
  2958 ;;  f1              4    0[COMRAM] unsigned char 
  2959 ;; Auto vars:     Size  Location     Type
  2960 ;;  exp1            1    9[COMRAM] unsigned char 
  2961 ;;  sign1           1    8[COMRAM] unsigned char 
  2962 ;; Return value:  Size  Location     Type
  2963 ;;                  4    0[COMRAM] long 
  2964 ;; Registers used:
  2965 ;;		wreg, status,2, status,0
  2966 ;; Tracked objects:
  2967 ;;		On entry : 0/0
  2968 ;;		On exit  : 0/0
  2969 ;;		Unchanged: 0/0
  2970 ;; Data sizes:     COMRAM   BANK0   BANK1   BANK2   BANK3   BANK4   BANK5   BANK6   BANK7   BANK8   BANK9  BANK10  BANK1
      +1  BANK12  BANK13
  2971 ;;      Params:         4       0       0       0       0       0       0       0       0       0       0       0       
      +0       0       0
  2972 ;;      Locals:         2       0       0       0       0       0       0       0       0       0       0       0       
      +0       0       0
  2973 ;;      Temps:          4       0       0       0       0       0       0       0       0       0       0       0       
      +0       0       0
  2974 ;;      Totals:        10       0       0       0       0       0       0       0       0       0       0       0       
      +0       0       0
  2975 ;;Total ram usage:       10 bytes
  2976 ;; Hardware stack levels used: 1
  2977 ;; This function calls:
  2978 ;;		Nothing
  2979 ;; This function is called by:
  2980 ;;		_RGB2Hue
  2981 ;; This function uses a non-reentrant model
  2982 ;;
  2983                           
  2984                           	psect	text18
  2985   002A72                     __ptext18:
  2986                           	callstack 0
  2987   002A72                     ___fltol:
  2988                           	callstack 29
  2989   002A72  3403               	rlcf	(___fltol@f1+2)^0,w,c
  2990   002A74  3404               	rlcf	(___fltol@f1+3)^0,w,c
  2991   002A76  6E0A               	movwf	___fltol@exp1^0,c
  2992   002A78  500A               	movf	___fltol@exp1^0,w,c
  2993   002A7A  A4D8               	btfss	status,2,c
  2994   002A7C  EF42  F015         	goto	u2981
  2995   002A80  EF44  F015         	goto	u2980
  2996   002A84                     u2981:
  2997   002A84  EF4E  F015         	goto	l2788
  2998   002A88                     u2980:
  2999   002A88                     l2784:
  3000   002A88  0E00               	movlw	0
  3001   002A8A  6E01               	movwf	?___fltol^0,c
  3002   002A8C  0E00               	movlw	0
  3003   002A8E  6E02               	movwf	(?___fltol+1)^0,c
  3004   002A90  0E00               	movlw	0
  3005   002A92  6E03               	movwf	(?___fltol+2)^0,c
  3006   002A94  0E00               	movlw	0
  3007   002A96  6E04               	movwf	(?___fltol+3)^0,c
  3008   002A98  EFBB  F015         	goto	l524
  3009   002A9C                     l2788:
  3010   002A9C  C001  F005         	movff	___fltol@f1,??___fltol
  3011   002AA0  C002  F006         	movff	___fltol@f1+1,??___fltol+1
  3012   002AA4  C003  F007         	movff	___fltol@f1+2,??___fltol+2
  3013   002AA8  C004  F008         	movff	___fltol@f1+3,??___fltol+3
  3014   002AAC  0E20               	movlw	32
  3015   002AAE  EF5E  F015         	goto	u2990
  3016   002AB2                     u2995:
  3017   002AB2  90D8               	bcf	status,0,c
  3018   002AB4  3208               	rrcf	(??___fltol+3)^0,f,c
  3019   002AB6  3207               	rrcf	(??___fltol+2)^0,f,c
  3020   002AB8  3206               	rrcf	(??___fltol+1)^0,f,c
  3021   002ABA  3205               	rrcf	??___fltol^0,f,c
  3022   002ABC                     u2990:
  3023   002ABC  2EE8               	decfsz	wreg,f,c
  3024   002ABE  EF59  F015         	goto	u2995
  3025   002AC2  5005               	movf	??___fltol^0,w,c
  3026   002AC4  6E09               	movwf	___fltol@sign1^0,c
  3027   002AC6  8E03               	bsf	(___fltol@f1+2)^0,7,c
  3028   002AC8  0EFF               	movlw	255
  3029   002ACA  1601               	andwf	___fltol@f1^0,f,c
  3030   002ACC  0EFF               	movlw	255
  3031   002ACE  1602               	andwf	(___fltol@f1+1)^0,f,c
  3032   002AD0  0EFF               	movlw	255
  3033   002AD2  1603               	andwf	(___fltol@f1+2)^0,f,c
  3034   002AD4  0E00               	movlw	0
  3035   002AD6  1604               	andwf	(___fltol@f1+3)^0,f,c
  3036   002AD8  0E96               	movlw	150
  3037   002ADA  5E0A               	subwf	___fltol@exp1^0,f,c
  3038   002ADC  BE0A               	btfsc	___fltol@exp1^0,7,c
  3039   002ADE  EF75  F015         	goto	u3000
  3040   002AE2  EF73  F015         	goto	u3001
  3041   002AE6                     u3001:
  3042   002AE6  EF8B  F015         	goto	l2808
  3043   002AEA                     u3000:
  3044   002AEA  500A               	movf	___fltol@exp1^0,w,c
  3045   002AEC  0A80               	xorlw	128
  3046   002AEE  0F97               	addlw	151
  3047   002AF0  B0D8               	btfsc	status,0,c
  3048   002AF2  EF7D  F015         	goto	u3011
  3049   002AF6  EF7F  F015         	goto	u3010
  3050   002AFA                     u3011:
  3051   002AFA  EF81  F015         	goto	l2804
  3052   002AFE                     u3010:
  3053   002AFE  EF44  F015         	goto	l2784
  3054   002B02                     l2804:
  3055   002B02  90D8               	bcf	status,0,c
  3056   002B04  3204               	rrcf	(___fltol@f1+3)^0,f,c
  3057   002B06  3203               	rrcf	(___fltol@f1+2)^0,f,c
  3058   002B08  3202               	rrcf	(___fltol@f1+1)^0,f,c
  3059   002B0A  3201               	rrcf	___fltol@f1^0,f,c
  3060   002B0C  3E0A               	incfsz	___fltol@exp1^0,f,c
  3061   002B0E  EF81  F015         	goto	l2804
  3062   002B12  EFA3  F015         	goto	l2818
  3063   002B16                     l2808:
  3064   002B16  0E1F               	movlw	31
  3065   002B18  640A               	cpfsgt	___fltol@exp1^0,c
  3066   002B1A  EF91  F015         	goto	u3021
  3067   002B1E  EF93  F015         	goto	u3020
  3068   002B22                     u3021:
  3069   002B22  EF9B  F015         	goto	l2816
  3070   002B26                     u3020:
  3071   002B26  EF44  F015         	goto	l2784
  3072   002B2A                     l2814:
  3073   002B2A  90D8               	bcf	status,0,c
  3074   002B2C  3601               	rlcf	___fltol@f1^0,f,c
  3075   002B2E  3602               	rlcf	(___fltol@f1+1)^0,f,c
  3076   002B30  3603               	rlcf	(___fltol@f1+2)^0,f,c
  3077   002B32  3604               	rlcf	(___fltol@f1+3)^0,f,c
  3078   002B34  060A               	decf	___fltol@exp1^0,f,c
  3079   002B36                     l2816:
  3080   002B36  500A               	movf	___fltol@exp1^0,w,c
  3081   002B38  A4D8               	btfss	status,2,c
  3082   002B3A  EFA1  F015         	goto	u3031
  3083   002B3E  EFA3  F015         	goto	u3030
  3084   002B42                     u3031:
  3085   002B42  EF95  F015         	goto	l2814
  3086   002B46                     u3030:
  3087   002B46                     l2818:
  3088   002B46  5009               	movf	___fltol@sign1^0,w,c
  3089   002B48  B4D8               	btfsc	status,2,c
  3090   002B4A  EFA9  F015         	goto	u3041
  3091   002B4E  EFAB  F015         	goto	u3040
  3092   002B52                     u3041:
  3093   002B52  EFB3  F015         	goto	l2822
  3094   002B56                     u3040:
  3095   002B56  1E04               	comf	(___fltol@f1+3)^0,f,c
  3096   002B58  1E03               	comf	(___fltol@f1+2)^0,f,c
  3097   002B5A  1E02               	comf	(___fltol@f1+1)^0,f,c
  3098   002B5C  6C01               	negf	___fltol@f1^0,c
  3099   002B5E  0E00               	movlw	0
  3100   002B60  2202               	addwfc	(___fltol@f1+1)^0,f,c
  3101   002B62  2203               	addwfc	(___fltol@f1+2)^0,f,c
  3102   002B64  2204               	addwfc	(___fltol@f1+3)^0,f,c
  3103   002B66                     l2822:
  3104   002B66  C001  F001         	movff	___fltol@f1,?___fltol
  3105   002B6A  C002  F002         	movff	___fltol@f1+1,?___fltol+1
  3106   002B6E  C003  F003         	movff	___fltol@f1+2,?___fltol+2
  3107   002B72  C004  F004         	movff	___fltol@f1+3,?___fltol+3
  3108   002B76                     l524:
  3109   002B76  0012               	return		;funcret
  3110   002B78                     __end_of___fltol:
  3111                           	callstack 0
  3112                           
  3113 ;; *************** function ___flsub *****************
  3114 ;; Defined at:
  3115 ;;		line 245 in file "C:\Program Files\Microchip\xc8\v2.40\pic\sources\c99\common\sprcadd.c"
  3116 ;; Parameters:    Size  Location     Type
  3117 ;;  b               4   41[COMRAM] long 
  3118 ;;  a               4   45[COMRAM] long 
  3119 ;; Auto vars:     Size  Location     Type
  3120 ;;		None
  3121 ;; Return value:  Size  Location     Type
  3122 ;;                  4   41[COMRAM] long 
  3123 ;; Registers used:
  3124 ;;		wreg, status,2, status,0, cstack
  3125 ;; Tracked objects:
  3126 ;;		On entry : 0/0
  3127 ;;		On exit  : 0/0
  3128 ;;		Unchanged: 0/0
  3129 ;; Data sizes:     COMRAM   BANK0   BANK1   BANK2   BANK3   BANK4   BANK5   BANK6   BANK7   BANK8   BANK9  BANK10  BANK1
      +1  BANK12  BANK13
  3130 ;;      Params:         8       0       0       0       0       0       0       0       0       0       0       0       
      +0       0       0
  3131 ;;      Locals:         0       0       0       0       0       0       0       0       0       0       0       0       
      +0       0       0
  3132 ;;      Temps:          0       0       0       0       0       0       0       0       0       0       0       0       
      +0       0       0
  3133 ;;      Totals:         8       0       0       0       0       0       0       0       0       0       0       0       
      +0       0       0
  3134 ;;Total ram usage:        8 bytes
  3135 ;; Hardware stack levels used: 1
  3136 ;; Hardware stack levels required when called: 1
  3137 ;; This function calls:
  3138 ;;		___fladd
  3139 ;; This function is called by:
  3140 ;;		_RGB2Hue
  3141 ;; This function uses a non-reentrant model
  3142 ;;
  3143                           
  3144                           	psect	text19
  3145   003238                     __ptext19:
  3146                           	callstack 0
  3147   003238                     ___flsub:
  3148                           	callstack 28
  3149   003238  0E00               	movlw	0
  3150   00323A  1A2E               	xorwf	___flsub@a^0,f,c
  3151   00323C  0E00               	movlw	0
  3152   00323E  1A2F               	xorwf	(___flsub@a+1)^0,f,c
  3153   003240  0E00               	movlw	0
  3154   003242  1A30               	xorwf	(___flsub@a+2)^0,f,c
  3155   003244  0E80               	movlw	128
  3156   003246  1A31               	xorwf	(___flsub@a+3)^0,f,c
  3157   003248  C02A  F01A         	movff	___flsub@b,___fladd@b
  3158   00324C  C02B  F01B         	movff	___flsub@b+1,___fladd@b+1
  3159   003250  C02C  F01C         	movff	___flsub@b+2,___fladd@b+2
  3160   003254  C02D  F01D         	movff	___flsub@b+3,___fladd@b+3
  3161   003258  C02E  F01E         	movff	___flsub@a,___fladd@a
  3162   00325C  C02F  F01F         	movff	___flsub@a+1,___fladd@a+1
  3163   003260  C030  F020         	movff	___flsub@a+2,___fladd@a+2
  3164   003264  C031  F021         	movff	___flsub@a+3,___fladd@a+3
  3165   003268  ECAA  F00A         	call	___fladd	;wreg free
  3166   00326C  C01A  F02A         	movff	?___fladd,?___flsub
  3167   003270  C01B  F02B         	movff	?___fladd+1,?___flsub+1
  3168   003274  C01C  F02C         	movff	?___fladd+2,?___flsub+2
  3169   003278  C01D  F02D         	movff	?___fladd+3,?___flsub+3
  3170   00327C  0012               	return		;funcret
  3171   00327E                     __end_of___flsub:
  3172                           	callstack 0
  3173                           
  3174 ;; *************** function ___fladd *****************
  3175 ;; Defined at:
  3176 ;;		line 10 in file "C:\Program Files\Microchip\xc8\v2.40\pic\sources\c99\common\sprcadd.c"
  3177 ;; Parameters:    Size  Location     Type
  3178 ;;  b               4   25[COMRAM] long 
  3179 ;;  a               4   29[COMRAM] long 
  3180 ;; Auto vars:     Size  Location     Type
  3181 ;;  grs             1   40[COMRAM] unsigned char 
  3182 ;;  bexp            1   39[COMRAM] unsigned char 
  3183 ;;  aexp            1   38[COMRAM] unsigned char 
  3184 ;;  signs           1   37[COMRAM] unsigned char 
  3185 ;; Return value:  Size  Location     Type
  3186 ;;                  4   25[COMRAM] unsigned char 
  3187 ;; Registers used:
  3188 ;;		wreg, status,2, status,0
  3189 ;; Tracked objects:
  3190 ;;		On entry : 0/0
  3191 ;;		On exit  : 0/0
  3192 ;;		Unchanged: 0/0
  3193 ;; Data sizes:     COMRAM   BANK0   BANK1   BANK2   BANK3   BANK4   BANK5   BANK6   BANK7   BANK8   BANK9  BANK10  BANK1
      +1  BANK12  BANK13
  3194 ;;      Params:         8       0       0       0       0       0       0       0       0       0       0       0       
      +0       0       0
  3195 ;;      Locals:         4       0       0       0       0       0       0       0       0       0       0       0       
      +0       0       0
  3196 ;;      Temps:          4       0       0       0       0       0       0       0       0       0       0       0       
      +0       0       0
  3197 ;;      Totals:        16       0       0       0       0       0       0       0       0       0       0       0       
      +0       0       0
  3198 ;;Total ram usage:       16 bytes
  3199 ;; Hardware stack levels used: 1
  3200 ;; This function calls:
  3201 ;;		Nothing
  3202 ;; This function is called by:
  3203 ;;		_RGB2Hue
  3204 ;;		___flsub
  3205 ;; This function uses a non-reentrant model
  3206 ;;
  3207                           
  3208                           	psect	text20
  3209   001554                     __ptext20:
  3210                           	callstack 0
  3211   001554                     ___fladd:
  3212                           	callstack 28
  3213   001554  501D               	movf	(___fladd@b+3)^0,w,c
  3214   001556  0B80               	andlw	128
  3215   001558  6E26               	movwf	___fladd@signs^0,c
  3216   00155A  501D               	movf	(___fladd@b+3)^0,w,c
  3217   00155C  241D               	addwf	(___fladd@b+3)^0,w,c
  3218   00155E  6E28               	movwf	___fladd@bexp^0,c
  3219   001560  AE1C               	btfss	(___fladd@b+2)^0,7,c
  3220   001562  EFB5  F00A         	goto	u1911
  3221   001566  EFB7  F00A         	goto	u1910
  3222   00156A                     u1911:
  3223   00156A  EFB8  F00A         	goto	l2152
  3224   00156E                     u1910:
  3225   00156E  8028               	bsf	___fladd@bexp^0,0,c
  3226   001570                     l2152:
  3227   001570  5028               	movf	___fladd@bexp^0,w,c
  3228   001572  B4D8               	btfsc	status,2,c
  3229   001574  EFBE  F00A         	goto	u1921
  3230   001578  EFC0  F00A         	goto	u1920
  3231   00157C                     u1921:
  3232   00157C  EFD5  F00A         	goto	l2162
  3233   001580                     u1920:
  3234   001580  2828               	incf	___fladd@bexp^0,w,c
  3235   001582  A4D8               	btfss	status,2,c
  3236   001584  EFC6  F00A         	goto	u1931
  3237   001588  EFC8  F00A         	goto	u1930
  3238   00158C                     u1931:
  3239   00158C  EFD0  F00A         	goto	l2158
  3240   001590                     u1930:
  3241   001590  0E00               	movlw	0
  3242   001592  6E1A               	movwf	___fladd@b^0,c
  3243   001594  0E00               	movlw	0
  3244   001596  6E1B               	movwf	(___fladd@b+1)^0,c
  3245   001598  0E00               	movlw	0
  3246   00159A  6E1C               	movwf	(___fladd@b+2)^0,c
  3247   00159C  0E00               	movlw	0
  3248   00159E  6E1D               	movwf	(___fladd@b+3)^0,c
  3249   0015A0                     l2158:
  3250   0015A0  8E1C               	bsf	(___fladd@b+2)^0,7,c
  3251   0015A2  0E00               	movlw	0
  3252   0015A4  6E1D               	movwf	(___fladd@b+3)^0,c
  3253   0015A6  EFDD  F00A         	goto	l2164
  3254   0015AA                     l2162:
  3255   0015AA  0E00               	movlw	0
  3256   0015AC  6E1A               	movwf	___fladd@b^0,c
  3257   0015AE  0E00               	movlw	0
  3258   0015B0  6E1B               	movwf	(___fladd@b+1)^0,c
  3259   0015B2  0E00               	movlw	0
  3260   0015B4  6E1C               	movwf	(___fladd@b+2)^0,c
  3261   0015B6  0E00               	movlw	0
  3262   0015B8  6E1D               	movwf	(___fladd@b+3)^0,c
  3263   0015BA                     l2164:
  3264   0015BA  5021               	movf	(___fladd@a+3)^0,w,c
  3265   0015BC  0B80               	andlw	128
  3266   0015BE  6E27               	movwf	___fladd@aexp^0,c
  3267   0015C0  5026               	movf	___fladd@signs^0,w,c
  3268   0015C2  1827               	xorwf	___fladd@aexp^0,w,c
  3269   0015C4  B4D8               	btfsc	status,2,c
  3270   0015C6  EFE7  F00A         	goto	u1941
  3271   0015CA  EFE9  F00A         	goto	u1940
  3272   0015CE                     u1941:
  3273   0015CE  EFEA  F00A         	goto	l2170
  3274   0015D2                     u1940:
  3275   0015D2  8C26               	bsf	___fladd@signs^0,6,c
  3276   0015D4                     l2170:
  3277   0015D4  5021               	movf	(___fladd@a+3)^0,w,c
  3278   0015D6  2421               	addwf	(___fladd@a+3)^0,w,c
  3279   0015D8  6E27               	movwf	___fladd@aexp^0,c
  3280   0015DA  AE20               	btfss	(___fladd@a+2)^0,7,c
  3281   0015DC  EFF2  F00A         	goto	u1951
  3282   0015E0  EFF4  F00A         	goto	u1950
  3283   0015E4                     u1951:
  3284   0015E4  EFF5  F00A         	goto	l2176
  3285   0015E8                     u1950:
  3286   0015E8  8027               	bsf	___fladd@aexp^0,0,c
  3287   0015EA                     l2176:
  3288   0015EA  5027               	movf	___fladd@aexp^0,w,c
  3289   0015EC  B4D8               	btfsc	status,2,c
  3290   0015EE  EFFB  F00A         	goto	u1961
  3291   0015F2  EFFD  F00A         	goto	u1960
  3292   0015F6                     u1961:
  3293   0015F6  EF12  F00B         	goto	l2186
  3294   0015FA                     u1960:
  3295   0015FA  2827               	incf	___fladd@aexp^0,w,c
  3296   0015FC  A4D8               	btfss	status,2,c
  3297   0015FE  EF03  F00B         	goto	u1971
  3298   001602  EF05  F00B         	goto	u1970
  3299   001606                     u1971:
  3300   001606  EF0D  F00B         	goto	l2182
  3301   00160A                     u1970:
  3302   00160A  0E00               	movlw	0
  3303   00160C  6E1E               	movwf	___fladd@a^0,c
  3304   00160E  0E00               	movlw	0
  3305   001610  6E1F               	movwf	(___fladd@a+1)^0,c
  3306   001612  0E00               	movlw	0
  3307   001614  6E20               	movwf	(___fladd@a+2)^0,c
  3308   001616  0E00               	movlw	0
  3309   001618  6E21               	movwf	(___fladd@a+3)^0,c
  3310   00161A                     l2182:
  3311   00161A  8E20               	bsf	(___fladd@a+2)^0,7,c
  3312   00161C  0E00               	movlw	0
  3313   00161E  6E21               	movwf	(___fladd@a+3)^0,c
  3314   001620  EF1A  F00B         	goto	l2188
  3315   001624                     l2186:
  3316   001624  0E00               	movlw	0
  3317   001626  6E1E               	movwf	___fladd@a^0,c
  3318   001628  0E00               	movlw	0
  3319   00162A  6E1F               	movwf	(___fladd@a+1)^0,c
  3320   00162C  0E00               	movlw	0
  3321   00162E  6E20               	movwf	(___fladd@a+2)^0,c
  3322   001630  0E00               	movlw	0
  3323   001632  6E21               	movwf	(___fladd@a+3)^0,c
  3324   001634                     l2188:
  3325   001634  5028               	movf	___fladd@bexp^0,w,c
  3326   001636  5C27               	subwf	___fladd@aexp^0,w,c
  3327   001638  B0D8               	btfsc	status,0,c
  3328   00163A  EF21  F00B         	goto	u1981
  3329   00163E  EF23  F00B         	goto	u1980
  3330   001642                     u1981:
  3331   001642  EF4A  F00B         	goto	l2224
  3332   001646                     u1980:
  3333   001646  AC26               	btfss	___fladd@signs^0,6,c
  3334   001648  EF28  F00B         	goto	u1991
  3335   00164C  EF2A  F00B         	goto	u1990
  3336   001650                     u1991:
  3337   001650  EF2C  F00B         	goto	l2194
  3338   001654                     u1990:
  3339   001654  0E80               	movlw	128
  3340   001656  1A26               	xorwf	___fladd@signs^0,f,c
  3341   001658                     l2194:
  3342   001658  C028  F029         	movff	___fladd@bexp,___fladd@grs
  3343   00165C  C027  F028         	movff	___fladd@aexp,___fladd@bexp
  3344   001660  C029  F027         	movff	___fladd@grs,___fladd@aexp
  3345   001664  C01A  F029         	movff	___fladd@b,___fladd@grs
  3346   001668  C01E  F01A         	movff	___fladd@a,___fladd@b
  3347   00166C  C029  F01E         	movff	___fladd@grs,___fladd@a
  3348   001670  C01B  F029         	movff	___fladd@b+1,___fladd@grs
  3349   001674  C01F  F01B         	movff	___fladd@a+1,___fladd@b+1
  3350   001678  C029  F01F         	movff	___fladd@grs,___fladd@a+1
  3351   00167C  C01C  F029         	movff	___fladd@b+2,___fladd@grs
  3352   001680  C020  F01C         	movff	___fladd@a+2,___fladd@b+2
  3353   001684  C029  F020         	movff	___fladd@grs,___fladd@a+2
  3354   001688  C01D  F029         	movff	___fladd@b+3,___fladd@grs
  3355   00168C  C021  F01D         	movff	___fladd@a+3,___fladd@b+3
  3356   001690  C029  F021         	movff	___fladd@grs,___fladd@a+3
  3357   001694                     l2224:
  3358   001694  0E00               	movlw	0
  3359   001696  6E29               	movwf	___fladd@grs^0,c
  3360   001698  5028               	movf	___fladd@bexp^0,w,c
  3361   00169A  C027  F022         	movff	___fladd@aexp,??___fladd
  3362   00169E  6A23               	clrf	(??___fladd+1)^0,c
  3363   0016A0  5E22               	subwf	??___fladd^0,f,c
  3364   0016A2  0E00               	movlw	0
  3365   0016A4  5A23               	subwfb	(??___fladd+1)^0,f,c
  3366   0016A6  BE23               	btfsc	(??___fladd+1)^0,7,c
  3367   0016A8  EF5F  F00B         	goto	u2001
  3368   0016AC  5023               	movf	(??___fladd+1)^0,w,c
  3369   0016AE  E109               	bnz	u2000
  3370   0016B0  0E1A               	movlw	26
  3371   0016B2  5C22               	subwf	??___fladd^0,w,c
  3372   0016B4  A0D8               	btfss	status,0,c
  3373   0016B6  EF5F  F00B         	goto	u2001
  3374   0016BA  EF61  F00B         	goto	u2000
  3375   0016BE                     u2001:
  3376   0016BE  EF98  F00B         	goto	l756
  3377   0016C2                     u2000:
  3378   0016C2  501A               	movf	___fladd@b^0,w,c
  3379   0016C4  101B               	iorwf	(___fladd@b+1)^0,w,c
  3380   0016C6  101C               	iorwf	(___fladd@b+2)^0,w,c
  3381   0016C8  101D               	iorwf	(___fladd@b+3)^0,w,c
  3382   0016CA  A4D8               	btfss	status,2,c
  3383   0016CC  EF6A  F00B         	goto	u2011
  3384   0016D0  EF6D  F00B         	goto	u2010
  3385   0016D4                     u2011:
  3386   0016D4  0E01               	movlw	1
  3387   0016D6  EF6E  F00B         	goto	u2020
  3388   0016DA                     u2010:
  3389   0016DA  0E00               	movlw	0
  3390   0016DC                     u2020:
  3391   0016DC  6E29               	movwf	___fladd@grs^0,c
  3392   0016DE  0E00               	movlw	0
  3393   0016E0  6E1A               	movwf	___fladd@b^0,c
  3394   0016E2  0E00               	movlw	0
  3395   0016E4  6E1B               	movwf	(___fladd@b+1)^0,c
  3396   0016E6  0E00               	movlw	0
  3397   0016E8  6E1C               	movwf	(___fladd@b+2)^0,c
  3398   0016EA  0E00               	movlw	0
  3399   0016EC  6E1D               	movwf	(___fladd@b+3)^0,c
  3400   0016EE  C027  F028         	movff	___fladd@aexp,___fladd@bexp
  3401   0016F2  EFA1  F00B         	goto	l755
  3402   0016F6                     l757:
  3403   0016F6  A029               	btfss	___fladd@grs^0,0,c
  3404   0016F8  EF80  F00B         	goto	u2031
  3405   0016FC  EF82  F00B         	goto	u2030
  3406   001700                     u2031:
  3407   001700  EF88  F00B         	goto	l2236
  3408   001704                     u2030:
  3409   001704  90D8               	bcf	status,0,c
  3410   001706  3029               	rrcf	___fladd@grs^0,w,c
  3411   001708  0901               	iorlw	1
  3412   00170A  6E29               	movwf	___fladd@grs^0,c
  3413   00170C  EF8A  F00B         	goto	l2238
  3414   001710                     l2236:
  3415   001710  90D8               	bcf	status,0,c
  3416   001712  3229               	rrcf	___fladd@grs^0,f,c
  3417   001714                     l2238:
  3418   001714  A01A               	btfss	___fladd@b^0,0,c
  3419   001716  EF8F  F00B         	goto	u2041
  3420   00171A  EF91  F00B         	goto	u2040
  3421   00171E                     u2041:
  3422   00171E  EF92  F00B         	goto	l2242
  3423   001722                     u2040:
  3424   001722  8E29               	bsf	___fladd@grs^0,7,c
  3425   001724                     l2242:
  3426   001724  341D               	rlcf	(___fladd@b+3)^0,w,c
  3427   001726  321D               	rrcf	(___fladd@b+3)^0,f,c
  3428   001728  321C               	rrcf	(___fladd@b+2)^0,f,c
  3429   00172A  321B               	rrcf	(___fladd@b+1)^0,f,c
  3430   00172C  321A               	rrcf	___fladd@b^0,f,c
  3431   00172E  2A28               	incf	___fladd@bexp^0,f,c
  3432   001730                     l756:
  3433   001730  5027               	movf	___fladd@aexp^0,w,c
  3434   001732  5C28               	subwf	___fladd@bexp^0,w,c
  3435   001734  A0D8               	btfss	status,0,c
  3436   001736  EF9F  F00B         	goto	u2051
  3437   00173A  EFA1  F00B         	goto	u2050
  3438   00173E                     u2051:
  3439   00173E  EF7B  F00B         	goto	l757
  3440   001742                     u2050:
  3441   001742                     l755:
  3442   001742  BC26               	btfsc	___fladd@signs^0,6,c
  3443   001744  EFA6  F00B         	goto	u2061
  3444   001748  EFA8  F00B         	goto	u2060
  3445   00174C                     u2061:
  3446   00174C  EFE8  F00B         	goto	l2270
  3447   001750                     u2060:
  3448   001750  5028               	movf	___fladd@bexp^0,w,c
  3449   001752  A4D8               	btfss	status,2,c
  3450   001754  EFAE  F00B         	goto	u2071
  3451   001758  EFB0  F00B         	goto	u2070
  3452   00175C                     u2071:
  3453   00175C  EFBA  F00B         	goto	l2252
  3454   001760                     u2070:
  3455   001760  0E00               	movlw	0
  3456   001762  6E1A               	movwf	?___fladd^0,c
  3457   001764  0E00               	movlw	0
  3458   001766  6E1B               	movwf	(?___fladd+1)^0,c
  3459   001768  0E00               	movlw	0
  3460   00176A  6E1C               	movwf	(?___fladd+2)^0,c
  3461   00176C  0E00               	movlw	0
  3462   00176E  6E1D               	movwf	(?___fladd+3)^0,c
  3463   001770  EF09  F00D         	goto	l764
  3464   001774                     l2252:
  3465   001774  501E               	movf	___fladd@a^0,w,c
  3466   001776  261A               	addwf	___fladd@b^0,f,c
  3467   001778  501F               	movf	(___fladd@a+1)^0,w,c
  3468   00177A  221B               	addwfc	(___fladd@b+1)^0,f,c
  3469   00177C  5020               	movf	(___fladd@a+2)^0,w,c
  3470   00177E  221C               	addwfc	(___fladd@b+2)^0,f,c
  3471   001780  5021               	movf	(___fladd@a+3)^0,w,c
  3472   001782  221D               	addwfc	(___fladd@b+3)^0,f,c
  3473   001784  A01D               	btfss	(___fladd@b+3)^0,0,c
  3474   001786  EFC7  F00B         	goto	u2081
  3475   00178A  EFC9  F00B         	goto	u2080
  3476   00178E                     u2081:
  3477   00178E  EF75  F00C         	goto	l2306
  3478   001792                     u2080:
  3479   001792  A029               	btfss	___fladd@grs^0,0,c
  3480   001794  EFCE  F00B         	goto	u2091
  3481   001798  EFD0  F00B         	goto	u2090
  3482   00179C                     u2091:
  3483   00179C  EFD6  F00B         	goto	l2260
  3484   0017A0                     u2090:
  3485   0017A0  90D8               	bcf	status,0,c
  3486   0017A2  3029               	rrcf	___fladd@grs^0,w,c
  3487   0017A4  0901               	iorlw	1
  3488   0017A6  6E29               	movwf	___fladd@grs^0,c
  3489   0017A8  EFD8  F00B         	goto	l2262
  3490   0017AC                     l2260:
  3491   0017AC  90D8               	bcf	status,0,c
  3492   0017AE  3229               	rrcf	___fladd@grs^0,f,c
  3493   0017B0                     l2262:
  3494   0017B0  A01A               	btfss	___fladd@b^0,0,c
  3495   0017B2  EFDD  F00B         	goto	u2101
  3496   0017B6  EFDF  F00B         	goto	u2100
  3497   0017BA                     u2101:
  3498   0017BA  EFE0  F00B         	goto	l2266
  3499   0017BE                     u2100:
  3500   0017BE  8E29               	bsf	___fladd@grs^0,7,c
  3501   0017C0                     l2266:
  3502   0017C0  341D               	rlcf	(___fladd@b+3)^0,w,c
  3503   0017C2  321D               	rrcf	(___fladd@b+3)^0,f,c
  3504   0017C4  321C               	rrcf	(___fladd@b+2)^0,f,c
  3505   0017C6  321B               	rrcf	(___fladd@b+1)^0,f,c
  3506   0017C8  321A               	rrcf	___fladd@b^0,f,c
  3507   0017CA  2A28               	incf	___fladd@bexp^0,f,c
  3508   0017CC  EF75  F00C         	goto	l2306
  3509   0017D0                     l2270:
  3510   0017D0  501E               	movf	___fladd@a^0,w,c
  3511   0017D2  5C1A               	subwf	___fladd@b^0,w,c
  3512   0017D4  501F               	movf	(___fladd@a+1)^0,w,c
  3513   0017D6  581B               	subwfb	(___fladd@b+1)^0,w,c
  3514   0017D8  5020               	movf	(___fladd@a+2)^0,w,c
  3515   0017DA  581C               	subwfb	(___fladd@b+2)^0,w,c
  3516   0017DC  501D               	movf	(___fladd@b+3)^0,w,c
  3517   0017DE  0A80               	xorlw	128
  3518   0017E0  6E22               	movwf	??___fladd^0,c
  3519   0017E2  5021               	movf	(___fladd@a+3)^0,w,c
  3520   0017E4  0A80               	xorlw	128
  3521   0017E6  5822               	subwfb	??___fladd^0,w,c
  3522   0017E8  B0D8               	btfsc	status,0,c
  3523   0017EA  EFF9  F00B         	goto	u2111
  3524   0017EE  EFFB  F00B         	goto	u2110
  3525   0017F2                     u2111:
  3526   0017F2  EF26  F00C         	goto	l2280
  3527   0017F6                     u2110:
  3528   0017F6  501A               	movf	___fladd@b^0,w,c
  3529   0017F8  5C1E               	subwf	___fladd@a^0,w,c
  3530   0017FA  6E22               	movwf	??___fladd^0,c
  3531   0017FC  501B               	movf	(___fladd@b+1)^0,w,c
  3532   0017FE  581F               	subwfb	(___fladd@a+1)^0,w,c
  3533   001800  6E23               	movwf	(??___fladd+1)^0,c
  3534   001802  501C               	movf	(___fladd@b+2)^0,w,c
  3535   001804  5820               	subwfb	(___fladd@a+2)^0,w,c
  3536   001806  6E24               	movwf	(??___fladd+2)^0,c
  3537   001808  501D               	movf	(___fladd@b+3)^0,w,c
  3538   00180A  5821               	subwfb	(___fladd@a+3)^0,w,c
  3539   00180C  6E25               	movwf	(??___fladd+3)^0,c
  3540   00180E  0EFF               	movlw	255
  3541   001810  2422               	addwf	??___fladd^0,w,c
  3542   001812  6E1A               	movwf	___fladd@b^0,c
  3543   001814  0EFF               	movlw	255
  3544   001816  2023               	addwfc	(??___fladd+1)^0,w,c
  3545   001818  6E1B               	movwf	(___fladd@b+1)^0,c
  3546   00181A  0EFF               	movlw	255
  3547   00181C  2024               	addwfc	(??___fladd+2)^0,w,c
  3548   00181E  6E1C               	movwf	(___fladd@b+2)^0,c
  3549   001820  0EFF               	movlw	255
  3550   001822  2025               	addwfc	(??___fladd+3)^0,w,c
  3551   001824  6E1D               	movwf	(___fladd@b+3)^0,c
  3552   001826  0E80               	movlw	128
  3553   001828  1A26               	xorwf	___fladd@signs^0,f,c
  3554   00182A  6C29               	negf	___fladd@grs^0,c
  3555   00182C  5029               	movf	___fladd@grs^0,w,c
  3556   00182E  A4D8               	btfss	status,2,c
  3557   001830  EF1C  F00C         	goto	u2121
  3558   001834  EF1E  F00C         	goto	u2120
  3559   001838                     u2121:
  3560   001838  EF2E  F00C         	goto	l772
  3561   00183C                     u2120:
  3562   00183C  0E01               	movlw	1
  3563   00183E  261A               	addwf	___fladd@b^0,f,c
  3564   001840  0E00               	movlw	0
  3565   001842  221B               	addwfc	(___fladd@b+1)^0,f,c
  3566   001844  221C               	addwfc	(___fladd@b+2)^0,f,c
  3567   001846  221D               	addwfc	(___fladd@b+3)^0,f,c
  3568   001848  EF2E  F00C         	goto	l772
  3569   00184C                     l2280:
  3570   00184C  501E               	movf	___fladd@a^0,w,c
  3571   00184E  5E1A               	subwf	___fladd@b^0,f,c
  3572   001850  501F               	movf	(___fladd@a+1)^0,w,c
  3573   001852  5A1B               	subwfb	(___fladd@b+1)^0,f,c
  3574   001854  5020               	movf	(___fladd@a+2)^0,w,c
  3575   001856  5A1C               	subwfb	(___fladd@b+2)^0,f,c
  3576   001858  5021               	movf	(___fladd@a+3)^0,w,c
  3577   00185A  5A1D               	subwfb	(___fladd@b+3)^0,f,c
  3578   00185C                     l772:
  3579   00185C  501A               	movf	___fladd@b^0,w,c
  3580   00185E  101B               	iorwf	(___fladd@b+1)^0,w,c
  3581   001860  101C               	iorwf	(___fladd@b+2)^0,w,c
  3582   001862  101D               	iorwf	(___fladd@b+3)^0,w,c
  3583   001864  A4D8               	btfss	status,2,c
  3584   001866  EF37  F00C         	goto	u2131
  3585   00186A  EF39  F00C         	goto	u2130
  3586   00186E                     u2131:
  3587   00186E  EF6E  F00C         	goto	l2304
  3588   001872                     u2130:
  3589   001872  5029               	movf	___fladd@grs^0,w,c
  3590   001874  A4D8               	btfss	status,2,c
  3591   001876  EF3F  F00C         	goto	u2141
  3592   00187A  EF41  F00C         	goto	u2140
  3593   00187E                     u2141:
  3594   00187E  EF6E  F00C         	goto	l2304
  3595   001882                     u2140:
  3596   001882  0E00               	movlw	0
  3597   001884  6E1A               	movwf	?___fladd^0,c
  3598   001886  0E00               	movlw	0
  3599   001888  6E1B               	movwf	(?___fladd+1)^0,c
  3600   00188A  0E00               	movlw	0
  3601   00188C  6E1C               	movwf	(?___fladd+2)^0,c
  3602   00188E  0E00               	movlw	0
  3603   001890  6E1D               	movwf	(?___fladd+3)^0,c
  3604   001892  EF09  F00D         	goto	l764
  3605   001896                     l2288:
  3606   001896  90D8               	bcf	status,0,c
  3607   001898  361A               	rlcf	___fladd@b^0,f,c
  3608   00189A  361B               	rlcf	(___fladd@b+1)^0,f,c
  3609   00189C  361C               	rlcf	(___fladd@b+2)^0,f,c
  3610   00189E  361D               	rlcf	(___fladd@b+3)^0,f,c
  3611   0018A0  AE29               	btfss	___fladd@grs^0,7,c
  3612   0018A2  EF55  F00C         	goto	u2151
  3613   0018A6  EF57  F00C         	goto	u2150
  3614   0018AA                     u2151:
  3615   0018AA  EF58  F00C         	goto	l2294
  3616   0018AE                     u2150:
  3617   0018AE  801A               	bsf	___fladd@b^0,0,c
  3618   0018B0                     l2294:
  3619   0018B0  A029               	btfss	___fladd@grs^0,0,c
  3620   0018B2  EF5D  F00C         	goto	u2161
  3621   0018B6  EF5F  F00C         	goto	u2160
  3622   0018BA                     u2161:
  3623   0018BA  EF63  F00C         	goto	l2298
  3624   0018BE                     u2160:
  3625   0018BE  80D8               	bsf	status,0,c
  3626   0018C0  3629               	rlcf	___fladd@grs^0,f,c
  3627   0018C2  EF65  F00C         	goto	l2300
  3628   0018C6                     l2298:
  3629   0018C6  90D8               	bcf	status,0,c
  3630   0018C8  3629               	rlcf	___fladd@grs^0,f,c
  3631   0018CA                     l2300:
  3632   0018CA  5028               	movf	___fladd@bexp^0,w,c
  3633   0018CC  B4D8               	btfsc	status,2,c
  3634   0018CE  EF6B  F00C         	goto	u2171
  3635   0018D2  EF6D  F00C         	goto	u2170
  3636   0018D6                     u2171:
  3637   0018D6  EF6E  F00C         	goto	l2304
  3638   0018DA                     u2170:
  3639   0018DA  0628               	decf	___fladd@bexp^0,f,c
  3640   0018DC                     l2304:
  3641   0018DC  AE1C               	btfss	(___fladd@b+2)^0,7,c
  3642   0018DE  EF73  F00C         	goto	u2181
  3643   0018E2  EF75  F00C         	goto	u2180
  3644   0018E6                     u2181:
  3645   0018E6  EF4B  F00C         	goto	l2288
  3646   0018EA                     u2180:
  3647   0018EA                     l2306:
  3648   0018EA  0E00               	movlw	0
  3649   0018EC  6E27               	movwf	___fladd@aexp^0,c
  3650   0018EE  AE29               	btfss	___fladd@grs^0,7,c
  3651   0018F0  EF7C  F00C         	goto	u2191
  3652   0018F4  EF7E  F00C         	goto	u2190
  3653   0018F8                     u2191:
  3654   0018F8  EF96  F00C         	goto	l781
  3655   0018FC                     u2190:
  3656   0018FC  C029  F022         	movff	___fladd@grs,??___fladd
  3657   001900  0E7F               	movlw	127
  3658   001902  1622               	andwf	??___fladd^0,f,c
  3659   001904  B4D8               	btfsc	status,2,c
  3660   001906  EF87  F00C         	goto	u2201
  3661   00190A  EF89  F00C         	goto	u2200
  3662   00190E                     u2201:
  3663   00190E  EF8D  F00C         	goto	l782
  3664   001912                     u2200:
  3665   001912                     l2312:
  3666   001912  0E01               	movlw	1
  3667   001914  6E27               	movwf	___fladd@aexp^0,c
  3668   001916  EF96  F00C         	goto	l781
  3669   00191A                     l782:
  3670   00191A  A01A               	btfss	___fladd@b^0,0,c
  3671   00191C  EF92  F00C         	goto	u2211
  3672   001920  EF94  F00C         	goto	u2210
  3673   001924                     u2211:
  3674   001924  EF96  F00C         	goto	l781
  3675   001928                     u2210:
  3676   001928  EF89  F00C         	goto	l2312
  3677   00192C                     l781:
  3678   00192C  5027               	movf	___fladd@aexp^0,w,c
  3679   00192E  B4D8               	btfsc	status,2,c
  3680   001930  EF9C  F00C         	goto	u2221
  3681   001934  EF9E  F00C         	goto	u2220
  3682   001938                     u2221:
  3683   001938  EFC9  F00C         	goto	l2324
  3684   00193C                     u2220:
  3685   00193C  0E01               	movlw	1
  3686   00193E  261A               	addwf	___fladd@b^0,f,c
  3687   001940  0E00               	movlw	0
  3688   001942  221B               	addwfc	(___fladd@b+1)^0,f,c
  3689   001944  221C               	addwfc	(___fladd@b+2)^0,f,c
  3690   001946  221D               	addwfc	(___fladd@b+3)^0,f,c
  3691   001948  A01D               	btfss	(___fladd@b+3)^0,0,c
  3692   00194A  EFA9  F00C         	goto	u2231
  3693   00194E  EFAB  F00C         	goto	u2230
  3694   001952                     u2231:
  3695   001952  EFC9  F00C         	goto	l2324
  3696   001956                     u2230:
  3697   001956  C01A  F022         	movff	___fladd@b,??___fladd
  3698   00195A  C01B  F023         	movff	___fladd@b+1,??___fladd+1
  3699   00195E  C01C  F024         	movff	___fladd@b+2,??___fladd+2
  3700   001962  C01D  F025         	movff	___fladd@b+3,??___fladd+3
  3701   001966  3425               	rlcf	(??___fladd+3)^0,w,c
  3702   001968  3225               	rrcf	(??___fladd+3)^0,f,c
  3703   00196A  3224               	rrcf	(??___fladd+2)^0,f,c
  3704   00196C  3223               	rrcf	(??___fladd+1)^0,f,c
  3705   00196E  3222               	rrcf	??___fladd^0,f,c
  3706   001970  C022  F01A         	movff	??___fladd,___fladd@b
  3707   001974  C023  F01B         	movff	??___fladd+1,___fladd@b+1
  3708   001978  C024  F01C         	movff	??___fladd+2,___fladd@b+2
  3709   00197C  C025  F01D         	movff	??___fladd+3,___fladd@b+3
  3710   001980  2828               	incf	___fladd@bexp^0,w,c
  3711   001982  B4D8               	btfsc	status,2,c
  3712   001984  EFC6  F00C         	goto	u2241
  3713   001988  EFC8  F00C         	goto	u2240
  3714   00198C                     u2241:
  3715   00198C  EFC9  F00C         	goto	l2324
  3716   001990                     u2240:
  3717   001990  2A28               	incf	___fladd@bexp^0,f,c
  3718   001992                     l2324:
  3719   001992  2828               	incf	___fladd@bexp^0,w,c
  3720   001994  B4D8               	btfsc	status,2,c
  3721   001996  EFCF  F00C         	goto	u2251
  3722   00199A  EFD1  F00C         	goto	u2250
  3723   00199E                     u2251:
  3724   00199E  EFD9  F00C         	goto	l2328
  3725   0019A2                     u2250:
  3726   0019A2  5028               	movf	___fladd@bexp^0,w,c
  3727   0019A4  A4D8               	btfss	status,2,c
  3728   0019A6  EFD7  F00C         	goto	u2261
  3729   0019AA  EFD9  F00C         	goto	u2260
  3730   0019AE                     u2261:
  3731   0019AE  EFEB  F00C         	goto	l2332
  3732   0019B2                     u2260:
  3733   0019B2                     l2328:
  3734   0019B2  0E00               	movlw	0
  3735   0019B4  6E1A               	movwf	___fladd@b^0,c
  3736   0019B6  0E00               	movlw	0
  3737   0019B8  6E1B               	movwf	(___fladd@b+1)^0,c
  3738   0019BA  0E00               	movlw	0
  3739   0019BC  6E1C               	movwf	(___fladd@b+2)^0,c
  3740   0019BE  0E00               	movlw	0
  3741   0019C0  6E1D               	movwf	(___fladd@b+3)^0,c
  3742   0019C2  5028               	movf	___fladd@bexp^0,w,c
  3743   0019C4  A4D8               	btfss	status,2,c
  3744   0019C6  EFE7  F00C         	goto	u2271
  3745   0019CA  EFE9  F00C         	goto	u2270
  3746   0019CE                     u2271:
  3747   0019CE  EFEB  F00C         	goto	l2332
  3748   0019D2                     u2270:
  3749   0019D2  0E00               	movlw	0
  3750   0019D4  6E26               	movwf	___fladd@signs^0,c
  3751   0019D6                     l2332:
  3752   0019D6  A028               	btfss	___fladd@bexp^0,0,c
  3753   0019D8  EFF0  F00C         	goto	u2281
  3754   0019DC  EFF2  F00C         	goto	u2280
  3755   0019E0                     u2281:
  3756   0019E0  EFF5  F00C         	goto	l2336
  3757   0019E4                     u2280:
  3758   0019E4  8E1C               	bsf	(___fladd@b+2)^0,7,c
  3759   0019E6  EFF6  F00C         	goto	l2338
  3760   0019EA                     l2336:
  3761   0019EA  9E1C               	bcf	(___fladd@b+2)^0,7,c
  3762   0019EC                     l2338:
  3763   0019EC  90D8               	bcf	status,0,c
  3764   0019EE  3028               	rrcf	___fladd@bexp^0,w,c
  3765   0019F0  6E1D               	movwf	(___fladd@b+3)^0,c
  3766   0019F2  AE26               	btfss	___fladd@signs^0,7,c
  3767   0019F4  EFFE  F00C         	goto	u2291
  3768   0019F8  EF00  F00D         	goto	u2290
  3769   0019FC                     u2291:
  3770   0019FC  EF01  F00D         	goto	l2344
  3771   001A00                     u2290:
  3772   001A00  8E1D               	bsf	(___fladd@b+3)^0,7,c
  3773   001A02                     l2344:
  3774   001A02  C01A  F01A         	movff	___fladd@b,?___fladd
  3775   001A06  C01B  F01B         	movff	___fladd@b+1,?___fladd+1
  3776   001A0A  C01C  F01C         	movff	___fladd@b+2,?___fladd+2
  3777   001A0E  C01D  F01D         	movff	___fladd@b+3,?___fladd+3
  3778   001A12                     l764:
  3779   001A12  0012               	return		;funcret
  3780   001A14                     __end_of___fladd:
  3781                           	callstack 0
  3782                           
  3783 ;; *************** function ___flmul *****************
  3784 ;; Defined at:
  3785 ;;		line 8 in file "C:\Program Files\Microchip\xc8\v2.40\pic\sources\c99\common\sprcmul.c"
  3786 ;; Parameters:    Size  Location     Type
  3787 ;;  b               4   74[COMRAM] unsigned char 
  3788 ;;  a               4   78[COMRAM] unsigned char 
  3789 ;; Auto vars:     Size  Location     Type
  3790 ;;  prod            4    7[BANK0 ] struct .
  3791 ;;  grs             4    1[BANK0 ] unsigned long 
  3792 ;;  temp            2   11[BANK0 ] struct .
  3793 ;;  bexp            1    6[BANK0 ] unsigned char 
  3794 ;;  aexp            1    5[BANK0 ] unsigned char 
  3795 ;;  sign            1    0[BANK0 ] unsigned char 
  3796 ;; Return value:  Size  Location     Type
  3797 ;;                  4   74[COMRAM] unsigned char 
  3798 ;; Registers used:
  3799 ;;		wreg, status,2, status,0, prodl, prodh
  3800 ;; Tracked objects:
  3801 ;;		On entry : 0/0
  3802 ;;		On exit  : 0/0
  3803 ;;		Unchanged: 0/0
  3804 ;; Data sizes:     COMRAM   BANK0   BANK1   BANK2   BANK3   BANK4   BANK5   BANK6   BANK7   BANK8   BANK9  BANK10  BANK1
      +1  BANK12  BANK13
  3805 ;;      Params:         8       0       0       0       0       0       0       0       0       0       0       0       
      +0       0       0
  3806 ;;      Locals:         0      13       0       0       0       0       0       0       0       0       0       0       
      +0       0       0
  3807 ;;      Temps:          4       0       0       0       0       0       0       0       0       0       0       0       
      +0       0       0
  3808 ;;      Totals:        12      13       0       0       0       0       0       0       0       0       0       0       
      +0       0       0
  3809 ;;Total ram usage:       25 bytes
  3810 ;; Hardware stack levels used: 1
  3811 ;; This function calls:
  3812 ;;		Nothing
  3813 ;; This function is called by:
  3814 ;;		_RGB2Hue
  3815 ;; This function uses a non-reentrant model
  3816 ;;
  3817                           
  3818                           	psect	text21
  3819   001E62                     __ptext21:
  3820                           	callstack 0
  3821   001E62                     ___flmul:
  3822                           	callstack 29
  3823   001E62  504E               	movf	(___flmul@b+3)^0,w,c
  3824   001E64  0B80               	andlw	128
  3825   001E66  0100               	movlb	0	; () banked
  3826   001E68  6F60               	movwf	___flmul@sign& (0+255),b
  3827   001E6A  504E               	movf	(___flmul@b+3)^0,w,c
  3828   001E6C  244E               	addwf	(___flmul@b+3)^0,w,c
  3829   001E6E  6F66               	movwf	___flmul@bexp& (0+255),b
  3830   001E70                     
  3831                           ; BSR set to: 0
  3832   001E70  AE4D               	btfss	(___flmul@b+2)^0,7,c
  3833   001E72  EF3D  F00F         	goto	u2761
  3834   001E76  EF3F  F00F         	goto	u2760
  3835   001E7A                     u2761:
  3836   001E7A  EF40  F00F         	goto	l2636
  3837   001E7E                     u2760:
  3838   001E7E                     
  3839                           ; BSR set to: 0
  3840   001E7E  8166               	bsf	___flmul@bexp& (0+255),0,b
  3841   001E80                     l2636:
  3842                           
  3843                           ; BSR set to: 0
  3844   001E80  5166               	movf	___flmul@bexp& (0+255),w,b
  3845   001E82  B4D8               	btfsc	status,2,c
  3846   001E84  EF46  F00F         	goto	u2771
  3847   001E88  EF48  F00F         	goto	u2770
  3848   001E8C                     u2771:
  3849   001E8C  EF5B  F00F         	goto	l2644
  3850   001E90                     u2770:
  3851   001E90                     
  3852                           ; BSR set to: 0
  3853   001E90  2966               	incf	___flmul@bexp& (0+255),w,b
  3854   001E92  A4D8               	btfss	status,2,c
  3855   001E94  EF4E  F00F         	goto	u2781
  3856   001E98  EF50  F00F         	goto	u2780
  3857   001E9C                     u2781:
  3858   001E9C  EF58  F00F         	goto	l2642
  3859   001EA0                     u2780:
  3860   001EA0                     
  3861                           ; BSR set to: 0
  3862   001EA0  0E00               	movlw	0
  3863   001EA2  6E4B               	movwf	___flmul@b^0,c
  3864   001EA4  0E00               	movlw	0
  3865   001EA6  6E4C               	movwf	(___flmul@b+1)^0,c
  3866   001EA8  0E00               	movlw	0
  3867   001EAA  6E4D               	movwf	(___flmul@b+2)^0,c
  3868   001EAC  0E00               	movlw	0
  3869   001EAE  6E4E               	movwf	(___flmul@b+3)^0,c
  3870   001EB0                     l2642:
  3871                           
  3872                           ; BSR set to: 0
  3873   001EB0  8E4D               	bsf	(___flmul@b+2)^0,7,c
  3874   001EB2  EF63  F00F         	goto	l2646
  3875   001EB6                     l2644:
  3876                           
  3877                           ; BSR set to: 0
  3878   001EB6  0E00               	movlw	0
  3879   001EB8  6E4B               	movwf	___flmul@b^0,c
  3880   001EBA  0E00               	movlw	0
  3881   001EBC  6E4C               	movwf	(___flmul@b+1)^0,c
  3882   001EBE  0E00               	movlw	0
  3883   001EC0  6E4D               	movwf	(___flmul@b+2)^0,c
  3884   001EC2  0E00               	movlw	0
  3885   001EC4  6E4E               	movwf	(___flmul@b+3)^0,c
  3886   001EC6                     l2646:
  3887                           
  3888                           ; BSR set to: 0
  3889   001EC6  5052               	movf	(___flmul@a+3)^0,w,c
  3890   001EC8  0B80               	andlw	128
  3891   001ECA  1B60               	xorwf	___flmul@sign& (0+255),f,b
  3892   001ECC                     
  3893                           ; BSR set to: 0
  3894   001ECC  5052               	movf	(___flmul@a+3)^0,w,c
  3895   001ECE  2452               	addwf	(___flmul@a+3)^0,w,c
  3896   001ED0  6F65               	movwf	___flmul@aexp& (0+255),b
  3897   001ED2                     
  3898                           ; BSR set to: 0
  3899   001ED2  AE51               	btfss	(___flmul@a+2)^0,7,c
  3900   001ED4  EF6E  F00F         	goto	u2791
  3901   001ED8  EF70  F00F         	goto	u2790
  3902   001EDC                     u2791:
  3903   001EDC  EF71  F00F         	goto	l2654
  3904   001EE0                     u2790:
  3905   001EE0                     
  3906                           ; BSR set to: 0
  3907   001EE0  8165               	bsf	___flmul@aexp& (0+255),0,b
  3908   001EE2                     l2654:
  3909                           
  3910                           ; BSR set to: 0
  3911   001EE2  5165               	movf	___flmul@aexp& (0+255),w,b
  3912   001EE4  B4D8               	btfsc	status,2,c
  3913   001EE6  EF77  F00F         	goto	u2801
  3914   001EEA  EF79  F00F         	goto	u2800
  3915   001EEE                     u2801:
  3916   001EEE  EF8C  F00F         	goto	l2662
  3917   001EF2                     u2800:
  3918   001EF2                     
  3919                           ; BSR set to: 0
  3920   001EF2  2965               	incf	___flmul@aexp& (0+255),w,b
  3921   001EF4  A4D8               	btfss	status,2,c
  3922   001EF6  EF7F  F00F         	goto	u2811
  3923   001EFA  EF81  F00F         	goto	u2810
  3924   001EFE                     u2811:
  3925   001EFE  EF89  F00F         	goto	l2660
  3926   001F02                     u2810:
  3927   001F02                     
  3928                           ; BSR set to: 0
  3929   001F02  0E00               	movlw	0
  3930   001F04  6E4F               	movwf	___flmul@a^0,c
  3931   001F06  0E00               	movlw	0
  3932   001F08  6E50               	movwf	(___flmul@a+1)^0,c
  3933   001F0A  0E00               	movlw	0
  3934   001F0C  6E51               	movwf	(___flmul@a+2)^0,c
  3935   001F0E  0E00               	movlw	0
  3936   001F10  6E52               	movwf	(___flmul@a+3)^0,c
  3937   001F12                     l2660:
  3938                           
  3939                           ; BSR set to: 0
  3940   001F12  8E51               	bsf	(___flmul@a+2)^0,7,c
  3941   001F14  EF94  F00F         	goto	l841
  3942   001F18                     l2662:
  3943                           
  3944                           ; BSR set to: 0
  3945   001F18  0E00               	movlw	0
  3946   001F1A  6E4F               	movwf	___flmul@a^0,c
  3947   001F1C  0E00               	movlw	0
  3948   001F1E  6E50               	movwf	(___flmul@a+1)^0,c
  3949   001F20  0E00               	movlw	0
  3950   001F22  6E51               	movwf	(___flmul@a+2)^0,c
  3951   001F24  0E00               	movlw	0
  3952   001F26  6E52               	movwf	(___flmul@a+3)^0,c
  3953   001F28                     l841:
  3954                           
  3955                           ; BSR set to: 0
  3956   001F28  5165               	movf	___flmul@aexp& (0+255),w,b
  3957   001F2A  B4D8               	btfsc	status,2,c
  3958   001F2C  EF9A  F00F         	goto	u2821
  3959   001F30  EF9C  F00F         	goto	u2820
  3960   001F34                     u2821:
  3961   001F34  EFA4  F00F         	goto	l2666
  3962   001F38                     u2820:
  3963   001F38                     
  3964                           ; BSR set to: 0
  3965   001F38  5166               	movf	___flmul@bexp& (0+255),w,b
  3966   001F3A  A4D8               	btfss	status,2,c
  3967   001F3C  EFA2  F00F         	goto	u2831
  3968   001F40  EFA4  F00F         	goto	u2830
  3969   001F44                     u2831:
  3970   001F44  EFAE  F00F         	goto	l2670
  3971   001F48                     u2830:
  3972   001F48                     l2666:
  3973                           
  3974                           ; BSR set to: 0
  3975   001F48  0E00               	movlw	0
  3976   001F4A  6E4B               	movwf	?___flmul^0,c
  3977   001F4C  0E00               	movlw	0
  3978   001F4E  6E4C               	movwf	(?___flmul+1)^0,c
  3979   001F50  0E00               	movlw	0
  3980   001F52  6E4D               	movwf	(?___flmul+2)^0,c
  3981   001F54  0E00               	movlw	0
  3982   001F56  6E4E               	movwf	(?___flmul+3)^0,c
  3983   001F58  EF46  F011         	goto	l845
  3984   001F5C                     l2670:
  3985                           
  3986                           ; BSR set to: 0
  3987   001F5C  5051               	movf	(___flmul@a+2)^0,w,c
  3988   001F5E  024B               	mulwf	___flmul@b^0,c
  3989   001F60  CFF3 F06B          	movff	prodl,___flmul@temp
  3990   001F64  CFF4 F06C          	movff	prodh,___flmul@temp+1
  3991   001F68                     
  3992                           ; BSR set to: 0
  3993   001F68  516B               	movf	___flmul@temp& (0+255),w,b
  3994   001F6A  6F61               	movwf	___flmul@grs& (0+255),b
  3995   001F6C  6B62               	clrf	(___flmul@grs+1)& (0+255),b
  3996   001F6E  6B63               	clrf	(___flmul@grs+2)& (0+255),b
  3997   001F70  6B64               	clrf	(___flmul@grs+3)& (0+255),b
  3998   001F72                     
  3999                           ; BSR set to: 0
  4000   001F72  516C               	movf	(___flmul@temp+1)& (0+255),w,b
  4001   001F74  6F67               	movwf	___flmul@prod& (0+255),b
  4002   001F76  6B68               	clrf	(___flmul@prod+1)& (0+255),b
  4003   001F78  6B69               	clrf	(___flmul@prod+2)& (0+255),b
  4004   001F7A  6B6A               	clrf	(___flmul@prod+3)& (0+255),b
  4005   001F7C  5050               	movf	(___flmul@a+1)^0,w,c
  4006   001F7E  024C               	mulwf	(___flmul@b+1)^0,c
  4007   001F80  CFF3 F06B          	movff	prodl,___flmul@temp
  4008   001F84  CFF4 F06C          	movff	prodh,___flmul@temp+1
  4009   001F88                     
  4010                           ; BSR set to: 0
  4011   001F88  516B               	movf	___flmul@temp& (0+255),w,b
  4012   001F8A  2761               	addwf	___flmul@grs& (0+255),f,b
  4013   001F8C  0E00               	movlw	0
  4014   001F8E  2362               	addwfc	(___flmul@grs+1)& (0+255),f,b
  4015   001F90  2363               	addwfc	(___flmul@grs+2)& (0+255),f,b
  4016   001F92  2364               	addwfc	(___flmul@grs+3)& (0+255),f,b
  4017   001F94                     
  4018                           ; BSR set to: 0
  4019   001F94  516C               	movf	(___flmul@temp+1)& (0+255),w,b
  4020   001F96  2767               	addwf	___flmul@prod& (0+255),f,b
  4021   001F98  0E00               	movlw	0
  4022   001F9A  2368               	addwfc	(___flmul@prod+1)& (0+255),f,b
  4023   001F9C  2369               	addwfc	(___flmul@prod+2)& (0+255),f,b
  4024   001F9E  236A               	addwfc	(___flmul@prod+3)& (0+255),f,b
  4025   001FA0  504F               	movf	___flmul@a^0,w,c
  4026   001FA2  024D               	mulwf	(___flmul@b+2)^0,c
  4027   001FA4  CFF3 F06B          	movff	prodl,___flmul@temp
  4028   001FA8  CFF4 F06C          	movff	prodh,___flmul@temp+1
  4029   001FAC                     
  4030                           ; BSR set to: 0
  4031   001FAC  516B               	movf	___flmul@temp& (0+255),w,b
  4032   001FAE  2761               	addwf	___flmul@grs& (0+255),f,b
  4033   001FB0  0E00               	movlw	0
  4034   001FB2  2362               	addwfc	(___flmul@grs+1)& (0+255),f,b
  4035   001FB4  2363               	addwfc	(___flmul@grs+2)& (0+255),f,b
  4036   001FB6  2364               	addwfc	(___flmul@grs+3)& (0+255),f,b
  4037   001FB8                     
  4038                           ; BSR set to: 0
  4039   001FB8  516C               	movf	(___flmul@temp+1)& (0+255),w,b
  4040   001FBA  2767               	addwf	___flmul@prod& (0+255),f,b
  4041   001FBC  0E00               	movlw	0
  4042   001FBE  2368               	addwfc	(___flmul@prod+1)& (0+255),f,b
  4043   001FC0  2369               	addwfc	(___flmul@prod+2)& (0+255),f,b
  4044   001FC2  236A               	addwfc	(___flmul@prod+3)& (0+255),f,b
  4045   001FC4                     
  4046                           ; BSR set to: 0
  4047   001FC4  C063  F064         	movff	___flmul@grs+2,___flmul@grs+3
  4048   001FC8  C062  F063         	movff	___flmul@grs+1,___flmul@grs+2
  4049   001FCC  C061  F062         	movff	___flmul@grs,___flmul@grs+1
  4050   001FD0  6B61               	clrf	___flmul@grs& (0+255),b
  4051   001FD2                     
  4052                           ; BSR set to: 0
  4053   001FD2  504F               	movf	___flmul@a^0,w,c
  4054   001FD4  024C               	mulwf	(___flmul@b+1)^0,c
  4055   001FD6  CFF3 F06B          	movff	prodl,___flmul@temp
  4056   001FDA  CFF4 F06C          	movff	prodh,___flmul@temp+1
  4057   001FDE                     
  4058                           ; BSR set to: 0
  4059   001FDE  516B               	movf	___flmul@temp& (0+255),w,b
  4060   001FE0  2761               	addwf	___flmul@grs& (0+255),f,b
  4061   001FE2  516C               	movf	(___flmul@temp+1)& (0+255),w,b
  4062   001FE4  2362               	addwfc	(___flmul@grs+1)& (0+255),f,b
  4063   001FE6  0E00               	movlw	0
  4064   001FE8  2363               	addwfc	(___flmul@grs+2)& (0+255),f,b
  4065   001FEA  0E00               	movlw	0
  4066   001FEC  2364               	addwfc	(___flmul@grs+3)& (0+255),f,b
  4067   001FEE                     
  4068                           ; BSR set to: 0
  4069   001FEE  5050               	movf	(___flmul@a+1)^0,w,c
  4070   001FF0  024B               	mulwf	___flmul@b^0,c
  4071   001FF2  CFF3 F06B          	movff	prodl,___flmul@temp
  4072   001FF6  CFF4 F06C          	movff	prodh,___flmul@temp+1
  4073   001FFA                     
  4074                           ; BSR set to: 0
  4075   001FFA  516B               	movf	___flmul@temp& (0+255),w,b
  4076   001FFC  2761               	addwf	___flmul@grs& (0+255),f,b
  4077   001FFE  516C               	movf	(___flmul@temp+1)& (0+255),w,b
  4078   002000  2362               	addwfc	(___flmul@grs+1)& (0+255),f,b
  4079   002002  0E00               	movlw	0
  4080   002004  2363               	addwfc	(___flmul@grs+2)& (0+255),f,b
  4081   002006  0E00               	movlw	0
  4082   002008  2364               	addwfc	(___flmul@grs+3)& (0+255),f,b
  4083   00200A                     
  4084                           ; BSR set to: 0
  4085   00200A  C063  F064         	movff	___flmul@grs+2,___flmul@grs+3
  4086   00200E  C062  F063         	movff	___flmul@grs+1,___flmul@grs+2
  4087   002012  C061  F062         	movff	___flmul@grs,___flmul@grs+1
  4088   002016  6B61               	clrf	___flmul@grs& (0+255),b
  4089   002018  504F               	movf	___flmul@a^0,w,c
  4090   00201A  024B               	mulwf	___flmul@b^0,c
  4091   00201C  CFF3 F06B          	movff	prodl,___flmul@temp
  4092   002020  CFF4 F06C          	movff	prodh,___flmul@temp+1
  4093   002024                     
  4094                           ; BSR set to: 0
  4095   002024  516B               	movf	___flmul@temp& (0+255),w,b
  4096   002026  2761               	addwf	___flmul@grs& (0+255),f,b
  4097   002028  516C               	movf	(___flmul@temp+1)& (0+255),w,b
  4098   00202A  2362               	addwfc	(___flmul@grs+1)& (0+255),f,b
  4099   00202C  0E00               	movlw	0
  4100   00202E  2363               	addwfc	(___flmul@grs+2)& (0+255),f,b
  4101   002030  0E00               	movlw	0
  4102   002032  2364               	addwfc	(___flmul@grs+3)& (0+255),f,b
  4103   002034                     
  4104                           ; BSR set to: 0
  4105   002034  5051               	movf	(___flmul@a+2)^0,w,c
  4106   002036  024C               	mulwf	(___flmul@b+1)^0,c
  4107   002038  CFF3 F06B          	movff	prodl,___flmul@temp
  4108   00203C  CFF4 F06C          	movff	prodh,___flmul@temp+1
  4109   002040  516B               	movf	___flmul@temp& (0+255),w,b
  4110   002042  2767               	addwf	___flmul@prod& (0+255),f,b
  4111   002044  516C               	movf	(___flmul@temp+1)& (0+255),w,b
  4112   002046  2368               	addwfc	(___flmul@prod+1)& (0+255),f,b
  4113   002048  0E00               	movlw	0
  4114   00204A  2369               	addwfc	(___flmul@prod+2)& (0+255),f,b
  4115   00204C  0E00               	movlw	0
  4116   00204E  236A               	addwfc	(___flmul@prod+3)& (0+255),f,b
  4117   002050                     
  4118                           ; BSR set to: 0
  4119   002050  5050               	movf	(___flmul@a+1)^0,w,c
  4120   002052  024D               	mulwf	(___flmul@b+2)^0,c
  4121   002054  CFF3 F06B          	movff	prodl,___flmul@temp
  4122   002058  CFF4 F06C          	movff	prodh,___flmul@temp+1
  4123   00205C                     
  4124                           ; BSR set to: 0
  4125   00205C  516B               	movf	___flmul@temp& (0+255),w,b
  4126   00205E  2767               	addwf	___flmul@prod& (0+255),f,b
  4127   002060  516C               	movf	(___flmul@temp+1)& (0+255),w,b
  4128   002062  2368               	addwfc	(___flmul@prod+1)& (0+255),f,b
  4129   002064  0E00               	movlw	0
  4130   002066  2369               	addwfc	(___flmul@prod+2)& (0+255),f,b
  4131   002068  0E00               	movlw	0
  4132   00206A  236A               	addwfc	(___flmul@prod+3)& (0+255),f,b
  4133   00206C  5051               	movf	(___flmul@a+2)^0,w,c
  4134   00206E  024D               	mulwf	(___flmul@b+2)^0,c
  4135   002070  CFF3 F06B          	movff	prodl,___flmul@temp
  4136   002074  CFF4 F06C          	movff	prodh,___flmul@temp+1
  4137   002078                     
  4138                           ; BSR set to: 0
  4139   002078  516B               	movf	___flmul@temp& (0+255),w,b
  4140   00207A  6E53               	movwf	??___flmul^0,c
  4141   00207C  516C               	movf	(___flmul@temp+1)& (0+255),w,b
  4142   00207E  6E54               	movwf	(??___flmul+1)^0,c
  4143   002080  6A55               	clrf	(??___flmul+2)^0,c
  4144   002082  6A56               	clrf	(??___flmul+3)^0,c
  4145   002084  C055  F056         	movff	??___flmul+2,??___flmul+3
  4146   002088  C054  F055         	movff	??___flmul+1,??___flmul+2
  4147   00208C  C053  F054         	movff	??___flmul,??___flmul+1
  4148   002090  6A53               	clrf	??___flmul^0,c
  4149   002092  5053               	movf	??___flmul^0,w,c
  4150   002094  2767               	addwf	___flmul@prod& (0+255),f,b
  4151   002096  5054               	movf	(??___flmul+1)^0,w,c
  4152   002098  2368               	addwfc	(___flmul@prod+1)& (0+255),f,b
  4153   00209A  5055               	movf	(??___flmul+2)^0,w,c
  4154   00209C  2369               	addwfc	(___flmul@prod+2)& (0+255),f,b
  4155   00209E  5056               	movf	(??___flmul+3)^0,w,c
  4156   0020A0  236A               	addwfc	(___flmul@prod+3)& (0+255),f,b
  4157   0020A2                     
  4158                           ; BSR set to: 0
  4159   0020A2  C061  F053         	movff	___flmul@grs,??___flmul
  4160   0020A6  C062  F054         	movff	___flmul@grs+1,??___flmul+1
  4161   0020AA  C063  F055         	movff	___flmul@grs+2,??___flmul+2
  4162   0020AE  C064  F056         	movff	___flmul@grs+3,??___flmul+3
  4163   0020B2  0E19               	movlw	25
  4164   0020B4  EF61  F010         	goto	u2840
  4165   0020B8                     u2845:
  4166   0020B8  90D8               	bcf	status,0,c
  4167   0020BA  3256               	rrcf	(??___flmul+3)^0,f,c
  4168   0020BC  3255               	rrcf	(??___flmul+2)^0,f,c
  4169   0020BE  3254               	rrcf	(??___flmul+1)^0,f,c
  4170   0020C0  3253               	rrcf	??___flmul^0,f,c
  4171   0020C2                     u2840:
  4172   0020C2  2EE8               	decfsz	wreg,f,c
  4173   0020C4  EF5C  F010         	goto	u2845
  4174   0020C8  5053               	movf	??___flmul^0,w,c
  4175   0020CA  2767               	addwf	___flmul@prod& (0+255),f,b
  4176   0020CC  5054               	movf	(??___flmul+1)^0,w,c
  4177   0020CE  2368               	addwfc	(___flmul@prod+1)& (0+255),f,b
  4178   0020D0  5055               	movf	(??___flmul+2)^0,w,c
  4179   0020D2  2369               	addwfc	(___flmul@prod+2)& (0+255),f,b
  4180   0020D4  5056               	movf	(??___flmul+3)^0,w,c
  4181   0020D6  236A               	addwfc	(___flmul@prod+3)& (0+255),f,b
  4182   0020D8                     
  4183                           ; BSR set to: 0
  4184   0020D8  C063  F064         	movff	___flmul@grs+2,___flmul@grs+3
  4185   0020DC  C062  F063         	movff	___flmul@grs+1,___flmul@grs+2
  4186   0020E0  C061  F062         	movff	___flmul@grs,___flmul@grs+1
  4187   0020E4  6B61               	clrf	___flmul@grs& (0+255),b
  4188   0020E6                     
  4189                           ; BSR set to: 0
  4190   0020E6  5165               	movf	___flmul@aexp& (0+255),w,b
  4191   0020E8  C066  F053         	movff	___flmul@bexp,??___flmul
  4192   0020EC  6A54               	clrf	(??___flmul+1)^0,c
  4193   0020EE  2653               	addwf	??___flmul^0,f,c
  4194   0020F0  0E00               	movlw	0
  4195   0020F2  2254               	addwfc	(??___flmul+1)^0,f,c
  4196   0020F4  0E82               	movlw	130
  4197   0020F6  2453               	addwf	??___flmul^0,w,c
  4198   0020F8  6F6B               	movwf	___flmul@temp& (0+255),b
  4199   0020FA  0EFF               	movlw	255
  4200   0020FC  2054               	addwfc	(??___flmul+1)^0,w,c
  4201   0020FE  6F6C               	movwf	(___flmul@temp+1)& (0+255),b
  4202   002100  EF97  F010         	goto	l2718
  4203   002104                     l2712:
  4204                           
  4205                           ; BSR set to: 0
  4206   002104  90D8               	bcf	status,0,c
  4207   002106  3767               	rlcf	___flmul@prod& (0+255),f,b
  4208   002108  3768               	rlcf	(___flmul@prod+1)& (0+255),f,b
  4209   00210A  3769               	rlcf	(___flmul@prod+2)& (0+255),f,b
  4210   00210C  376A               	rlcf	(___flmul@prod+3)& (0+255),f,b
  4211   00210E                     
  4212                           ; BSR set to: 0
  4213   00210E  AF64               	btfss	(___flmul@grs+3)& (0+255),7,b
  4214   002110  EF8C  F010         	goto	u2851
  4215   002114  EF8E  F010         	goto	u2850
  4216   002118                     u2851:
  4217   002118  EF8F  F010         	goto	l848
  4218   00211C                     u2850:
  4219   00211C                     
  4220                           ; BSR set to: 0
  4221   00211C  8167               	bsf	___flmul@prod& (0+255),0,b
  4222   00211E                     l848:
  4223                           
  4224                           ; BSR set to: 0
  4225   00211E  90D8               	bcf	status,0,c
  4226   002120  3761               	rlcf	___flmul@grs& (0+255),f,b
  4227   002122  3762               	rlcf	(___flmul@grs+1)& (0+255),f,b
  4228   002124  3763               	rlcf	(___flmul@grs+2)& (0+255),f,b
  4229   002126  3764               	rlcf	(___flmul@grs+3)& (0+255),f,b
  4230   002128  076B               	decf	___flmul@temp& (0+255),f,b
  4231   00212A  A0D8               	btfss	status,0,c
  4232   00212C  076C               	decf	(___flmul@temp+1)& (0+255),f,b
  4233   00212E                     l2718:
  4234                           
  4235                           ; BSR set to: 0
  4236   00212E  AF69               	btfss	(___flmul@prod+2)& (0+255),7,b
  4237   002130  EF9C  F010         	goto	u2861
  4238   002134  EF9E  F010         	goto	u2860
  4239   002138                     u2861:
  4240   002138  EF82  F010         	goto	l2712
  4241   00213C                     u2860:
  4242   00213C                     
  4243                           ; BSR set to: 0
  4244   00213C  0E00               	movlw	0
  4245   00213E  6F65               	movwf	___flmul@aexp& (0+255),b
  4246   002140                     
  4247                           ; BSR set to: 0
  4248   002140  AF64               	btfss	(___flmul@grs+3)& (0+255),7,b
  4249   002142  EFA5  F010         	goto	u2871
  4250   002146  EFA7  F010         	goto	u2870
  4251   00214A                     u2871:
  4252   00214A  EFCB  F010         	goto	l850
  4253   00214E                     u2870:
  4254   00214E                     
  4255                           ; BSR set to: 0
  4256   00214E  0EFF               	movlw	255
  4257   002150  1561               	andwf	___flmul@grs& (0+255),w,b
  4258   002152  6E53               	movwf	??___flmul^0,c
  4259   002154  0EFF               	movlw	255
  4260   002156  1562               	andwf	(___flmul@grs+1)& (0+255),w,b
  4261   002158  6E54               	movwf	(??___flmul+1)^0,c
  4262   00215A  0EFF               	movlw	255
  4263   00215C  1563               	andwf	(___flmul@grs+2)& (0+255),w,b
  4264   00215E  6E55               	movwf	(??___flmul+2)^0,c
  4265   002160  0E7F               	movlw	127
  4266   002162  1564               	andwf	(___flmul@grs+3)& (0+255),w,b
  4267   002164  6E56               	movwf	(??___flmul+3)^0,c
  4268   002166  5053               	movf	??___flmul^0,w,c
  4269   002168  1054               	iorwf	(??___flmul+1)^0,w,c
  4270   00216A  1055               	iorwf	(??___flmul+2)^0,w,c
  4271   00216C  1056               	iorwf	(??___flmul+3)^0,w,c
  4272   00216E  B4D8               	btfsc	status,2,c
  4273   002170  EFBC  F010         	goto	u2881
  4274   002174  EFBE  F010         	goto	u2880
  4275   002178                     u2881:
  4276   002178  EFC2  F010         	goto	l851
  4277   00217C                     u2880:
  4278   00217C                     l2726:
  4279                           
  4280                           ; BSR set to: 0
  4281   00217C  0E01               	movlw	1
  4282   00217E  6F65               	movwf	___flmul@aexp& (0+255),b
  4283   002180  EFCB  F010         	goto	l850
  4284   002184                     l851:
  4285                           
  4286                           ; BSR set to: 0
  4287   002184  A167               	btfss	___flmul@prod& (0+255),0,b
  4288   002186  EFC7  F010         	goto	u2891
  4289   00218A  EFC9  F010         	goto	u2890
  4290   00218E                     u2891:
  4291   00218E  EFCB  F010         	goto	l850
  4292   002192                     u2890:
  4293   002192  EFBE  F010         	goto	l2726
  4294   002196                     l850:
  4295                           
  4296                           ; BSR set to: 0
  4297   002196  5165               	movf	___flmul@aexp& (0+255),w,b
  4298   002198  B4D8               	btfsc	status,2,c
  4299   00219A  EFD1  F010         	goto	u2901
  4300   00219E  EFD3  F010         	goto	u2900
  4301   0021A2                     u2901:
  4302   0021A2  EFF7  F010         	goto	l2738
  4303   0021A6                     u2900:
  4304   0021A6                     
  4305                           ; BSR set to: 0
  4306   0021A6  0E01               	movlw	1
  4307   0021A8  2767               	addwf	___flmul@prod& (0+255),f,b
  4308   0021AA  0E00               	movlw	0
  4309   0021AC  2368               	addwfc	(___flmul@prod+1)& (0+255),f,b
  4310   0021AE  2369               	addwfc	(___flmul@prod+2)& (0+255),f,b
  4311   0021B0  236A               	addwfc	(___flmul@prod+3)& (0+255),f,b
  4312   0021B2                     
  4313                           ; BSR set to: 0
  4314   0021B2  A16A               	btfss	(___flmul@prod+3)& (0+255),0,b
  4315   0021B4  EFDE  F010         	goto	u2911
  4316   0021B8  EFE0  F010         	goto	u2910
  4317   0021BC                     u2911:
  4318   0021BC  EFF7  F010         	goto	l2738
  4319   0021C0                     u2910:
  4320   0021C0                     
  4321                           ; BSR set to: 0
  4322   0021C0  C067  F053         	movff	___flmul@prod,??___flmul
  4323   0021C4  C068  F054         	movff	___flmul@prod+1,??___flmul+1
  4324   0021C8  C069  F055         	movff	___flmul@prod+2,??___flmul+2
  4325   0021CC  C06A  F056         	movff	___flmul@prod+3,??___flmul+3
  4326   0021D0  3456               	rlcf	(??___flmul+3)^0,w,c
  4327   0021D2  3256               	rrcf	(??___flmul+3)^0,f,c
  4328   0021D4  3255               	rrcf	(??___flmul+2)^0,f,c
  4329   0021D6  3254               	rrcf	(??___flmul+1)^0,f,c
  4330   0021D8  3253               	rrcf	??___flmul^0,f,c
  4331   0021DA  C053  F067         	movff	??___flmul,___flmul@prod
  4332   0021DE  C054  F068         	movff	??___flmul+1,___flmul@prod+1
  4333   0021E2  C055  F069         	movff	??___flmul+2,___flmul@prod+2
  4334   0021E6  C056  F06A         	movff	??___flmul+3,___flmul@prod+3
  4335   0021EA                     
  4336                           ; BSR set to: 0
  4337   0021EA  4B6B               	infsnz	___flmul@temp& (0+255),f,b
  4338   0021EC  2B6C               	incf	(___flmul@temp+1)& (0+255),f,b
  4339   0021EE                     l2738:
  4340                           
  4341                           ; BSR set to: 0
  4342   0021EE  BF6C               	btfsc	(___flmul@temp+1)& (0+255),7,b
  4343   0021F0  EF02  F011         	goto	u2921
  4344   0021F4  516C               	movf	(___flmul@temp+1)& (0+255),w,b
  4345   0021F6  E108               	bnz	u2920
  4346   0021F8  296B               	incf	___flmul@temp& (0+255),w,b
  4347   0021FA  A0D8               	btfss	status,0,c
  4348   0021FC  EF02  F011         	goto	u2921
  4349   002200  EF04  F011         	goto	u2920
  4350   002204                     u2921:
  4351   002204  EF0E  F011         	goto	l2742
  4352   002208                     u2920:
  4353   002208                     
  4354                           ; BSR set to: 0
  4355   002208  0E00               	movlw	0
  4356   00220A  6F67               	movwf	___flmul@prod& (0+255),b
  4357   00220C  0E00               	movlw	0
  4358   00220E  6F68               	movwf	(___flmul@prod+1)& (0+255),b
  4359   002210  0E80               	movlw	128
  4360   002212  6F69               	movwf	(___flmul@prod+2)& (0+255),b
  4361   002214  0E7F               	movlw	127
  4362   002216  6F6A               	movwf	(___flmul@prod+3)& (0+255),b
  4363   002218  EF3C  F011         	goto	l2754
  4364   00221C                     l2742:
  4365                           
  4366                           ; BSR set to: 0
  4367   00221C  BF6C               	btfsc	(___flmul@temp+1)& (0+255),7,b
  4368   00221E  EF1B  F011         	goto	u2930
  4369   002222  516C               	movf	(___flmul@temp+1)& (0+255),w,b
  4370   002224  E106               	bnz	u2931
  4371   002226  056B               	decf	___flmul@temp& (0+255),w,b
  4372   002228  B0D8               	btfsc	status,0,c
  4373   00222A  EF19  F011         	goto	u2931
  4374   00222E  EF1B  F011         	goto	u2930
  4375   002232                     u2931:
  4376   002232  EF27  F011         	goto	l858
  4377   002236                     u2930:
  4378   002236                     
  4379                           ; BSR set to: 0
  4380   002236  0E00               	movlw	0
  4381   002238  6F67               	movwf	___flmul@prod& (0+255),b
  4382   00223A  0E00               	movlw	0
  4383   00223C  6F68               	movwf	(___flmul@prod+1)& (0+255),b
  4384   00223E  0E00               	movlw	0
  4385   002240  6F69               	movwf	(___flmul@prod+2)& (0+255),b
  4386   002242  0E00               	movlw	0
  4387   002244  6F6A               	movwf	(___flmul@prod+3)& (0+255),b
  4388   002246  0E00               	movlw	0
  4389   002248  6F60               	movwf	___flmul@sign& (0+255),b
  4390   00224A  EF3C  F011         	goto	l2754
  4391   00224E                     l858:
  4392                           
  4393                           ; BSR set to: 0
  4394   00224E  C06B  F066         	movff	___flmul@temp,___flmul@bexp
  4395   002252                     
  4396                           ; BSR set to: 0
  4397   002252  0EFF               	movlw	255
  4398   002254  1767               	andwf	___flmul@prod& (0+255),f,b
  4399   002256  0EFF               	movlw	255
  4400   002258  1768               	andwf	(___flmul@prod+1)& (0+255),f,b
  4401   00225A  0E7F               	movlw	127
  4402   00225C  1769               	andwf	(___flmul@prod+2)& (0+255),f,b
  4403   00225E  0E00               	movlw	0
  4404   002260  176A               	andwf	(___flmul@prod+3)& (0+255),f,b
  4405   002262                     
  4406                           ; BSR set to: 0
  4407   002262  A166               	btfss	___flmul@bexp& (0+255),0,b
  4408   002264  EF36  F011         	goto	u2941
  4409   002268  EF38  F011         	goto	u2940
  4410   00226C                     u2941:
  4411   00226C  EF39  F011         	goto	l2752
  4412   002270                     u2940:
  4413   002270                     
  4414                           ; BSR set to: 0
  4415   002270  8F69               	bsf	(___flmul@prod+2)& (0+255),7,b
  4416   002272                     l2752:
  4417                           
  4418                           ; BSR set to: 0
  4419   002272  90D8               	bcf	status,0,c
  4420   002274  3166               	rrcf	___flmul@bexp& (0+255),w,b
  4421   002276  6F6A               	movwf	(___flmul@prod+3)& (0+255),b
  4422   002278                     l2754:
  4423                           
  4424                           ; BSR set to: 0
  4425   002278  5160               	movf	___flmul@sign& (0+255),w,b
  4426   00227A  136A               	iorwf	(___flmul@prod+3)& (0+255),f,b
  4427   00227C                     
  4428                           ; BSR set to: 0
  4429   00227C  C067  F04B         	movff	___flmul@prod,?___flmul
  4430   002280  C068  F04C         	movff	___flmul@prod+1,?___flmul+1
  4431   002284  C069  F04D         	movff	___flmul@prod+2,?___flmul+2
  4432   002288  C06A  F04E         	movff	___flmul@prod+3,?___flmul+3
  4433   00228C                     l845:
  4434                           
  4435                           ; BSR set to: 0
  4436   00228C  0012               	return		;funcret
  4437   00228E                     __end_of___flmul:
  4438                           	callstack 0
  4439                           
  4440 ;; *************** function ___fleq *****************
  4441 ;; Defined at:
  4442 ;;		line 4 in file "C:\Program Files\Microchip\xc8\v2.40\pic\sources\c99\common\fleq.c"
  4443 ;; Parameters:    Size  Location     Type
  4444 ;;  ff1             4    0[COMRAM] unsigned char 
  4445 ;;  ff2             4    4[COMRAM] unsigned char 
  4446 ;; Auto vars:     Size  Location     Type
  4447 ;;		None
  4448 ;; Return value:  Size  Location     Type
  4449 ;;		None               void
  4450 ;; Registers used:
  4451 ;;		wreg, status,2, status,0
  4452 ;; Tracked objects:
  4453 ;;		On entry : 0/0
  4454 ;;		On exit  : 0/0
  4455 ;;		Unchanged: 0/0
  4456 ;; Data sizes:     COMRAM   BANK0   BANK1   BANK2   BANK3   BANK4   BANK5   BANK6   BANK7   BANK8   BANK9  BANK10  BANK1
      +1  BANK12  BANK13
  4457 ;;      Params:         8       0       0       0       0       0       0       0       0       0       0       0       
      +0       0       0
  4458 ;;      Locals:         0       0       0       0       0       0       0       0       0       0       0       0       
      +0       0       0
  4459 ;;      Temps:          4       0       0       0       0       0       0       0       0       0       0       0       
      +0       0       0
  4460 ;;      Totals:        12       0       0       0       0       0       0       0       0       0       0       0       
      +0       0       0
  4461 ;;Total ram usage:       12 bytes
  4462 ;; Hardware stack levels used: 1
  4463 ;; This function calls:
  4464 ;;		Nothing
  4465 ;; This function is called by:
  4466 ;;		_RGB2Hue
  4467 ;; This function uses a non-reentrant model
  4468 ;;
  4469                           
  4470                           	psect	text22
  4471   002EFE                     __ptext22:
  4472                           	callstack 0
  4473   002EFE                     ___fleq:
  4474                           	callstack 29
  4475   002EFE  0E00               	movlw	0
  4476   002F00  1401               	andwf	___fleq@ff1^0,w,c
  4477   002F02  6E09               	movwf	??___fleq^0,c
  4478   002F04  0E00               	movlw	0
  4479   002F06  1402               	andwf	(___fleq@ff1+1)^0,w,c
  4480   002F08  6E0A               	movwf	(??___fleq+1)^0,c
  4481   002F0A  0E80               	movlw	128
  4482   002F0C  1403               	andwf	(___fleq@ff1+2)^0,w,c
  4483   002F0E  6E0B               	movwf	(??___fleq+2)^0,c
  4484   002F10  0E7F               	movlw	127
  4485   002F12  1404               	andwf	(___fleq@ff1+3)^0,w,c
  4486   002F14  6E0C               	movwf	(??___fleq+3)^0,c
  4487   002F16  5009               	movf	??___fleq^0,w,c
  4488   002F18  100A               	iorwf	(??___fleq+1)^0,w,c
  4489   002F1A  100B               	iorwf	(??___fleq+2)^0,w,c
  4490   002F1C  100C               	iorwf	(??___fleq+3)^0,w,c
  4491   002F1E  A4D8               	btfss	status,2,c
  4492   002F20  EF94  F017         	goto	u2951
  4493   002F24  EF96  F017         	goto	u2950
  4494   002F28                     u2951:
  4495   002F28  EF9E  F017         	goto	l2770
  4496   002F2C                     u2950:
  4497   002F2C  0E00               	movlw	0
  4498   002F2E  6E01               	movwf	___fleq@ff1^0,c
  4499   002F30  0E00               	movlw	0
  4500   002F32  6E02               	movwf	(___fleq@ff1+1)^0,c
  4501   002F34  0E00               	movlw	0
  4502   002F36  6E03               	movwf	(___fleq@ff1+2)^0,c
  4503   002F38  0E00               	movlw	0
  4504   002F3A  6E04               	movwf	(___fleq@ff1+3)^0,c
  4505   002F3C                     l2770:
  4506   002F3C  0E00               	movlw	0
  4507   002F3E  1405               	andwf	___fleq@ff2^0,w,c
  4508   002F40  6E09               	movwf	??___fleq^0,c
  4509   002F42  0E00               	movlw	0
  4510   002F44  1406               	andwf	(___fleq@ff2+1)^0,w,c
  4511   002F46  6E0A               	movwf	(??___fleq+1)^0,c
  4512   002F48  0E80               	movlw	128
  4513   002F4A  1407               	andwf	(___fleq@ff2+2)^0,w,c
  4514   002F4C  6E0B               	movwf	(??___fleq+2)^0,c
  4515   002F4E  0E7F               	movlw	127
  4516   002F50  1408               	andwf	(___fleq@ff2+3)^0,w,c
  4517   002F52  6E0C               	movwf	(??___fleq+3)^0,c
  4518   002F54  5009               	movf	??___fleq^0,w,c
  4519   002F56  100A               	iorwf	(??___fleq+1)^0,w,c
  4520   002F58  100B               	iorwf	(??___fleq+2)^0,w,c
  4521   002F5A  100C               	iorwf	(??___fleq+3)^0,w,c
  4522   002F5C  A4D8               	btfss	status,2,c
  4523   002F5E  EFB3  F017         	goto	u2961
  4524   002F62  EFB5  F017         	goto	u2960
  4525   002F66                     u2961:
  4526   002F66  EFBD  F017         	goto	l2774
  4527   002F6A                     u2960:
  4528   002F6A  0E00               	movlw	0
  4529   002F6C  6E05               	movwf	___fleq@ff2^0,c
  4530   002F6E  0E00               	movlw	0
  4531   002F70  6E06               	movwf	(___fleq@ff2+1)^0,c
  4532   002F72  0E00               	movlw	0
  4533   002F74  6E07               	movwf	(___fleq@ff2+2)^0,c
  4534   002F76  0E00               	movlw	0
  4535   002F78  6E08               	movwf	(___fleq@ff2+3)^0,c
  4536   002F7A                     l2774:
  4537   002F7A  5005               	movf	___fleq@ff2^0,w,c
  4538   002F7C  1801               	xorwf	___fleq@ff1^0,w,c
  4539   002F7E  E10F               	bnz	u2970
  4540   002F80  5006               	movf	(___fleq@ff2+1)^0,w,c
  4541   002F82  1802               	xorwf	(___fleq@ff1+1)^0,w,c
  4542   002F84  E10C               	bnz	u2970
  4543   002F86  5007               	movf	(___fleq@ff2+2)^0,w,c
  4544   002F88  1803               	xorwf	(___fleq@ff1+2)^0,w,c
  4545   002F8A  E109               	bnz	u2970
  4546   002F8C  5008               	movf	(___fleq@ff2+3)^0,w,c
  4547   002F8E  1804               	xorwf	(___fleq@ff1+3)^0,w,c
  4548   002F90  B4D8               	btfsc	status,2,c
  4549   002F92  EFCD  F017         	goto	u2971
  4550   002F96  EFCF  F017         	goto	u2970
  4551   002F9A                     u2971:
  4552   002F9A  EFD2  F017         	goto	l2778
  4553   002F9E                     u2970:
  4554   002F9E  90D8               	bcf	status,0,c
  4555   002FA0  EFD3  F017         	goto	l486
  4556   002FA4                     l2778:
  4557   002FA4  80D8               	bsf	status,0,c
  4558   002FA6                     l486:
  4559   002FA6  0012               	return		;funcret
  4560   002FA8                     __end_of___fleq:
  4561                           	callstack 0
  4562                           
  4563 ;; *************** function ___fldiv *****************
  4564 ;; Defined at:
  4565 ;;		line 11 in file "C:\Program Files\Microchip\xc8\v2.40\pic\sources\c99\common\sprcdiv.c"
  4566 ;; Parameters:    Size  Location     Type
  4567 ;;  b               4   49[COMRAM] unsigned char 
  4568 ;;  a               4   53[COMRAM] unsigned char 
  4569 ;; Auto vars:     Size  Location     Type
  4570 ;;  grs             4   68[COMRAM] unsigned long 
  4571 ;;  rem             4   61[COMRAM] unsigned long 
  4572 ;;  new_exp         2   66[COMRAM] short 
  4573 ;;  aexp            1   73[COMRAM] unsigned char 
  4574 ;;  bexp            1   72[COMRAM] unsigned char 
  4575 ;;  sign            1   65[COMRAM] unsigned char 
  4576 ;; Return value:  Size  Location     Type
  4577 ;;                  4   49[COMRAM] unsigned char 
  4578 ;; Registers used:
  4579 ;;		wreg, status,2, status,0
  4580 ;; Tracked objects:
  4581 ;;		On entry : 0/0
  4582 ;;		On exit  : 0/0
  4583 ;;		Unchanged: 0/0
  4584 ;; Data sizes:     COMRAM   BANK0   BANK1   BANK2   BANK3   BANK4   BANK5   BANK6   BANK7   BANK8   BANK9  BANK10  BANK1
      +1  BANK12  BANK13
  4585 ;;      Params:         8       0       0       0       0       0       0       0       0       0       0       0       
      +0       0       0
  4586 ;;      Locals:        13       0       0       0       0       0       0       0       0       0       0       0       
      +0       0       0
  4587 ;;      Temps:          4       0       0       0       0       0       0       0       0       0       0       0       
      +0       0       0
  4588 ;;      Totals:        25       0       0       0       0       0       0       0       0       0       0       0       
      +0       0       0
  4589 ;;Total ram usage:       25 bytes
  4590 ;; Hardware stack levels used: 1
  4591 ;; This function calls:
  4592 ;;		Nothing
  4593 ;; This function is called by:
  4594 ;;		_RGB2Hue
  4595 ;; This function uses a non-reentrant model
  4596 ;;
  4597                           
  4598                           	psect	text23
  4599   00228E                     __ptext23:
  4600                           	callstack 0
  4601   00228E                     ___fldiv:
  4602                           	callstack 29
  4603   00228E  5035               	movf	(___fldiv@b+3)^0,w,c
  4604   002290  0B80               	andlw	128
  4605   002292  6E42               	movwf	___fldiv@sign^0,c
  4606   002294  5035               	movf	(___fldiv@b+3)^0,w,c
  4607   002296  2435               	addwf	(___fldiv@b+3)^0,w,c
  4608   002298  6E49               	movwf	___fldiv@bexp^0,c
  4609   00229A  AE34               	btfss	(___fldiv@b+2)^0,7,c
  4610   00229C  EF52  F011         	goto	u2531
  4611   0022A0  EF54  F011         	goto	u2530
  4612   0022A4                     u2531:
  4613   0022A4  EF55  F011         	goto	l2498
  4614   0022A8                     u2530:
  4615   0022A8  8049               	bsf	___fldiv@bexp^0,0,c
  4616   0022AA                     l2498:
  4617   0022AA  5049               	movf	___fldiv@bexp^0,w,c
  4618   0022AC  B4D8               	btfsc	status,2,c
  4619   0022AE  EF5B  F011         	goto	u2541
  4620   0022B2  EF5D  F011         	goto	u2540
  4621   0022B6                     u2541:
  4622   0022B6  EF72  F011         	goto	l2508
  4623   0022BA                     u2540:
  4624   0022BA  2849               	incf	___fldiv@bexp^0,w,c
  4625   0022BC  A4D8               	btfss	status,2,c
  4626   0022BE  EF63  F011         	goto	u2551
  4627   0022C2  EF65  F011         	goto	u2550
  4628   0022C6                     u2551:
  4629   0022C6  EF6D  F011         	goto	l2504
  4630   0022CA                     u2550:
  4631   0022CA  0E00               	movlw	0
  4632   0022CC  6E32               	movwf	___fldiv@b^0,c
  4633   0022CE  0E00               	movlw	0
  4634   0022D0  6E33               	movwf	(___fldiv@b+1)^0,c
  4635   0022D2  0E00               	movlw	0
  4636   0022D4  6E34               	movwf	(___fldiv@b+2)^0,c
  4637   0022D6  0E00               	movlw	0
  4638   0022D8  6E35               	movwf	(___fldiv@b+3)^0,c
  4639   0022DA                     l2504:
  4640   0022DA  8E34               	bsf	(___fldiv@b+2)^0,7,c
  4641   0022DC  0E00               	movlw	0
  4642   0022DE  6E35               	movwf	(___fldiv@b+3)^0,c
  4643   0022E0  EF7A  F011         	goto	l2510
  4644   0022E4                     l2508:
  4645   0022E4  0E00               	movlw	0
  4646   0022E6  6E32               	movwf	___fldiv@b^0,c
  4647   0022E8  0E00               	movlw	0
  4648   0022EA  6E33               	movwf	(___fldiv@b+1)^0,c
  4649   0022EC  0E00               	movlw	0
  4650   0022EE  6E34               	movwf	(___fldiv@b+2)^0,c
  4651   0022F0  0E00               	movlw	0
  4652   0022F2  6E35               	movwf	(___fldiv@b+3)^0,c
  4653   0022F4                     l2510:
  4654   0022F4  5039               	movf	(___fldiv@a+3)^0,w,c
  4655   0022F6  0B80               	andlw	128
  4656   0022F8  1A42               	xorwf	___fldiv@sign^0,f,c
  4657   0022FA  5039               	movf	(___fldiv@a+3)^0,w,c
  4658   0022FC  2439               	addwf	(___fldiv@a+3)^0,w,c
  4659   0022FE  6E4A               	movwf	___fldiv@aexp^0,c
  4660   002300  AE38               	btfss	(___fldiv@a+2)^0,7,c
  4661   002302  EF85  F011         	goto	u2561
  4662   002306  EF87  F011         	goto	u2560
  4663   00230A                     u2561:
  4664   00230A  EF88  F011         	goto	l2518
  4665   00230E                     u2560:
  4666   00230E  804A               	bsf	___fldiv@aexp^0,0,c
  4667   002310                     l2518:
  4668   002310  504A               	movf	___fldiv@aexp^0,w,c
  4669   002312  B4D8               	btfsc	status,2,c
  4670   002314  EF8E  F011         	goto	u2571
  4671   002318  EF90  F011         	goto	u2570
  4672   00231C                     u2571:
  4673   00231C  EFA5  F011         	goto	l2528
  4674   002320                     u2570:
  4675   002320  284A               	incf	___fldiv@aexp^0,w,c
  4676   002322  A4D8               	btfss	status,2,c
  4677   002324  EF96  F011         	goto	u2581
  4678   002328  EF98  F011         	goto	u2580
  4679   00232C                     u2581:
  4680   00232C  EFA0  F011         	goto	l2524
  4681   002330                     u2580:
  4682   002330  0E00               	movlw	0
  4683   002332  6E36               	movwf	___fldiv@a^0,c
  4684   002334  0E00               	movlw	0
  4685   002336  6E37               	movwf	(___fldiv@a+1)^0,c
  4686   002338  0E00               	movlw	0
  4687   00233A  6E38               	movwf	(___fldiv@a+2)^0,c
  4688   00233C  0E00               	movlw	0
  4689   00233E  6E39               	movwf	(___fldiv@a+3)^0,c
  4690   002340                     l2524:
  4691   002340  8E38               	bsf	(___fldiv@a+2)^0,7,c
  4692   002342  0E00               	movlw	0
  4693   002344  6E39               	movwf	(___fldiv@a+3)^0,c
  4694   002346  EFAD  F011         	goto	l2530
  4695   00234A                     l2528:
  4696   00234A  0E00               	movlw	0
  4697   00234C  6E36               	movwf	___fldiv@a^0,c
  4698   00234E  0E00               	movlw	0
  4699   002350  6E37               	movwf	(___fldiv@a+1)^0,c
  4700   002352  0E00               	movlw	0
  4701   002354  6E38               	movwf	(___fldiv@a+2)^0,c
  4702   002356  0E00               	movlw	0
  4703   002358  6E39               	movwf	(___fldiv@a+3)^0,c
  4704   00235A                     l2530:
  4705   00235A  5036               	movf	___fldiv@a^0,w,c
  4706   00235C  1037               	iorwf	(___fldiv@a+1)^0,w,c
  4707   00235E  1038               	iorwf	(___fldiv@a+2)^0,w,c
  4708   002360  1039               	iorwf	(___fldiv@a+3)^0,w,c
  4709   002362  A4D8               	btfss	status,2,c
  4710   002364  EFB6  F011         	goto	u2591
  4711   002368  EFB8  F011         	goto	u2590
  4712   00236C                     u2591:
  4713   00236C  EFD0  F011         	goto	l2542
  4714   002370                     u2590:
  4715   002370  0E00               	movlw	0
  4716   002372  6E32               	movwf	___fldiv@b^0,c
  4717   002374  0E00               	movlw	0
  4718   002376  6E33               	movwf	(___fldiv@b+1)^0,c
  4719   002378  0E00               	movlw	0
  4720   00237A  6E34               	movwf	(___fldiv@b+2)^0,c
  4721   00237C  0E00               	movlw	0
  4722   00237E  6E35               	movwf	(___fldiv@b+3)^0,c
  4723   002380  0E80               	movlw	128
  4724   002382  1234               	iorwf	(___fldiv@b+2)^0,f,c
  4725   002384  0E7F               	movlw	127
  4726   002386  1235               	iorwf	(___fldiv@b+3)^0,f,c
  4727   002388                     l2536:
  4728   002388  5042               	movf	___fldiv@sign^0,w,c
  4729   00238A  1235               	iorwf	(___fldiv@b+3)^0,f,c
  4730   00238C  C032  F032         	movff	___fldiv@b,?___fldiv
  4731   002390  C033  F033         	movff	___fldiv@b+1,?___fldiv+1
  4732   002394  C034  F034         	movff	___fldiv@b+2,?___fldiv+2
  4733   002398  C035  F035         	movff	___fldiv@b+3,?___fldiv+3
  4734   00239C  EF13  F013         	goto	l809
  4735   0023A0                     l2542:
  4736   0023A0  5049               	movf	___fldiv@bexp^0,w,c
  4737   0023A2  A4D8               	btfss	status,2,c
  4738   0023A4  EFD6  F011         	goto	u2601
  4739   0023A8  EFD8  F011         	goto	u2600
  4740   0023AC                     u2601:
  4741   0023AC  EFE2  F011         	goto	l2550
  4742   0023B0                     u2600:
  4743   0023B0  0E00               	movlw	0
  4744   0023B2  6E32               	movwf	?___fldiv^0,c
  4745   0023B4  0E00               	movlw	0
  4746   0023B6  6E33               	movwf	(?___fldiv+1)^0,c
  4747   0023B8  0E00               	movlw	0
  4748   0023BA  6E34               	movwf	(?___fldiv+2)^0,c
  4749   0023BC  0E00               	movlw	0
  4750   0023BE  6E35               	movwf	(?___fldiv+3)^0,c
  4751   0023C0  EF13  F013         	goto	l809
  4752   0023C4                     l2550:
  4753   0023C4  504A               	movf	___fldiv@aexp^0,w,c
  4754   0023C6  C049  F03A         	movff	___fldiv@bexp,??___fldiv
  4755   0023CA  6A3B               	clrf	(??___fldiv+1)^0,c
  4756   0023CC  5E3A               	subwf	??___fldiv^0,f,c
  4757   0023CE  0E00               	movlw	0
  4758   0023D0  5A3B               	subwfb	(??___fldiv+1)^0,f,c
  4759   0023D2  0E7F               	movlw	127
  4760   0023D4  243A               	addwf	??___fldiv^0,w,c
  4761   0023D6  6E43               	movwf	___fldiv@new_exp^0,c
  4762   0023D8  0E00               	movlw	0
  4763   0023DA  203B               	addwfc	(??___fldiv+1)^0,w,c
  4764   0023DC  6E44               	movwf	(___fldiv@new_exp+1)^0,c
  4765   0023DE  C032  F03E         	movff	___fldiv@b,___fldiv@rem
  4766   0023E2  C033  F03F         	movff	___fldiv@b+1,___fldiv@rem+1
  4767   0023E6  C034  F040         	movff	___fldiv@b+2,___fldiv@rem+2
  4768   0023EA  C035  F041         	movff	___fldiv@b+3,___fldiv@rem+3
  4769   0023EE  0E00               	movlw	0
  4770   0023F0  6E32               	movwf	___fldiv@b^0,c
  4771   0023F2  0E00               	movlw	0
  4772   0023F4  6E33               	movwf	(___fldiv@b+1)^0,c
  4773   0023F6  0E00               	movlw	0
  4774   0023F8  6E34               	movwf	(___fldiv@b+2)^0,c
  4775   0023FA  0E00               	movlw	0
  4776   0023FC  6E35               	movwf	(___fldiv@b+3)^0,c
  4777   0023FE  0E00               	movlw	0
  4778   002400  6E45               	movwf	___fldiv@grs^0,c
  4779   002402  0E00               	movlw	0
  4780   002404  6E46               	movwf	(___fldiv@grs+1)^0,c
  4781   002406  0E00               	movlw	0
  4782   002408  6E47               	movwf	(___fldiv@grs+2)^0,c
  4783   00240A  0E00               	movlw	0
  4784   00240C  6E48               	movwf	(___fldiv@grs+3)^0,c
  4785   00240E  0E00               	movlw	0
  4786   002410  6E4A               	movwf	___fldiv@aexp^0,c
  4787   002412  EF43  F012         	goto	l811
  4788   002416                     l2560:
  4789   002416  504A               	movf	___fldiv@aexp^0,w,c
  4790   002418  B4D8               	btfsc	status,2,c
  4791   00241A  EF11  F012         	goto	u2611
  4792   00241E  EF13  F012         	goto	u2610
  4793   002422                     u2611:
  4794   002422  EF2A  F012         	goto	l2568
  4795   002426                     u2610:
  4796   002426  90D8               	bcf	status,0,c
  4797   002428  363E               	rlcf	___fldiv@rem^0,f,c
  4798   00242A  363F               	rlcf	(___fldiv@rem+1)^0,f,c
  4799   00242C  3640               	rlcf	(___fldiv@rem+2)^0,f,c
  4800   00242E  3641               	rlcf	(___fldiv@rem+3)^0,f,c
  4801   002430  90D8               	bcf	status,0,c
  4802   002432  3632               	rlcf	___fldiv@b^0,f,c
  4803   002434  3633               	rlcf	(___fldiv@b+1)^0,f,c
  4804   002436  3634               	rlcf	(___fldiv@b+2)^0,f,c
  4805   002438  3635               	rlcf	(___fldiv@b+3)^0,f,c
  4806   00243A  AE48               	btfss	(___fldiv@grs+3)^0,7,c
  4807   00243C  EF22  F012         	goto	u2621
  4808   002440  EF24  F012         	goto	u2620
  4809   002444                     u2621:
  4810   002444  EF25  F012         	goto	l814
  4811   002448                     u2620:
  4812   002448  8032               	bsf	___fldiv@b^0,0,c
  4813   00244A                     l814:
  4814   00244A  90D8               	bcf	status,0,c
  4815   00244C  3645               	rlcf	___fldiv@grs^0,f,c
  4816   00244E  3646               	rlcf	(___fldiv@grs+1)^0,f,c
  4817   002450  3647               	rlcf	(___fldiv@grs+2)^0,f,c
  4818   002452  3648               	rlcf	(___fldiv@grs+3)^0,f,c
  4819   002454                     l2568:
  4820   002454  5036               	movf	___fldiv@a^0,w,c
  4821   002456  5C3E               	subwf	___fldiv@rem^0,w,c
  4822   002458  5037               	movf	(___fldiv@a+1)^0,w,c
  4823   00245A  583F               	subwfb	(___fldiv@rem+1)^0,w,c
  4824   00245C  5038               	movf	(___fldiv@a+2)^0,w,c
  4825   00245E  5840               	subwfb	(___fldiv@rem+2)^0,w,c
  4826   002460  5039               	movf	(___fldiv@a+3)^0,w,c
  4827   002462  5841               	subwfb	(___fldiv@rem+3)^0,w,c
  4828   002464  A0D8               	btfss	status,0,c
  4829   002466  EF37  F012         	goto	u2631
  4830   00246A  EF39  F012         	goto	u2630
  4831   00246E                     u2631:
  4832   00246E  EF42  F012         	goto	l2574
  4833   002472                     u2630:
  4834   002472  8C48               	bsf	(___fldiv@grs+3)^0,6,c
  4835   002474  5036               	movf	___fldiv@a^0,w,c
  4836   002476  5E3E               	subwf	___fldiv@rem^0,f,c
  4837   002478  5037               	movf	(___fldiv@a+1)^0,w,c
  4838   00247A  5A3F               	subwfb	(___fldiv@rem+1)^0,f,c
  4839   00247C  5038               	movf	(___fldiv@a+2)^0,w,c
  4840   00247E  5A40               	subwfb	(___fldiv@rem+2)^0,f,c
  4841   002480  5039               	movf	(___fldiv@a+3)^0,w,c
  4842   002482  5A41               	subwfb	(___fldiv@rem+3)^0,f,c
  4843   002484                     l2574:
  4844   002484  2A4A               	incf	___fldiv@aexp^0,f,c
  4845   002486                     l811:
  4846   002486  0E19               	movlw	25
  4847   002488  644A               	cpfsgt	___fldiv@aexp^0,c
  4848   00248A  EF49  F012         	goto	u2641
  4849   00248E  EF4B  F012         	goto	u2640
  4850   002492                     u2641:
  4851   002492  EF0B  F012         	goto	l2560
  4852   002496                     u2640:
  4853   002496  503E               	movf	___fldiv@rem^0,w,c
  4854   002498  103F               	iorwf	(___fldiv@rem+1)^0,w,c
  4855   00249A  1040               	iorwf	(___fldiv@rem+2)^0,w,c
  4856   00249C  1041               	iorwf	(___fldiv@rem+3)^0,w,c
  4857   00249E  B4D8               	btfsc	status,2,c
  4858   0024A0  EF54  F012         	goto	u2651
  4859   0024A4  EF56  F012         	goto	u2650
  4860   0024A8                     u2651:
  4861   0024A8  EF6E  F012         	goto	l2586
  4862   0024AC                     u2650:
  4863   0024AC  8045               	bsf	___fldiv@grs^0,0,c
  4864   0024AE  EF6E  F012         	goto	l2586
  4865   0024B2                     l2580:
  4866   0024B2  90D8               	bcf	status,0,c
  4867   0024B4  3632               	rlcf	___fldiv@b^0,f,c
  4868   0024B6  3633               	rlcf	(___fldiv@b+1)^0,f,c
  4869   0024B8  3634               	rlcf	(___fldiv@b+2)^0,f,c
  4870   0024BA  3635               	rlcf	(___fldiv@b+3)^0,f,c
  4871   0024BC  AE48               	btfss	(___fldiv@grs+3)^0,7,c
  4872   0024BE  EF63  F012         	goto	u2661
  4873   0024C2  EF65  F012         	goto	u2660
  4874   0024C6                     u2661:
  4875   0024C6  EF66  F012         	goto	l820
  4876   0024CA                     u2660:
  4877   0024CA  8032               	bsf	___fldiv@b^0,0,c
  4878   0024CC                     l820:
  4879   0024CC  90D8               	bcf	status,0,c
  4880   0024CE  3645               	rlcf	___fldiv@grs^0,f,c
  4881   0024D0  3646               	rlcf	(___fldiv@grs+1)^0,f,c
  4882   0024D2  3647               	rlcf	(___fldiv@grs+2)^0,f,c
  4883   0024D4  3648               	rlcf	(___fldiv@grs+3)^0,f,c
  4884   0024D6  0643               	decf	___fldiv@new_exp^0,f,c
  4885   0024D8  A0D8               	btfss	status,0,c
  4886   0024DA  0644               	decf	(___fldiv@new_exp+1)^0,f,c
  4887   0024DC                     l2586:
  4888   0024DC  AE34               	btfss	(___fldiv@b+2)^0,7,c
  4889   0024DE  EF73  F012         	goto	u2671
  4890   0024E2  EF75  F012         	goto	u2670
  4891   0024E6                     u2671:
  4892   0024E6  EF59  F012         	goto	l2580
  4893   0024EA                     u2670:
  4894   0024EA  0E00               	movlw	0
  4895   0024EC  6E4A               	movwf	___fldiv@aexp^0,c
  4896   0024EE  AE48               	btfss	(___fldiv@grs+3)^0,7,c
  4897   0024F0  EF7C  F012         	goto	u2681
  4898   0024F4  EF7E  F012         	goto	u2680
  4899   0024F8                     u2681:
  4900   0024F8  EFA2  F012         	goto	l822
  4901   0024FC                     u2680:
  4902   0024FC  0EFF               	movlw	255
  4903   0024FE  1445               	andwf	___fldiv@grs^0,w,c
  4904   002500  6E3A               	movwf	??___fldiv^0,c
  4905   002502  0EFF               	movlw	255
  4906   002504  1446               	andwf	(___fldiv@grs+1)^0,w,c
  4907   002506  6E3B               	movwf	(??___fldiv+1)^0,c
  4908   002508  0EFF               	movlw	255
  4909   00250A  1447               	andwf	(___fldiv@grs+2)^0,w,c
  4910   00250C  6E3C               	movwf	(??___fldiv+2)^0,c
  4911   00250E  0E7F               	movlw	127
  4912   002510  1448               	andwf	(___fldiv@grs+3)^0,w,c
  4913   002512  6E3D               	movwf	(??___fldiv+3)^0,c
  4914   002514  503A               	movf	??___fldiv^0,w,c
  4915   002516  103B               	iorwf	(??___fldiv+1)^0,w,c
  4916   002518  103C               	iorwf	(??___fldiv+2)^0,w,c
  4917   00251A  103D               	iorwf	(??___fldiv+3)^0,w,c
  4918   00251C  B4D8               	btfsc	status,2,c
  4919   00251E  EF93  F012         	goto	u2691
  4920   002522  EF95  F012         	goto	u2690
  4921   002526                     u2691:
  4922   002526  EF99  F012         	goto	l823
  4923   00252A                     u2690:
  4924   00252A                     l2594:
  4925   00252A  0E01               	movlw	1
  4926   00252C  6E4A               	movwf	___fldiv@aexp^0,c
  4927   00252E  EFA2  F012         	goto	l822
  4928   002532                     l823:
  4929   002532  A032               	btfss	___fldiv@b^0,0,c
  4930   002534  EF9E  F012         	goto	u2701
  4931   002538  EFA0  F012         	goto	u2700
  4932   00253C                     u2701:
  4933   00253C  EFA2  F012         	goto	l822
  4934   002540                     u2700:
  4935   002540  EF95  F012         	goto	l2594
  4936   002544                     l822:
  4937   002544  504A               	movf	___fldiv@aexp^0,w,c
  4938   002546  B4D8               	btfsc	status,2,c
  4939   002548  EFA8  F012         	goto	u2711
  4940   00254C  EFAA  F012         	goto	u2710
  4941   002550                     u2711:
  4942   002550  EFCE  F012         	goto	l2606
  4943   002554                     u2710:
  4944   002554  0E01               	movlw	1
  4945   002556  2632               	addwf	___fldiv@b^0,f,c
  4946   002558  0E00               	movlw	0
  4947   00255A  2233               	addwfc	(___fldiv@b+1)^0,f,c
  4948   00255C  2234               	addwfc	(___fldiv@b+2)^0,f,c
  4949   00255E  2235               	addwfc	(___fldiv@b+3)^0,f,c
  4950   002560  A035               	btfss	(___fldiv@b+3)^0,0,c
  4951   002562  EFB5  F012         	goto	u2721
  4952   002566  EFB7  F012         	goto	u2720
  4953   00256A                     u2721:
  4954   00256A  EFCE  F012         	goto	l2606
  4955   00256E                     u2720:
  4956   00256E  C032  F03A         	movff	___fldiv@b,??___fldiv
  4957   002572  C033  F03B         	movff	___fldiv@b+1,??___fldiv+1
  4958   002576  C034  F03C         	movff	___fldiv@b+2,??___fldiv+2
  4959   00257A  C035  F03D         	movff	___fldiv@b+3,??___fldiv+3
  4960   00257E  343D               	rlcf	(??___fldiv+3)^0,w,c
  4961   002580  323D               	rrcf	(??___fldiv+3)^0,f,c
  4962   002582  323C               	rrcf	(??___fldiv+2)^0,f,c
  4963   002584  323B               	rrcf	(??___fldiv+1)^0,f,c
  4964   002586  323A               	rrcf	??___fldiv^0,f,c
  4965   002588  C03A  F032         	movff	??___fldiv,___fldiv@b
  4966   00258C  C03B  F033         	movff	??___fldiv+1,___fldiv@b+1
  4967   002590  C03C  F034         	movff	??___fldiv+2,___fldiv@b+2
  4968   002594  C03D  F035         	movff	??___fldiv+3,___fldiv@b+3
  4969   002598  4A43               	infsnz	___fldiv@new_exp^0,f,c
  4970   00259A  2A44               	incf	(___fldiv@new_exp+1)^0,f,c
  4971   00259C                     l2606:
  4972   00259C  BE44               	btfsc	(___fldiv@new_exp+1)^0,7,c
  4973   00259E  EFD9  F012         	goto	u2731
  4974   0025A2  5044               	movf	(___fldiv@new_exp+1)^0,w,c
  4975   0025A4  E108               	bnz	u2730
  4976   0025A6  2843               	incf	___fldiv@new_exp^0,w,c
  4977   0025A8  A0D8               	btfss	status,0,c
  4978   0025AA  EFD9  F012         	goto	u2731
  4979   0025AE  EFDB  F012         	goto	u2730
  4980   0025B2                     u2731:
  4981   0025B2  EFE6  F012         	goto	l2610
  4982   0025B6                     u2730:
  4983   0025B6  0E00               	movlw	0
  4984   0025B8  6E44               	movwf	(___fldiv@new_exp+1)^0,c
  4985   0025BA  6843               	setf	___fldiv@new_exp^0,c
  4986   0025BC  0E00               	movlw	0
  4987   0025BE  6E32               	movwf	___fldiv@b^0,c
  4988   0025C0  0E00               	movlw	0
  4989   0025C2  6E33               	movwf	(___fldiv@b+1)^0,c
  4990   0025C4  0E00               	movlw	0
  4991   0025C6  6E34               	movwf	(___fldiv@b+2)^0,c
  4992   0025C8  0E00               	movlw	0
  4993   0025CA  6E35               	movwf	(___fldiv@b+3)^0,c
  4994   0025CC                     l2610:
  4995   0025CC  BE44               	btfsc	(___fldiv@new_exp+1)^0,7,c
  4996   0025CE  EFF3  F012         	goto	u2740
  4997   0025D2  5044               	movf	(___fldiv@new_exp+1)^0,w,c
  4998   0025D4  E106               	bnz	u2741
  4999   0025D6  0443               	decf	___fldiv@new_exp^0,w,c
  5000   0025D8  B0D8               	btfsc	status,0,c
  5001   0025DA  EFF1  F012         	goto	u2741
  5002   0025DE  EFF3  F012         	goto	u2740
  5003   0025E2                     u2741:
  5004   0025E2  EF01  F013         	goto	l2614
  5005   0025E6                     u2740:
  5006   0025E6  0E00               	movlw	0
  5007   0025E8  6E44               	movwf	(___fldiv@new_exp+1)^0,c
  5008   0025EA  0E00               	movlw	0
  5009   0025EC  6E43               	movwf	___fldiv@new_exp^0,c
  5010   0025EE  0E00               	movlw	0
  5011   0025F0  6E32               	movwf	___fldiv@b^0,c
  5012   0025F2  0E00               	movlw	0
  5013   0025F4  6E33               	movwf	(___fldiv@b+1)^0,c
  5014   0025F6  0E00               	movlw	0
  5015   0025F8  6E34               	movwf	(___fldiv@b+2)^0,c
  5016   0025FA  0E00               	movlw	0
  5017   0025FC  6E35               	movwf	(___fldiv@b+3)^0,c
  5018   0025FE  0E00               	movlw	0
  5019   002600  6E42               	movwf	___fldiv@sign^0,c
  5020   002602                     l2614:
  5021   002602  C043  F049         	movff	___fldiv@new_exp,___fldiv@bexp
  5022   002606  A049               	btfss	___fldiv@bexp^0,0,c
  5023   002608  EF08  F013         	goto	u2751
  5024   00260C  EF0A  F013         	goto	u2750
  5025   002610                     u2751:
  5026   002610  EF0D  F013         	goto	l2620
  5027   002614                     u2750:
  5028   002614  8E34               	bsf	(___fldiv@b+2)^0,7,c
  5029   002616  EF0E  F013         	goto	l2622
  5030   00261A                     l2620:
  5031   00261A  9E34               	bcf	(___fldiv@b+2)^0,7,c
  5032   00261C                     l2622:
  5033   00261C  90D8               	bcf	status,0,c
  5034   00261E  3049               	rrcf	___fldiv@bexp^0,w,c
  5035   002620  6E35               	movwf	(___fldiv@b+3)^0,c
  5036   002622  EFC4  F011         	goto	l2536
  5037   002626                     l809:
  5038   002626  0012               	return		;funcret
  5039   002628                     __end_of___fldiv:
  5040                           	callstack 0
  5041                           
  5042 ;; *************** function _Color2String *****************
  5043 ;; Defined at:
  5044 ;;		line 39 in file "serial.c"
  5045 ;; Parameters:    Size  Location     Type
  5046 ;;  buf             2   68[COMRAM] PTR unsigned char 
  5047 ;;		 -> main@data(80), 
  5048 ;;  cf              2   70[COMRAM] PTR struct RGBC_rel
  5049 ;;		 -> colorf(20), 
  5050 ;; Auto vars:     Size  Location     Type
  5051 ;;  colourname      2   72[COMRAM] PTR unsigned char 
  5052 ;;		 -> STR_17(10), STR_16(11), STR_15(7), STR_14(7), 
  5053 ;;		 -> STR_13(5), STR_12(9), STR_11(6), STR_10(4), 
  5054 ;;		 -> STR_9(1), 
  5055 ;; Return value:  Size  Location     Type
  5056 ;;                  1    wreg      void 
  5057 ;; Registers used:
  5058 ;;		wreg, fsr1l, fsr1h, fsr2l, fsr2h, status,2, status,0, tblptrl, tblptrh, tblptru, cstack
  5059 ;; Tracked objects:
  5060 ;;		On entry : 0/0
  5061 ;;		On exit  : 0/0
  5062 ;;		Unchanged: 0/0
  5063 ;; Data sizes:     COMRAM   BANK0   BANK1   BANK2   BANK3   BANK4   BANK5   BANK6   BANK7   BANK8   BANK9  BANK10  BANK1
      +1  BANK12  BANK13
  5064 ;;      Params:         4       0       0       0       0       0       0       0       0       0       0       0       
      +0       0       0
  5065 ;;      Locals:         2       0       0       0       0       0       0       0       0       0       0       0       
      +0       0       0
  5066 ;;      Temps:          0       0       0       0       0       0       0       0       0       0       0       0       
      +0       0       0
  5067 ;;      Totals:         6       0       0       0       0       0       0       0       0       0       0       0       
      +0       0       0
  5068 ;;Total ram usage:        6 bytes
  5069 ;; Hardware stack levels used: 1
  5070 ;; Hardware stack levels required when called: 6
  5071 ;; This function calls:
  5072 ;;		_Hue2Colour
  5073 ;;		_sendStringSerial4
  5074 ;;		_sprintf
  5075 ;; This function is called by:
  5076 ;;		_main
  5077 ;; This function uses a non-reentrant model
  5078 ;;
  5079                           
  5080                           	psect	text24
  5081   003342                     __ptext24:
  5082                           	callstack 0
  5083   003342                     _Color2String:
  5084                           	callstack 24
  5085   003342                     
  5086                           ;serial.c: 42:     char* colourname = Hue2Colour(cf);
  5087   003342  C047  F00D         	movff	Color2String@cf,Hue2Colour@cf
  5088   003346  C048  F00E         	movff	Color2String@cf+1,Hue2Colour@cf+1
  5089   00334A  EC0A  F00D         	call	_Hue2Colour	;wreg free
  5090   00334E  C00D  F049         	movff	?_Hue2Colour,Color2String@colourname
  5091   003352  C00E  F04A         	movff	?_Hue2Colour+1,Color2String@colourname+1
  5092   003356                     
  5093                           ;serial.c: 45:     sprintf(buf,"Colour is %s  \r",colourname);
  5094   003356  C045  F032         	movff	Color2String@buf,sprintf@s
  5095   00335A  C046  F033         	movff	Color2String@buf+1,sprintf@s+1
  5096   00335E  0E01               	movlw	low STR_34
  5097   003360  6E34               	movwf	sprintf@fmt^0,c
  5098   003362  0E0E               	movlw	high STR_34
  5099   003364  6E35               	movwf	(sprintf@fmt+1)^0,c
  5100   003366  C049  F036         	movff	Color2String@colourname,?_sprintf+4
  5101   00336A  C04A  F037         	movff	Color2String@colourname+1,?_sprintf+5
  5102   00336E  ECCE  F018         	call	_sprintf	;wreg free
  5103   003372                     
  5104                           ;serial.c: 46:     sendStringSerial4(buf);
  5105   003372  C045  F002         	movff	Color2String@buf,sendStringSerial4@string
  5106   003376  C046  F003         	movff	Color2String@buf+1,sendStringSerial4@string+1
  5107   00337A  ECC0  F019         	call	_sendStringSerial4	;wreg free
  5108   00337E  0012               	return		;funcret
  5109   003380                     __end_of_Color2String:
  5110                           	callstack 0
  5111                           
  5112 ;; *************** function _sprintf *****************
  5113 ;; Defined at:
  5114 ;;		line 9 in file "C:\Program Files\Microchip\xc8\v2.40\pic\sources\c99\common\nf_sprintf.c"
  5115 ;; Parameters:    Size  Location     Type
  5116 ;;  s               2   49[COMRAM] PTR unsigned char 
  5117 ;;		 -> main@data(80), 
  5118 ;;  fmt             2   51[COMRAM] PTR const unsigned char 
  5119 ;;		 -> STR_34(16), 
  5120 ;; Auto vars:     Size  Location     Type
  5121 ;;  f              11   57[COMRAM] struct _IO_FILE
  5122 ;;  ap              2   55[COMRAM] PTR void [1]
  5123 ;;		 -> ?_sprintf(2), 
  5124 ;;  ret             2    0        int 
  5125 ;; Return value:  Size  Location     Type
  5126 ;;                  2   49[COMRAM] int 
  5127 ;; Registers used:
  5128 ;;		wreg, fsr1l, fsr1h, fsr2l, fsr2h, status,2, status,0, tblptrl, tblptrh, tblptru, cstack
  5129 ;; Tracked objects:
  5130 ;;		On entry : 0/0
  5131 ;;		On exit  : 0/0
  5132 ;;		Unchanged: 0/0
  5133 ;; Data sizes:     COMRAM   BANK0   BANK1   BANK2   BANK3   BANK4   BANK5   BANK6   BANK7   BANK8   BANK9  BANK10  BANK1
      +1  BANK12  BANK13
  5134 ;;      Params:         6       0       0       0       0       0       0       0       0       0       0       0       
      +0       0       0
  5135 ;;      Locals:        13       0       0       0       0       0       0       0       0       0       0       0       
      +0       0       0
  5136 ;;      Temps:          0       0       0       0       0       0       0       0       0       0       0       0       
      +0       0       0
  5137 ;;      Totals:        19       0       0       0       0       0       0       0       0       0       0       0       
      +0       0       0
  5138 ;;Total ram usage:       19 bytes
  5139 ;; Hardware stack levels used: 1
  5140 ;; Hardware stack levels required when called: 5
  5141 ;; This function calls:
  5142 ;;		_vfprintf
  5143 ;; This function is called by:
  5144 ;;		_Color2String
  5145 ;; This function uses a non-reentrant model
  5146 ;;
  5147                           
  5148                           	psect	text25
  5149   00319C                     __ptext25:
  5150                           	callstack 0
  5151   00319C                     _sprintf:
  5152                           	callstack 24
  5153   00319C  0E36               	movlw	low (?_sprintf+4)
  5154   00319E  6E38               	movwf	sprintf@ap^0,c
  5155   0031A0  0E00               	movlw	high (?_sprintf+4)
  5156   0031A2  6E39               	movwf	(sprintf@ap+1)^0,c
  5157   0031A4  C032  F03A         	movff	sprintf@s,sprintf@f
  5158   0031A8  C033  F03B         	movff	sprintf@s+1,sprintf@f+1
  5159   0031AC  0E00               	movlw	0
  5160   0031AE  6E3E               	movwf	(sprintf@f+4)^0,c
  5161   0031B0  0E00               	movlw	0
  5162   0031B2  6E3D               	movwf	(sprintf@f+3)^0,c
  5163   0031B4  0E00               	movlw	0
  5164   0031B6  6E44               	movwf	(sprintf@f+10)^0,c
  5165   0031B8  0E00               	movlw	0
  5166   0031BA  6E43               	movwf	(sprintf@f+9)^0,c
  5167   0031BC  0E3A               	movlw	low sprintf@f
  5168   0031BE  6E2A               	movwf	vfprintf@fp^0,c
  5169   0031C0  0E00               	movlw	high sprintf@f
  5170   0031C2  6E2B               	movwf	(vfprintf@fp+1)^0,c
  5171   0031C4  C034  F02C         	movff	sprintf@fmt,vfprintf@fmt
  5172   0031C8  C035  F02D         	movff	sprintf@fmt+1,vfprintf@fmt+1
  5173   0031CC  0E38               	movlw	low sprintf@ap
  5174   0031CE  6E2E               	movwf	vfprintf@ap^0,c
  5175   0031D0  0E00               	movlw	high sprintf@ap
  5176   0031D2  6E2F               	movwf	(vfprintf@ap+1)^0,c
  5177   0031D4  ECF5  F018         	call	_vfprintf	;wreg free
  5178   0031D8  503D               	movf	(sprintf@f+3)^0,w,c
  5179   0031DA  2432               	addwf	sprintf@s^0,w,c
  5180   0031DC  6ED9               	movwf	fsr2l,c
  5181   0031DE  503E               	movf	(sprintf@f+4)^0,w,c
  5182   0031E0  2033               	addwfc	(sprintf@s+1)^0,w,c
  5183   0031E2  6EDA               	movwf	fsr2h,c
  5184   0031E4  0E00               	movlw	0
  5185   0031E6  6EDF               	movwf	indf2,c
  5186   0031E8  0012               	return		;funcret
  5187   0031EA                     __end_of_sprintf:
  5188                           	callstack 0
  5189                           
  5190 ;; *************** function _vfprintf *****************
  5191 ;; Defined at:
  5192 ;;		line 1520 in file "C:\Program Files\Microchip\xc8\v2.40\pic\sources\c99\common\doprnt.c"
  5193 ;; Parameters:    Size  Location     Type
  5194 ;;  fp              2   41[COMRAM] PTR struct _IO_FILE
  5195 ;;		 -> sprintf@f(11), 
  5196 ;;  fmt             2   43[COMRAM] PTR const unsigned char 
  5197 ;;		 -> STR_34(16), 
  5198 ;;  ap              2   45[COMRAM] PTR PTR void 
  5199 ;;		 -> sprintf@ap(2), 
  5200 ;; Auto vars:     Size  Location     Type
  5201 ;;  cfmt            2   47[COMRAM] PTR unsigned char 
  5202 ;;		 -> STR_34(16), 
  5203 ;; Return value:  Size  Location     Type
  5204 ;;                  2   41[COMRAM] int 
  5205 ;; Registers used:
  5206 ;;		wreg, fsr1l, fsr1h, fsr2l, fsr2h, status,2, status,0, tblptrl, tblptrh, tblptru, cstack
  5207 ;; Tracked objects:
  5208 ;;		On entry : 0/0
  5209 ;;		On exit  : 0/0
  5210 ;;		Unchanged: 0/0
  5211 ;; Data sizes:     COMRAM   BANK0   BANK1   BANK2   BANK3   BANK4   BANK5   BANK6   BANK7   BANK8   BANK9  BANK10  BANK1
      +1  BANK12  BANK13
  5212 ;;      Params:         6       0       0       0       0       0       0       0       0       0       0       0       
      +0       0       0
  5213 ;;      Locals:         2       0       0       0       0       0       0       0       0       0       0       0       
      +0       0       0
  5214 ;;      Temps:          0       0       0       0       0       0       0       0       0       0       0       0       
      +0       0       0
  5215 ;;      Totals:         8       0       0       0       0       0       0       0       0       0       0       0       
      +0       0       0
  5216 ;;Total ram usage:        8 bytes
  5217 ;; Hardware stack levels used: 1
  5218 ;; Hardware stack levels required when called: 4
  5219 ;; This function calls:
  5220 ;;		_vfpfcnvrt
  5221 ;; This function is called by:
  5222 ;;		_sprintf
  5223 ;; This function uses a non-reentrant model
  5224 ;;
  5225                           
  5226                           	psect	text26
  5227   0031EA                     __ptext26:
  5228                           	callstack 0
  5229   0031EA                     _vfprintf:
  5230                           	callstack 24
  5231   0031EA                     
  5232                           ;C:\Program Files\Microchip\xc8\v2.40\pic\sources\c99\common\doprnt.c: 1520: int vfprint
      +                          f(FILE *fp, const char *fmt, va_list ap);C:\Program Files\Microchip\xc8\v2.40\pic\source
      +                          s\c99\common\doprnt.c: 1521: {;C:\Program Files\Microchip\xc8\v2.40\pic\sources\c99\comm
      +                          on\doprnt.c: 1523:     char *cfmt;;C:\Program Files\Microchip\xc8\v2.40\pic\sources\c99\
      +                          common\doprnt.c: 1525:     cfmt = (char *)fmt;
  5233   0031EA  C02C  F030         	movff	vfprintf@fmt,vfprintf@cfmt
  5234   0031EE  C02D  F031         	movff	vfprintf@fmt+1,vfprintf@cfmt+1
  5235                           
  5236                           ;C:\Program Files\Microchip\xc8\v2.40\pic\sources\c99\common\doprnt.c: 1529:     while (
      +                          *cfmt) {
  5237   0031F2  EF09  F019         	goto	l2374
  5238   0031F6                     l2372:
  5239                           
  5240                           ;C:\Program Files\Microchip\xc8\v2.40\pic\sources\c99\common\doprnt.c: 1533:    vfpfcnvr
      +                          t(fp, &cfmt, ap);
  5241   0031F6  C02A  F020         	movff	vfprintf@fp,vfpfcnvrt@fp
  5242   0031FA  C02B  F021         	movff	vfprintf@fp+1,vfpfcnvrt@fp+1
  5243   0031FE  0E30               	movlw	low vfprintf@cfmt
  5244   003200  6E22               	movwf	vfpfcnvrt@fmt^0,c
  5245   003202  0E00               	movlw	high vfprintf@cfmt
  5246   003204  6E23               	movwf	(vfpfcnvrt@fmt+1)^0,c
  5247   003206  C02E  F024         	movff	vfprintf@ap,vfpfcnvrt@ap
  5248   00320A  C02F  F025         	movff	vfprintf@ap+1,vfpfcnvrt@ap+1
  5249   00320E  ECEE  F013         	call	_vfpfcnvrt	;wreg free
  5250   003212                     l2374:
  5251                           
  5252                           ;C:\Program Files\Microchip\xc8\v2.40\pic\sources\c99\common\doprnt.c: 1529:     while (
      +                          *cfmt) {
  5253   003212  C030  FFF6         	movff	vfprintf@cfmt,tblptrl
  5254   003216  C031  FFF7         	movff	vfprintf@cfmt+1,tblptrh
  5255   00321A                     	if	0	;tblptru may be non-zero
  5256   00321A                     	endif
  5257   00321A                     	if	0	;tblptru may be non-zero
  5258   00321A                     	endif
  5259   00321A  0008               	tblrd		*
  5260   00321C  50F5               	movf	tablat,w,c
  5261   00321E  0900               	iorlw	0
  5262   003220  A4D8               	btfss	status,2,c
  5263   003222  EF15  F019         	goto	u2351
  5264   003226  EF17  F019         	goto	u2350
  5265   00322A                     u2351:
  5266   00322A  EFFB  F018         	goto	l2372
  5267   00322E                     u2350:
  5268   00322E                     
  5269                           ;C:\Program Files\Microchip\xc8\v2.40\pic\sources\c99\common\doprnt.c: 1538:  return 0;
  5270   00322E  0E00               	movlw	0
  5271   003230  6E2B               	movwf	(?_vfprintf+1)^0,c
  5272   003232  0E00               	movlw	0
  5273   003234  6E2A               	movwf	?_vfprintf^0,c
  5274   003236  0012               	return		;funcret
  5275   003238                     __end_of_vfprintf:
  5276                           	callstack 0
  5277                           
  5278 ;; *************** function _vfpfcnvrt *****************
  5279 ;; Defined at:
  5280 ;;		line 1007 in file "C:\Program Files\Microchip\xc8\v2.40\pic\sources\c99\common\doprnt.c"
  5281 ;; Parameters:    Size  Location     Type
  5282 ;;  fp              2   31[COMRAM] PTR struct _IO_FILE
  5283 ;;		 -> sprintf@f(11), 
  5284 ;;  fmt             2   33[COMRAM] PTR PTR unsigned char 
  5285 ;;		 -> vfprintf@cfmt(2), 
  5286 ;;  ap              2   35[COMRAM] PTR PTR void 
  5287 ;;		 -> sprintf@ap(2), 
  5288 ;; Auto vars:     Size  Location     Type
  5289 ;;  convarg         8    0        struct .
  5290 ;;  cp              3    0        PTR unsigned char 
  5291 ;;  i               2    0        int 
  5292 ;;  done            2    0        int 
  5293 ;;  c               1    0        unsigned char 
  5294 ;; Return value:  Size  Location     Type
  5295 ;;                  1    wreg      void 
  5296 ;; Registers used:
  5297 ;;		wreg, fsr1l, fsr1h, fsr2l, fsr2h, status,2, status,0, tblptrl, tblptrh, tblptru, cstack
  5298 ;; Tracked objects:
  5299 ;;		On entry : 0/0
  5300 ;;		On exit  : 0/0
  5301 ;;		Unchanged: 0/0
  5302 ;; Data sizes:     COMRAM   BANK0   BANK1   BANK2   BANK3   BANK4   BANK5   BANK6   BANK7   BANK8   BANK9  BANK10  BANK1
      +1  BANK12  BANK13
  5303 ;;      Params:         6       0       0       0       0       0       0       0       0       0       0       0       
      +0       0       0
  5304 ;;      Locals:         2       0       0       0       0       0       0       0       0       0       0       0       
      +0       0       0
  5305 ;;      Temps:          2       0       0       0       0       0       0       0       0       0       0       0       
      +0       0       0
  5306 ;;      Totals:        10       0       0       0       0       0       0       0       0       0       0       0       
      +0       0       0
  5307 ;;Total ram usage:       10 bytes
  5308 ;; Hardware stack levels used: 1
  5309 ;; Hardware stack levels required when called: 3
  5310 ;; This function calls:
  5311 ;;		_fputc
  5312 ;;		_stoa
  5313 ;;		_strncmp
  5314 ;; This function is called by:
  5315 ;;		_vfprintf
  5316 ;; This function uses a non-reentrant model
  5317 ;;
  5318                           
  5319                           	psect	text27
  5320   0027DC                     __ptext27:
  5321                           	callstack 0
  5322   0027DC                     _vfpfcnvrt:
  5323                           	callstack 24
  5324   0027DC                     
  5325                           ;C:\Program Files\Microchip\xc8\v2.40\pic\sources\c99\common\doprnt.c: 1007: vfpfcnvrt(F
      +                          ILE *fp, char *fmt[], va_list ap);C:\Program Files\Microchip\xc8\v2.40\pic\sources\c99\c
      +                          ommon\doprnt.c: 1008: {;C:\Program Files\Microchip\xc8\v2.40\pic\sources\c99\common\dopr
      +                          nt.c: 1009:     char c, *cp;;C:\Program Files\Microchip\xc8\v2.40\pic\sources\c99\common
      +                          \doprnt.c: 1010:     int done, i;;C:\Program Files\Microchip\xc8\v2.40\pic\sources\c99\c
      +                          ommon\doprnt.c: 1016:  } convarg;;C:\Program Files\Microchip\xc8\v2.40\pic\sources\c99\c
      +                          ommon\doprnt.c: 1019:     if ((*fmt)[0] == '%') {
  5326   0027DC  C022  FFD9         	movff	vfpfcnvrt@fmt,fsr2l
  5327   0027E0  C023  FFDA         	movff	vfpfcnvrt@fmt+1,fsr2h
  5328   0027E4  CFDE FFF6          	movff	postinc2,tblptrl
  5329   0027E8  CFDD FFF7          	movff	postdec2,tblptrh
  5330   0027EC                     	if	0	;tblptru may be non-zero
  5331   0027EC                     	endif
  5332   0027EC                     	if	0	;tblptru may be non-zero
  5333   0027EC                     	endif
  5334   0027EC  0008               	tblrd		*
  5335   0027EE  50F5               	movf	tablat,w,c
  5336   0027F0  0A25               	xorlw	37
  5337   0027F2  A4D8               	btfss	status,2,c
  5338   0027F4  EFFE  F013         	goto	u1841
  5339   0027F8  EF00  F014         	goto	u1840
  5340   0027FC                     u1841:
  5341   0027FC  EF86  F014         	goto	l2106
  5342   002800                     u1840:
  5343   002800                     
  5344                           ;C:\Program Files\Microchip\xc8\v2.40\pic\sources\c99\common\doprnt.c: 1020:         ++*
      +                          fmt;
  5345   002800  C022  FFD9         	movff	vfpfcnvrt@fmt,fsr2l
  5346   002804  C023  FFDA         	movff	vfpfcnvrt@fmt+1,fsr2h
  5347   002808  2ADE               	incf	postinc2,f,c
  5348   00280A  0E00               	movlw	0
  5349   00280C  22DD               	addwfc	postdec2,f,c
  5350   00280E                     
  5351                           ;C:\Program Files\Microchip\xc8\v2.40\pic\sources\c99\common\doprnt.c: 1022:         fla
      +                          gs = width = 0;
  5352   00280E  0E00               	movlw	0
  5353   002810  0100               	movlb	0	; () banked
  5354   002812  6FC6               	movwf	(_width+1)& (0+255),b
  5355   002814  0E00               	movlw	0
  5356   002816  6FC5               	movwf	_width& (0+255),b
  5357   002818  C0C5  F05F         	movff	_width,_flags
  5358   00281C                     
  5359                           ; BSR set to: 0
  5360                           ;C:\Program Files\Microchip\xc8\v2.40\pic\sources\c99\common\doprnt.c: 1023:         pre
      +                          c = -1;
  5361   00281C  69C7               	setf	_prec& (0+255),b
  5362   00281E  69C8               	setf	(_prec+1)& (0+255),b
  5363   002820                     
  5364                           ; BSR set to: 0
  5365                           ;C:\Program Files\Microchip\xc8\v2.40\pic\sources\c99\common\doprnt.c: 1383:         if 
      +                          (*fmt[0] == 's' || !strncmp(*fmt, "lls", ((sizeof("lls")/sizeof("lls"[0]))-1))) {
  5366   002820  C022  FFD9         	movff	vfpfcnvrt@fmt,fsr2l
  5367   002824  C023  FFDA         	movff	vfpfcnvrt@fmt+1,fsr2h
  5368   002828  CFDE FFF6          	movff	postinc2,tblptrl
  5369   00282C  CFDD FFF7          	movff	postdec2,tblptrh
  5370   002830                     	if	0	;tblptru may be non-zero
  5371   002830                     	endif
  5372   002830                     	if	0	;tblptru may be non-zero
  5373   002830                     	endif
  5374   002830  0008               	tblrd		*
  5375   002832  50F5               	movf	tablat,w,c
  5376   002834  0A73               	xorlw	115
  5377   002836  B4D8               	btfsc	status,2,c
  5378   002838  EF20  F014         	goto	u1851
  5379   00283C  EF22  F014         	goto	u1850
  5380   002840                     u1851:
  5381   002840  EF3D  F014         	goto	l2090
  5382   002844                     u1850:
  5383   002844                     
  5384                           ; BSR set to: 0
  5385   002844  C022  FFD9         	movff	vfpfcnvrt@fmt,fsr2l
  5386   002848  C023  FFDA         	movff	vfpfcnvrt@fmt+1,fsr2h
  5387   00284C  CFDE F001          	movff	postinc2,strncmp@_l
  5388   002850  CFDD F002          	movff	postdec2,strncmp@_l+1
  5389   002854  0E48               	movlw	low STR_35
  5390   002856  6E03               	movwf	strncmp@_r^0,c
  5391   002858  0E0E               	movlw	high STR_35
  5392   00285A  6E04               	movwf	(strncmp@_r+1)^0,c
  5393   00285C  0E00               	movlw	0
  5394   00285E  6E06               	movwf	(strncmp@n+1)^0,c
  5395   002860  0E03               	movlw	3
  5396   002862  6E05               	movwf	strncmp@n^0,c
  5397   002864  EC3E  F016         	call	_strncmp	;wreg free
  5398   002868  5001               	movf	?_strncmp^0,w,c
  5399   00286A  1002               	iorwf	(?_strncmp+1)^0,w,c
  5400   00286C  A4D8               	btfss	status,2,c
  5401   00286E  EF3B  F014         	goto	u1861
  5402   002872  EF3D  F014         	goto	u1860
  5403   002876                     u1861:
  5404   002876  EF7D  F014         	goto	l2102
  5405   00287A                     u1860:
  5406   00287A                     l2090:
  5407                           
  5408                           ;C:\Program Files\Microchip\xc8\v2.40\pic\sources\c99\common\doprnt.c: 1385:    *fmt += 
      +                          *fmt[0] == 's' ? 1 : ((sizeof("lls")/sizeof("lls"[0]))-1);
  5409   00287A  C022  FFD9         	movff	vfpfcnvrt@fmt,fsr2l
  5410   00287E  C023  FFDA         	movff	vfpfcnvrt@fmt+1,fsr2h
  5411   002882  CFDE FFF6          	movff	postinc2,tblptrl
  5412   002886  CFDD FFF7          	movff	postdec2,tblptrh
  5413   00288A                     	if	0	;tblptru may be non-zero
  5414   00288A                     	endif
  5415   00288A                     	if	0	;tblptru may be non-zero
  5416   00288A                     	endif
  5417   00288A  0008               	tblrd		*
  5418   00288C  50F5               	movf	tablat,w,c
  5419   00288E  0A73               	xorlw	115
  5420   002890  B4D8               	btfsc	status,2,c
  5421   002892  EF4D  F014         	goto	u1871
  5422   002896  EF4F  F014         	goto	u1870
  5423   00289A                     u1871:
  5424   00289A  EF55  F014         	goto	l2094
  5425   00289E                     u1870:
  5426   00289E  0E00               	movlw	0
  5427   0028A0  6E29               	movwf	(_vfpfcnvrt$1352+1)^0,c
  5428   0028A2  0E03               	movlw	3
  5429   0028A4  6E28               	movwf	_vfpfcnvrt$1352^0,c
  5430   0028A6  EF59  F014         	goto	l2096
  5431   0028AA                     l2094:
  5432   0028AA  0E00               	movlw	0
  5433   0028AC  6E29               	movwf	(_vfpfcnvrt$1352+1)^0,c
  5434   0028AE  0E01               	movlw	1
  5435   0028B0  6E28               	movwf	_vfpfcnvrt$1352^0,c
  5436   0028B2                     l2096:
  5437   0028B2  C022  FFD9         	movff	vfpfcnvrt@fmt,fsr2l
  5438   0028B6  C023  FFDA         	movff	vfpfcnvrt@fmt+1,fsr2h
  5439   0028BA  5028               	movf	_vfpfcnvrt$1352^0,w,c
  5440   0028BC  26DE               	addwf	postinc2,f,c
  5441   0028BE  5029               	movf	(_vfpfcnvrt$1352+1)^0,w,c
  5442   0028C0  22DD               	addwfc	postdec2,f,c
  5443   0028C2                     
  5444                           ;C:\Program Files\Microchip\xc8\v2.40\pic\sources\c99\common\doprnt.c: 1386:            
      +                           return (void) stoa(fp, (*(char * *)__va_arg(*(char * **)ap, (char *)0)));;	Return value
      +                           of _vfpfcnvrt is never used
  5445   0028C2  C020  F00A         	movff	vfpfcnvrt@fp,stoa@fp
  5446   0028C6  C021  F00B         	movff	vfpfcnvrt@fp+1,stoa@fp+1
  5447   0028CA  C024  FFD9         	movff	vfpfcnvrt@ap,fsr2l
  5448   0028CE  C025  FFDA         	movff	vfpfcnvrt@ap+1,fsr2h
  5449   0028D2  CFDF F026          	movff	indf2,??_vfpfcnvrt
  5450   0028D6  0E02               	movlw	2
  5451   0028D8  26DE               	addwf	postinc2,f,c
  5452   0028DA  CFDF F027          	movff	indf2,??_vfpfcnvrt+1
  5453   0028DE  0E00               	movlw	0
  5454   0028E0  22DD               	addwfc	postdec2,f,c
  5455   0028E2  C026  FFD9         	movff	??_vfpfcnvrt,fsr2l
  5456   0028E6  C027  FFDA         	movff	??_vfpfcnvrt+1,fsr2h
  5457   0028EA  CFDE F00C          	movff	postinc2,stoa@s
  5458   0028EE  CFDD F00D          	movff	postdec2,stoa@s+1
  5459   0028F2  EC9B  F014         	call	_stoa	;wreg free
  5460   0028F6  EF9A  F014         	goto	l962
  5461   0028FA                     l2102:
  5462                           
  5463                           ;C:\Program Files\Microchip\xc8\v2.40\pic\sources\c99\common\doprnt.c: 1509:         ++*
      +                          fmt;
  5464   0028FA  C022  FFD9         	movff	vfpfcnvrt@fmt,fsr2l
  5465   0028FE  C023  FFDA         	movff	vfpfcnvrt@fmt+1,fsr2h
  5466   002902  2ADE               	incf	postinc2,f,c
  5467   002904  0E00               	movlw	0
  5468   002906  22DD               	addwfc	postdec2,f,c
  5469   002908  EF9A  F014         	goto	l962
  5470   00290C                     l2106:
  5471                           
  5472                           ;C:\Program Files\Microchip\xc8\v2.40\pic\sources\c99\common\doprnt.c: 1514:     fputc((
      +                          int)(*fmt)[0], fp);
  5473   00290C  C022  FFD9         	movff	vfpfcnvrt@fmt,fsr2l
  5474   002910  C023  FFDA         	movff	vfpfcnvrt@fmt+1,fsr2h
  5475   002914  CFDE FFF6          	movff	postinc2,tblptrl
  5476   002918  CFDD FFF7          	movff	postdec2,tblptrh
  5477   00291C                     	if	0	;tblptru may be non-zero
  5478   00291C                     	endif
  5479   00291C                     	if	0	;tblptru may be non-zero
  5480   00291C                     	endif
  5481   00291C  0008               	tblrd		*
  5482   00291E  50F5               	movf	tablat,w,c
  5483   002920  6E01               	movwf	fputc@c^0,c
  5484   002922  6A02               	clrf	(fputc@c+1)^0,c
  5485   002924  C020  F003         	movff	vfpfcnvrt@fp,fputc@fp
  5486   002928  C021  F004         	movff	vfpfcnvrt@fp+1,fputc@fp+1
  5487   00292C  EC1A  F017         	call	_fputc	;wreg free
  5488   002930  EF7D  F014         	goto	l2102
  5489   002934                     l962:
  5490   002934  0012               	return		;funcret
  5491   002936                     __end_of_vfpfcnvrt:
  5492                           	callstack 0
  5493                           
  5494 ;; *************** function _strncmp *****************
  5495 ;; Defined at:
  5496 ;;		line 3 in file "C:\Program Files\Microchip\xc8\v2.40\pic\sources\c99\common\strncmp.c"
  5497 ;; Parameters:    Size  Location     Type
  5498 ;;  _l              2    0[COMRAM] PTR const unsigned char 
  5499 ;;		 -> STR_34(16), 
  5500 ;;  _r              2    2[COMRAM] PTR const unsigned char 
  5501 ;;		 -> STR_37(4), 
  5502 ;;  n               2    4[COMRAM] unsigned int 
  5503 ;; Auto vars:     Size  Location     Type
  5504 ;;  r               2    9[COMRAM] PTR const unsigned char 
  5505 ;;		 -> STR_37(4), 
  5506 ;;  l               2    7[COMRAM] PTR const unsigned char 
  5507 ;;		 -> STR_34(16), 
  5508 ;; Return value:  Size  Location     Type
  5509 ;;                  2    0[COMRAM] int 
  5510 ;; Registers used:
  5511 ;;		wreg, status,2, status,0, tblptrl, tblptrh, tblptru
  5512 ;; Tracked objects:
  5513 ;;		On entry : 0/0
  5514 ;;		On exit  : 0/0
  5515 ;;		Unchanged: 0/0
  5516 ;; Data sizes:     COMRAM   BANK0   BANK1   BANK2   BANK3   BANK4   BANK5   BANK6   BANK7   BANK8   BANK9  BANK10  BANK1
      +1  BANK12  BANK13
  5517 ;;      Params:         6       0       0       0       0       0       0       0       0       0       0       0       
      +0       0       0
  5518 ;;      Locals:         4       0       0       0       0       0       0       0       0       0       0       0       
      +0       0       0
  5519 ;;      Temps:          1       0       0       0       0       0       0       0       0       0       0       0       
      +0       0       0
  5520 ;;      Totals:        11       0       0       0       0       0       0       0       0       0       0       0       
      +0       0       0
  5521 ;;Total ram usage:       11 bytes
  5522 ;; Hardware stack levels used: 1
  5523 ;; This function calls:
  5524 ;;		Nothing
  5525 ;; This function is called by:
  5526 ;;		_vfpfcnvrt
  5527 ;; This function uses a non-reentrant model
  5528 ;;
  5529                           
  5530                           	psect	text28
  5531   002C7C                     __ptext28:
  5532                           	callstack 0
  5533   002C7C                     _strncmp:
  5534                           	callstack 26
  5535   002C7C  C001  F008         	movff	strncmp@_l,strncmp@l
  5536   002C80  C002  F009         	movff	strncmp@_l+1,strncmp@l+1
  5537   002C84  C003  F00A         	movff	strncmp@_r,strncmp@r
  5538   002C88  C004  F00B         	movff	strncmp@_r+1,strncmp@r+1
  5539   002C8C  0605               	decf	strncmp@n^0,f,c
  5540   002C8E  A0D8               	btfss	status,0,c
  5541   002C90  0606               	decf	(strncmp@n+1)^0,f,c
  5542   002C92  2805               	incf	strncmp@n^0,w,c
  5543   002C94  E106               	bnz	u1771
  5544   002C96  2806               	incf	(strncmp@n+1)^0,w,c
  5545   002C98  A4D8               	btfss	status,2,c
  5546   002C9A  EF51  F016         	goto	u1771
  5547   002C9E  EF53  F016         	goto	u1770
  5548   002CA2                     u1771:
  5549   002CA2  EF60  F016         	goto	l2062
  5550   002CA6                     u1770:
  5551   002CA6  0E00               	movlw	0
  5552   002CA8  6E02               	movwf	(?_strncmp+1)^0,c
  5553   002CAA  0E00               	movlw	0
  5554   002CAC  6E01               	movwf	?_strncmp^0,c
  5555   002CAE  EFAC  F016         	goto	l1001
  5556   002CB2                     l2060:
  5557   002CB2  4A08               	infsnz	strncmp@l^0,f,c
  5558   002CB4  2A09               	incf	(strncmp@l+1)^0,f,c
  5559   002CB6  4A0A               	infsnz	strncmp@r^0,f,c
  5560   002CB8  2A0B               	incf	(strncmp@r+1)^0,f,c
  5561   002CBA  0605               	decf	strncmp@n^0,f,c
  5562   002CBC  A0D8               	btfss	status,0,c
  5563   002CBE  0606               	decf	(strncmp@n+1)^0,f,c
  5564   002CC0                     l2062:
  5565   002CC0  C008  FFF6         	movff	strncmp@l,tblptrl
  5566   002CC4  C009  FFF7         	movff	strncmp@l+1,tblptrh
  5567   002CC8                     	if	0	;tblptru may be non-zero
  5568   002CC8                     	endif
  5569   002CC8                     	if	0	;tblptru may be non-zero
  5570   002CC8                     	endif
  5571   002CC8  0008               	tblrd		*
  5572   002CCA  50F5               	movf	tablat,w,c
  5573   002CCC  0900               	iorlw	0
  5574   002CCE  B4D8               	btfsc	status,2,c
  5575   002CD0  EF6C  F016         	goto	u1781
  5576   002CD4  EF6E  F016         	goto	u1780
  5577   002CD8                     u1781:
  5578   002CD8  EF9A  F016         	goto	l2070
  5579   002CDC                     u1780:
  5580   002CDC  C00A  FFF6         	movff	strncmp@r,tblptrl
  5581   002CE0  C00B  FFF7         	movff	strncmp@r+1,tblptrh
  5582   002CE4                     	if	0	;tblptru may be non-zero
  5583   002CE4                     	endif
  5584   002CE4                     	if	0	;tblptru may be non-zero
  5585   002CE4                     	endif
  5586   002CE4  0008               	tblrd		*
  5587   002CE6  50F5               	movf	tablat,w,c
  5588   002CE8  0900               	iorlw	0
  5589   002CEA  B4D8               	btfsc	status,2,c
  5590   002CEC  EF7A  F016         	goto	u1791
  5591   002CF0  EF7C  F016         	goto	u1790
  5592   002CF4                     u1791:
  5593   002CF4  EF9A  F016         	goto	l2070
  5594   002CF8                     u1790:
  5595   002CF8  5005               	movf	strncmp@n^0,w,c
  5596   002CFA  1006               	iorwf	(strncmp@n+1)^0,w,c
  5597   002CFC  B4D8               	btfsc	status,2,c
  5598   002CFE  EF83  F016         	goto	u1801
  5599   002D02  EF85  F016         	goto	u1800
  5600   002D06                     u1801:
  5601   002D06  EF9A  F016         	goto	l2070
  5602   002D0A                     u1800:
  5603   002D0A  C008  FFF6         	movff	strncmp@l,tblptrl
  5604   002D0E  C009  FFF7         	movff	strncmp@l+1,tblptrh
  5605   002D12                     	if	0	;tblptru may be non-zero
  5606   002D12                     	endif
  5607   002D12                     	if	0	;tblptru may be non-zero
  5608   002D12                     	endif
  5609   002D12  0008               	tblrd		*
  5610   002D14  CFF5 F007          	movff	tablat,??_strncmp
  5611   002D18  C00A  FFF6         	movff	strncmp@r,tblptrl
  5612   002D1C  C00B  FFF7         	movff	strncmp@r+1,tblptrh
  5613   002D20                     	if	0	;tblptru may be non-zero
  5614   002D20                     	endif
  5615   002D20                     	if	0	;tblptru may be non-zero
  5616   002D20                     	endif
  5617   002D20  0008               	tblrd		*
  5618   002D22  50F5               	movf	tablat,w,c
  5619   002D24  1807               	xorwf	??_strncmp^0,w,c
  5620   002D26  B4D8               	btfsc	status,2,c
  5621   002D28  EF98  F016         	goto	u1811
  5622   002D2C  EF9A  F016         	goto	u1810
  5623   002D30                     u1811:
  5624   002D30  EF59  F016         	goto	l2060
  5625   002D34                     u1810:
  5626   002D34                     l2070:
  5627   002D34  C008  FFF6         	movff	strncmp@l,tblptrl
  5628   002D38  C009  FFF7         	movff	strncmp@l+1,tblptrh
  5629   002D3C                     	if	0	;tblptru may be non-zero
  5630   002D3C                     	endif
  5631   002D3C                     	if	0	;tblptru may be non-zero
  5632   002D3C                     	endif
  5633   002D3C  0008               	tblrd		*
  5634   002D3E  CFF5 F007          	movff	tablat,??_strncmp
  5635   002D42  C00A  FFF6         	movff	strncmp@r,tblptrl
  5636   002D46  C00B  FFF7         	movff	strncmp@r+1,tblptrh
  5637   002D4A                     	if	0	;tblptru may be non-zero
  5638   002D4A                     	endif
  5639   002D4A                     	if	0	;tblptru may be non-zero
  5640   002D4A                     	endif
  5641   002D4A  0008               	tblrd		*
  5642   002D4C  50F5               	movf	tablat,w,c
  5643   002D4E  5C07               	subwf	??_strncmp^0,w,c
  5644   002D50  6E01               	movwf	?_strncmp^0,c
  5645   002D52  6A02               	clrf	(?_strncmp+1)^0,c
  5646   002D54  A0D8               	btfss	status,0,c
  5647   002D56  0602               	decf	(?_strncmp+1)^0,f,c
  5648   002D58                     l1001:
  5649   002D58  0012               	return		;funcret
  5650   002D5A                     __end_of_strncmp:
  5651                           	callstack 0
  5652                           
  5653 ;; *************** function _stoa *****************
  5654 ;; Defined at:
  5655 ;;		line 839 in file "C:\Program Files\Microchip\xc8\v2.40\pic\sources\c99\common\doprnt.c"
  5656 ;; Parameters:    Size  Location     Type
  5657 ;;  fp              2    9[COMRAM] PTR struct _IO_FILE
  5658 ;;		 -> sprintf@f(11), 
  5659 ;;  s               2   11[COMRAM] PTR unsigned char 
  5660 ;;		 -> ?_sprintf(2), STR_17(10), STR_16(11), STR_15(7), 
  5661 ;;		 -> STR_14(7), STR_13(5), STR_12(9), STR_11(6), 
  5662 ;;		 -> STR_10(4), STR_9(1), 
  5663 ;; Auto vars:     Size  Location     Type
  5664 ;;  nuls            7   14[COMRAM] unsigned char [7]
  5665 ;;  p               2   29[COMRAM] int 
  5666 ;;  l               2   27[COMRAM] int 
  5667 ;;  cp              2   25[COMRAM] PTR unsigned char 
  5668 ;;		 -> stoa@nuls(7), ?_sprintf(2), STR_17(10), STR_16(11), 
  5669 ;;		 -> STR_15(7), STR_14(7), STR_13(5), STR_12(9), 
  5670 ;;		 -> STR_11(6), STR_10(4), STR_9(1), 
  5671 ;;  i               2   23[COMRAM] int 
  5672 ;;  w               2   21[COMRAM] int 
  5673 ;; Return value:  Size  Location     Type
  5674 ;;                  1    wreg      void 
  5675 ;; Registers used:
  5676 ;;		wreg, fsr1l, fsr1h, fsr2l, fsr2h, status,2, status,0, tblptrl, tblptrh, tblptru, cstack
  5677 ;; Tracked objects:
  5678 ;;		On entry : 0/0
  5679 ;;		On exit  : 0/0
  5680 ;;		Unchanged: 0/0
  5681 ;; Data sizes:     COMRAM   BANK0   BANK1   BANK2   BANK3   BANK4   BANK5   BANK6   BANK7   BANK8   BANK9  BANK10  BANK1
      +1  BANK12  BANK13
  5682 ;;      Params:         4       0       0       0       0       0       0       0       0       0       0       0       
      +0       0       0
  5683 ;;      Locals:        17       0       0       0       0       0       0       0       0       0       0       0       
      +0       0       0
  5684 ;;      Temps:          1       0       0       0       0       0       0       0       0       0       0       0       
      +0       0       0
  5685 ;;      Totals:        22       0       0       0       0       0       0       0       0       0       0       0       
      +0       0       0
  5686 ;;Total ram usage:       22 bytes
  5687 ;; Hardware stack levels used: 1
  5688 ;; Hardware stack levels required when called: 2
  5689 ;; This function calls:
  5690 ;;		_fputc
  5691 ;;		_strlen
  5692 ;; This function is called by:
  5693 ;;		_vfpfcnvrt
  5694 ;; This function uses a non-reentrant model
  5695 ;;
  5696                           
  5697                           	psect	text29
  5698   002936                     __ptext29:
  5699                           	callstack 0
  5700   002936                     _stoa:
  5701                           	callstack 24
  5702   002936                     
  5703                           ;C:\Program Files\Microchip\xc8\v2.40\pic\sources\c99\common\doprnt.c: 839: static void 
      +                          stoa(FILE *fp, char *s);C:\Program Files\Microchip\xc8\v2.40\pic\sources\c99\common\dopr
      +                          nt.c: 840: {;C:\Program Files\Microchip\xc8\v2.40\pic\sources\c99\common\doprnt.c: 841: 
      +                              char *cp, nuls[] = "(null)";
  5704   002936  EE20  F0ED         	lfsr	2,stoa@F1144
  5705   00293A  EE10  F00F         	lfsr	1,stoa@nuls
  5706   00293E  0E06               	movlw	6
  5707   002940                     u1701:
  5708   002940  CFDB FFE3          	movff	plusw2,plusw1
  5709   002944  06E8               	decf	wreg,f,c
  5710   002946  E2FC               	bc	u1701
  5711   002948                     
  5712                           ;C:\Program Files\Microchip\xc8\v2.40\pic\sources\c99\common\doprnt.c: 842:     int i, l
      +                          , p, w;;C:\Program Files\Microchip\xc8\v2.40\pic\sources\c99\common\doprnt.c: 845:     c
      +                          p = s;
  5713   002948  C00C  F01A         	movff	stoa@s,stoa@cp
  5714   00294C  C00D  F01B         	movff	stoa@s+1,stoa@cp+1
  5715   002950                     
  5716                           ;C:\Program Files\Microchip\xc8\v2.40\pic\sources\c99\common\doprnt.c: 846:     if (!cp)
      +                           {
  5717   002950  501A               	movf	stoa@cp^0,w,c
  5718   002952  101B               	iorwf	(stoa@cp+1)^0,w,c
  5719   002954  A4D8               	btfss	status,2,c
  5720   002956  EFAF  F014         	goto	u1711
  5721   00295A  EFB1  F014         	goto	u1710
  5722   00295E                     u1711:
  5723   00295E  EFB5  F014         	goto	l2030
  5724   002962                     u1710:
  5725   002962                     
  5726                           ;C:\Program Files\Microchip\xc8\v2.40\pic\sources\c99\common\doprnt.c: 847:         cp =
      +                           nuls;
  5727   002962  0E0F               	movlw	low stoa@nuls
  5728   002964  6E1A               	movwf	stoa@cp^0,c
  5729   002966  0E00               	movlw	high stoa@nuls
  5730   002968  6E1B               	movwf	(stoa@cp+1)^0,c
  5731   00296A                     l2030:
  5732                           
  5733                           ;C:\Program Files\Microchip\xc8\v2.40\pic\sources\c99\common\doprnt.c: 851:     l = (int
      +                          )strlen(cp);
  5734   00296A  C01A  F001         	movff	stoa@cp,strlen@s
  5735   00296E  C01B  F002         	movff	stoa@cp+1,strlen@s+1
  5736   002972  ECA6  F018         	call	_strlen	;wreg free
  5737   002976  C001  F01C         	movff	?_strlen,stoa@l
  5738   00297A  C002  F01D         	movff	?_strlen+1,stoa@l+1
  5739   00297E                     
  5740                           ;C:\Program Files\Microchip\xc8\v2.40\pic\sources\c99\common\doprnt.c: 852:     p = prec
      +                          ;
  5741   00297E  C0C7  F01E         	movff	_prec,stoa@p
  5742   002982  C0C8  F01F         	movff	_prec+1,stoa@p+1
  5743   002986                     
  5744                           ;C:\Program Files\Microchip\xc8\v2.40\pic\sources\c99\common\doprnt.c: 853:     l = (!(p
      +                           < 0) && (p < l)) ? p : l;
  5745   002986  BE1F               	btfsc	(stoa@p+1)^0,7,c
  5746   002988  EFC8  F014         	goto	u1721
  5747   00298C  EFCA  F014         	goto	u1720
  5748   002990                     u1721:
  5749   002990  EFDF  F014         	goto	l942
  5750   002994                     u1720:
  5751   002994  501C               	movf	stoa@l^0,w,c
  5752   002996  5C1E               	subwf	stoa@p^0,w,c
  5753   002998  501F               	movf	(stoa@p+1)^0,w,c
  5754   00299A  0A80               	xorlw	128
  5755   00299C  6E0E               	movwf	??_stoa^0,c
  5756   00299E  501D               	movf	(stoa@l+1)^0,w,c
  5757   0029A0  0A80               	xorlw	128
  5758   0029A2  580E               	subwfb	??_stoa^0,w,c
  5759   0029A4  A0D8               	btfss	status,0,c
  5760   0029A6  EFD7  F014         	goto	u1731
  5761   0029AA  EFD9  F014         	goto	u1730
  5762   0029AE                     u1731:
  5763   0029AE  EFDB  F014         	goto	l940
  5764   0029B2                     u1730:
  5765   0029B2  EFDF  F014         	goto	l942
  5766   0029B6                     l940:
  5767   0029B6  C01E  F01C         	movff	stoa@p,stoa@l
  5768   0029BA  C01F  F01D         	movff	stoa@p+1,stoa@l+1
  5769   0029BE                     l942:
  5770                           
  5771                           ;C:\Program Files\Microchip\xc8\v2.40\pic\sources\c99\common\doprnt.c: 854:     p = l;
  5772   0029BE  C01C  F01E         	movff	stoa@l,stoa@p
  5773   0029C2  C01D  F01F         	movff	stoa@l+1,stoa@p+1
  5774                           
  5775                           ;C:\Program Files\Microchip\xc8\v2.40\pic\sources\c99\common\doprnt.c: 855:     w = widt
      +                          h;
  5776   0029C6  C0C5  F016         	movff	_width,stoa@w
  5777   0029CA  C0C6  F017         	movff	_width+1,stoa@w+1
  5778                           
  5779                           ;C:\Program Files\Microchip\xc8\v2.40\pic\sources\c99\common\doprnt.c: 861:         whil
      +                          e (l < w) {
  5780   0029CE  EFF5  F014         	goto	l2042
  5781   0029D2                     l2038:
  5782                           
  5783                           ;C:\Program Files\Microchip\xc8\v2.40\pic\sources\c99\common\doprnt.c: 862:             
      +                          fputc(' ', fp);
  5784   0029D2  0E00               	movlw	0
  5785   0029D4  6E02               	movwf	(fputc@c+1)^0,c
  5786   0029D6  0E20               	movlw	32
  5787   0029D8  6E01               	movwf	fputc@c^0,c
  5788   0029DA  C00A  F003         	movff	stoa@fp,fputc@fp
  5789   0029DE  C00B  F004         	movff	stoa@fp+1,fputc@fp+1
  5790   0029E2  EC1A  F017         	call	_fputc	;wreg free
  5791   0029E6                     
  5792                           ;C:\Program Files\Microchip\xc8\v2.40\pic\sources\c99\common\doprnt.c: 863:             
      +                          ++l;
  5793   0029E6  4A1C               	infsnz	stoa@l^0,f,c
  5794   0029E8  2A1D               	incf	(stoa@l+1)^0,f,c
  5795   0029EA                     l2042:
  5796                           
  5797                           ;C:\Program Files\Microchip\xc8\v2.40\pic\sources\c99\common\doprnt.c: 861:         whil
      +                          e (l < w) {
  5798   0029EA  5016               	movf	stoa@w^0,w,c
  5799   0029EC  5C1C               	subwf	stoa@l^0,w,c
  5800   0029EE  501D               	movf	(stoa@l+1)^0,w,c
  5801   0029F0  0A80               	xorlw	128
  5802   0029F2  6E0E               	movwf	??_stoa^0,c
  5803   0029F4  5017               	movf	(stoa@w+1)^0,w,c
  5804   0029F6  0A80               	xorlw	128
  5805   0029F8  580E               	subwfb	??_stoa^0,w,c
  5806   0029FA  A0D8               	btfss	status,0,c
  5807   0029FC  EF02  F015         	goto	u1741
  5808   002A00  EF04  F015         	goto	u1740
  5809   002A04                     u1741:
  5810   002A04  EFE9  F014         	goto	l2038
  5811   002A08                     u1740:
  5812   002A08                     
  5813                           ;C:\Program Files\Microchip\xc8\v2.40\pic\sources\c99\common\doprnt.c: 870:     i = 0;
  5814   002A08  0E00               	movlw	0
  5815   002A0A  6E19               	movwf	(stoa@i+1)^0,c
  5816   002A0C  0E00               	movlw	0
  5817   002A0E  6E18               	movwf	stoa@i^0,c
  5818                           
  5819                           ;C:\Program Files\Microchip\xc8\v2.40\pic\sources\c99\common\doprnt.c: 871:     while (i
      +                           < p) {
  5820   002A10  EF29  F015         	goto	l2052
  5821   002A14                     l2046:
  5822                           
  5823                           ;C:\Program Files\Microchip\xc8\v2.40\pic\sources\c99\common\doprnt.c: 872:         fput
      +                          c(*cp, fp);
  5824   002A14  C01A  FFF6         	movff	stoa@cp,tblptrl
  5825   002A18  C01B  FFF7         	movff	stoa@cp+1,tblptrh
  5826   002A1C  0E00               	movlw	low (__smallconst shr (0+16))
  5827   002A1E  6EF8               	movwf	tblptru,c
  5828   002A20  0E0D               	movlw	(high __ramtop+-1)
  5829   002A22  64F7               	cpfsgt	tblptrh,c
  5830   002A24  D003               	bra	u1757
  5831   002A26  0008               	tblrd		*
  5832   002A28  50F5               	movf	tablat,w,c
  5833   002A2A  D005               	bra	u1750
  5834   002A2C                     u1757:
  5835   002A2C  CFF6 FFE1          	movff	tblptrl,fsr1l
  5836   002A30  CFF7 FFE2          	movff	tblptrh,fsr1h
  5837   002A34  50E7               	movf	indf1,w,c
  5838   002A36                     u1750:
  5839   002A36  6E0E               	movwf	??_stoa^0,c
  5840   002A38  500E               	movf	??_stoa^0,w,c
  5841   002A3A  6E01               	movwf	fputc@c^0,c
  5842   002A3C  6A02               	clrf	(fputc@c+1)^0,c
  5843   002A3E  C00A  F003         	movff	stoa@fp,fputc@fp
  5844   002A42  C00B  F004         	movff	stoa@fp+1,fputc@fp+1
  5845   002A46  EC1A  F017         	call	_fputc	;wreg free
  5846   002A4A                     
  5847                           ;C:\Program Files\Microchip\xc8\v2.40\pic\sources\c99\common\doprnt.c: 873:         ++cp
      +                          ;
  5848   002A4A  4A1A               	infsnz	stoa@cp^0,f,c
  5849   002A4C  2A1B               	incf	(stoa@cp+1)^0,f,c
  5850   002A4E                     
  5851                           ;C:\Program Files\Microchip\xc8\v2.40\pic\sources\c99\common\doprnt.c: 874:         ++i;
  5852   002A4E  4A18               	infsnz	stoa@i^0,f,c
  5853   002A50  2A19               	incf	(stoa@i+1)^0,f,c
  5854   002A52                     l2052:
  5855                           
  5856                           ;C:\Program Files\Microchip\xc8\v2.40\pic\sources\c99\common\doprnt.c: 871:     while (i
      +                           < p) {
  5857   002A52  501E               	movf	stoa@p^0,w,c
  5858   002A54  5C18               	subwf	stoa@i^0,w,c
  5859   002A56  5019               	movf	(stoa@i+1)^0,w,c
  5860   002A58  0A80               	xorlw	128
  5861   002A5A  6E0E               	movwf	??_stoa^0,c
  5862   002A5C  501F               	movf	(stoa@p+1)^0,w,c
  5863   002A5E  0A80               	xorlw	128
  5864   002A60  580E               	subwfb	??_stoa^0,w,c
  5865   002A62  A0D8               	btfss	status,0,c
  5866   002A64  EF36  F015         	goto	u1761
  5867   002A68  EF38  F015         	goto	u1760
  5868   002A6C                     u1761:
  5869   002A6C  EF0A  F015         	goto	l2046
  5870   002A70                     u1760:
  5871   002A70  0012               	return		;funcret
  5872   002A72                     __end_of_stoa:
  5873                           	callstack 0
  5874                           
  5875 ;; *************** function _strlen *****************
  5876 ;; Defined at:
  5877 ;;		line 5 in file "C:\Program Files\Microchip\xc8\v2.40\pic\sources\c99\common\strlen.c"
  5878 ;; Parameters:    Size  Location     Type
  5879 ;;  s               2    0[COMRAM] PTR const unsigned char 
  5880 ;;		 -> stoa@nuls(7), ?_sprintf(2), STR_17(10), STR_16(11), 
  5881 ;;		 -> STR_15(7), STR_14(7), STR_13(5), STR_12(9), 
  5882 ;;		 -> STR_11(6), STR_10(4), STR_9(1), 
  5883 ;; Auto vars:     Size  Location     Type
  5884 ;;  a               2    2[COMRAM] PTR const unsigned char 
  5885 ;;		 -> stoa@nuls(7), ?_sprintf(2), STR_17(10), STR_16(11), 
  5886 ;;		 -> STR_15(7), STR_14(7), STR_13(5), STR_12(9), 
  5887 ;;		 -> STR_11(6), STR_10(4), STR_9(1), 
  5888 ;; Return value:  Size  Location     Type
  5889 ;;                  2    0[COMRAM] unsigned int 
  5890 ;; Registers used:
  5891 ;;		wreg, fsr1l, fsr1h, status,2, status,0, tblptrl, tblptrh, tblptru
  5892 ;; Tracked objects:
  5893 ;;		On entry : 0/0
  5894 ;;		On exit  : 0/0
  5895 ;;		Unchanged: 0/0
  5896 ;; Data sizes:     COMRAM   BANK0   BANK1   BANK2   BANK3   BANK4   BANK5   BANK6   BANK7   BANK8   BANK9  BANK10  BANK1
      +1  BANK12  BANK13
  5897 ;;      Params:         2       0       0       0       0       0       0       0       0       0       0       0       
      +0       0       0
  5898 ;;      Locals:         2       0       0       0       0       0       0       0       0       0       0       0       
      +0       0       0
  5899 ;;      Temps:          0       0       0       0       0       0       0       0       0       0       0       0       
      +0       0       0
  5900 ;;      Totals:         4       0       0       0       0       0       0       0       0       0       0       0       
      +0       0       0
  5901 ;;Total ram usage:        4 bytes
  5902 ;; Hardware stack levels used: 1
  5903 ;; This function calls:
  5904 ;;		Nothing
  5905 ;; This function is called by:
  5906 ;;		_stoa
  5907 ;; This function uses a non-reentrant model
  5908 ;;
  5909                           
  5910                           	psect	text30
  5911   00314C                     __ptext30:
  5912                           	callstack 0
  5913   00314C                     _strlen:
  5914                           	callstack 25
  5915   00314C  C001  F003         	movff	strlen@s,strlen@a
  5916   003150  C002  F004         	movff	strlen@s+1,strlen@a+1
  5917   003154  EFAE  F018         	goto	l2016
  5918   003158                     l2014:
  5919   003158  4A01               	infsnz	strlen@s^0,f,c
  5920   00315A  2A02               	incf	(strlen@s+1)^0,f,c
  5921   00315C                     l2016:
  5922   00315C  C001  FFF6         	movff	strlen@s,tblptrl
  5923   003160  C002  FFF7         	movff	strlen@s+1,tblptrh
  5924   003164  0E00               	movlw	low (__smallconst shr (0+16))
  5925   003166  6EF8               	movwf	tblptru,c
  5926   003168  0E0D               	movlw	(high __ramtop+-1)
  5927   00316A  64F7               	cpfsgt	tblptrh,c
  5928   00316C  D003               	bra	u1687
  5929   00316E  0008               	tblrd		*
  5930   003170  50F5               	movf	tablat,w,c
  5931   003172  D005               	bra	u1680
  5932   003174                     u1687:
  5933   003174  CFF6 FFE1          	movff	tblptrl,fsr1l
  5934   003178  CFF7 FFE2          	movff	tblptrh,fsr1h
  5935   00317C  50E7               	movf	indf1,w,c
  5936   00317E                     u1680:
  5937   00317E  0900               	iorlw	0
  5938   003180  A4D8               	btfss	status,2,c
  5939   003182  EFC5  F018         	goto	u1691
  5940   003186  EFC7  F018         	goto	u1690
  5941   00318A                     u1691:
  5942   00318A  EFAC  F018         	goto	l2014
  5943   00318E                     u1690:
  5944   00318E  5003               	movf	strlen@a^0,w,c
  5945   003190  5C01               	subwf	strlen@s^0,w,c
  5946   003192  6E01               	movwf	?_strlen^0,c
  5947   003194  5004               	movf	(strlen@a+1)^0,w,c
  5948   003196  5802               	subwfb	(strlen@s+1)^0,w,c
  5949   003198  6E02               	movwf	(?_strlen+1)^0,c
  5950   00319A  0012               	return		;funcret
  5951   00319C                     __end_of_strlen:
  5952                           	callstack 0
  5953                           
  5954 ;; *************** function _fputc *****************
  5955 ;; Defined at:
  5956 ;;		line 8 in file "C:\Program Files\Microchip\xc8\v2.40\pic\sources\c99\common\nf_fputc.c"
  5957 ;; Parameters:    Size  Location     Type
  5958 ;;  c               2    0[COMRAM] int 
  5959 ;;  fp              2    2[COMRAM] PTR struct _IO_FILE
  5960 ;;		 -> sprintf@f(11), 
  5961 ;; Auto vars:     Size  Location     Type
  5962 ;;		None
  5963 ;; Return value:  Size  Location     Type
  5964 ;;                  2    0[COMRAM] int 
  5965 ;; Registers used:
  5966 ;;		wreg, fsr1l, fsr1h, fsr2l, fsr2h, status,2, status,0, cstack
  5967 ;; Tracked objects:
  5968 ;;		On entry : 0/0
  5969 ;;		On exit  : 0/0
  5970 ;;		Unchanged: 0/0
  5971 ;; Data sizes:     COMRAM   BANK0   BANK1   BANK2   BANK3   BANK4   BANK5   BANK6   BANK7   BANK8   BANK9  BANK10  BANK1
      +1  BANK12  BANK13
  5972 ;;      Params:         4       0       0       0       0       0       0       0       0       0       0       0       
      +0       0       0
  5973 ;;      Locals:         0       0       0       0       0       0       0       0       0       0       0       0       
      +0       0       0
  5974 ;;      Temps:          5       0       0       0       0       0       0       0       0       0       0       0       
      +0       0       0
  5975 ;;      Totals:         9       0       0       0       0       0       0       0       0       0       0       0       
      +0       0       0
  5976 ;;Total ram usage:        9 bytes
  5977 ;; Hardware stack levels used: 1
  5978 ;; Hardware stack levels required when called: 1
  5979 ;; This function calls:
  5980 ;;		_putch
  5981 ;; This function is called by:
  5982 ;;		_stoa
  5983 ;;		_vfpfcnvrt
  5984 ;; This function uses a non-reentrant model
  5985 ;;
  5986                           
  5987                           	psect	text31
  5988   002E34                     __ptext31:
  5989                           	callstack 0
  5990   002E34                     _fputc:
  5991                           	callstack 24
  5992   002E34  5003               	movf	fputc@fp^0,w,c
  5993   002E36  1004               	iorwf	(fputc@fp+1)^0,w,c
  5994   002E38  B4D8               	btfsc	status,2,c
  5995   002E3A  EF21  F017         	goto	u1641
  5996   002E3E  EF23  F017         	goto	u1640
  5997   002E42                     u1641:
  5998   002E42  EF2C  F017         	goto	l2002
  5999   002E46                     u1640:
  6000   002E46  5003               	movf	fputc@fp^0,w,c
  6001   002E48  1004               	iorwf	(fputc@fp+1)^0,w,c
  6002   002E4A  A4D8               	btfss	status,2,c
  6003   002E4C  EF2A  F017         	goto	u1651
  6004   002E50  EF2C  F017         	goto	u1650
  6005   002E54                     u1651:
  6006   002E54  EF31  F017         	goto	l2004
  6007   002E58                     u1650:
  6008   002E58                     l2002:
  6009   002E58  5001               	movf	fputc@c^0,w,c
  6010   002E5A  EC53  F01A         	call	_putch
  6011   002E5E  EF7E  F017         	goto	l980
  6012   002E62                     l2004:
  6013   002E62  EE20 F009          	lfsr	2,9
  6014   002E66  5003               	movf	fputc@fp^0,w,c
  6015   002E68  26D9               	addwf	fsr2l,f,c
  6016   002E6A  5004               	movf	(fputc@fp+1)^0,w,c
  6017   002E6C  22DA               	addwfc	fsr2h,f,c
  6018   002E6E  50DE               	movf	postinc2,w,c
  6019   002E70  10DE               	iorwf	postinc2,w,c
  6020   002E72  B4D8               	btfsc	status,2,c
  6021   002E74  EF3E  F017         	goto	u1661
  6022   002E78  EF40  F017         	goto	u1660
  6023   002E7C                     u1661:
  6024   002E7C  EF5B  F017         	goto	l2008
  6025   002E80                     u1660:
  6026   002E80  EE20 F009          	lfsr	2,9
  6027   002E84  5003               	movf	fputc@fp^0,w,c
  6028   002E86  26D9               	addwf	fsr2l,f,c
  6029   002E88  5004               	movf	(fputc@fp+1)^0,w,c
  6030   002E8A  22DA               	addwfc	fsr2h,f,c
  6031   002E8C  EE10 F003          	lfsr	1,3
  6032   002E90  5003               	movf	fputc@fp^0,w,c
  6033   002E92  26E1               	addwf	fsr1l,f,c
  6034   002E94  5004               	movf	(fputc@fp+1)^0,w,c
  6035   002E96  22E2               	addwfc	fsr1h,f,c
  6036   002E98  50DE               	movf	postinc2,w,c
  6037   002E9A  5CE6               	subwf	postinc1,w,c
  6038   002E9C  50E6               	movf	postinc1,w,c
  6039   002E9E  0A80               	xorlw	128
  6040   002EA0  6E09               	movwf	(??_fputc+4)^0,c
  6041   002EA2  50DE               	movf	postinc2,w,c
  6042   002EA4  0A80               	xorlw	128
  6043   002EA6  5809               	subwfb	(??_fputc+4)^0,w,c
  6044   002EA8  B0D8               	btfsc	status,0,c
  6045   002EAA  EF59  F017         	goto	u1671
  6046   002EAE  EF5B  F017         	goto	u1670
  6047   002EB2                     u1671:
  6048   002EB2  EF7E  F017         	goto	l980
  6049   002EB6                     u1670:
  6050   002EB6                     l2008:
  6051   002EB6  EE20 F003          	lfsr	2,3
  6052   002EBA  5003               	movf	fputc@fp^0,w,c
  6053   002EBC  26D9               	addwf	fsr2l,f,c
  6054   002EBE  5004               	movf	(fputc@fp+1)^0,w,c
  6055   002EC0  22DA               	addwfc	fsr2h,f,c
  6056   002EC2  CFDE F005          	movff	postinc2,??_fputc
  6057   002EC6  CFDD F006          	movff	postdec2,??_fputc+1
  6058   002ECA  C003  FFD9         	movff	fputc@fp,fsr2l
  6059   002ECE  C004  FFDA         	movff	fputc@fp+1,fsr2h
  6060   002ED2  CFDE F007          	movff	postinc2,??_fputc+2
  6061   002ED6  CFDD F008          	movff	postdec2,??_fputc+3
  6062   002EDA  5005               	movf	??_fputc^0,w,c
  6063   002EDC  2407               	addwf	(??_fputc+2)^0,w,c
  6064   002EDE  6ED9               	movwf	fsr2l,c
  6065   002EE0  5006               	movf	(??_fputc+1)^0,w,c
  6066   002EE2  2008               	addwfc	(??_fputc+3)^0,w,c
  6067   002EE4  6EDA               	movwf	fsr2h,c
  6068   002EE6  C001  FFDF         	movff	fputc@c,indf2
  6069   002EEA  EE20 F003          	lfsr	2,3
  6070   002EEE  5003               	movf	fputc@fp^0,w,c
  6071   002EF0  26D9               	addwf	fsr2l,f,c
  6072   002EF2  5004               	movf	(fputc@fp+1)^0,w,c
  6073   002EF4  22DA               	addwfc	fsr2h,f,c
  6074   002EF6  2ADE               	incf	postinc2,f,c
  6075   002EF8  0E00               	movlw	0
  6076   002EFA  22DD               	addwfc	postdec2,f,c
  6077   002EFC                     l980:
  6078   002EFC  0012               	return		;funcret
  6079   002EFE                     __end_of_fputc:
  6080                           	callstack 0
  6081                           
  6082 ;; *************** function _putch *****************
  6083 ;; Defined at:
  6084 ;;		line 7 in file "C:\Program Files\Microchip\xc8\v2.40\pic\sources\c99\common\putch.c"
  6085 ;; Parameters:    Size  Location     Type
  6086 ;;  c               1    wreg     unsigned char 
  6087 ;; Auto vars:     Size  Location     Type
  6088 ;;  c               1    0[COMRAM] unsigned char 
  6089 ;; Return value:  Size  Location     Type
  6090 ;;                  1    wreg      void 
  6091 ;; Registers used:
  6092 ;;		wreg
  6093 ;; Tracked objects:
  6094 ;;		On entry : 0/0
  6095 ;;		On exit  : 0/0
  6096 ;;		Unchanged: 0/0
  6097 ;; Data sizes:     COMRAM   BANK0   BANK1   BANK2   BANK3   BANK4   BANK5   BANK6   BANK7   BANK8   BANK9  BANK10  BANK1
      +1  BANK12  BANK13
  6098 ;;      Params:         0       0       0       0       0       0       0       0       0       0       0       0       
      +0       0       0
  6099 ;;      Locals:         0       0       0       0       0       0       0       0       0       0       0       0       
      +0       0       0
  6100 ;;      Temps:          0       0       0       0       0       0       0       0       0       0       0       0       
      +0       0       0
  6101 ;;      Totals:         0       0       0       0       0       0       0       0       0       0       0       0       
      +0       0       0
  6102 ;;Total ram usage:        0 bytes
  6103 ;; Hardware stack levels used: 1
  6104 ;; This function calls:
  6105 ;;		Nothing
  6106 ;; This function is called by:
  6107 ;;		_fputc
  6108 ;; This function uses a non-reentrant model
  6109 ;;
  6110                           
  6111                           	psect	text32
  6112   0034A6                     __ptext32:
  6113                           	callstack 0
  6114   0034A6                     _putch:
  6115                           	callstack 24
  6116   0034A6  0012               	return		;funcret
  6117   0034A8                     __end_of_putch:
  6118                           	callstack 0
  6119                           
  6120 ;; *************** function _sendStringSerial4 *****************
  6121 ;; Defined at:
  6122 ;;		line 49 in file "serial.c"
  6123 ;; Parameters:    Size  Location     Type
  6124 ;;  string          2    1[COMRAM] PTR unsigned char 
  6125 ;;		 -> main@data(80), 
  6126 ;; Auto vars:     Size  Location     Type
  6127 ;;		None
  6128 ;; Return value:  Size  Location     Type
  6129 ;;                  1    wreg      void 
  6130 ;; Registers used:
  6131 ;;		wreg, fsr2l, fsr2h, status,2, status,0, cstack
  6132 ;; Tracked objects:
  6133 ;;		On entry : 0/0
  6134 ;;		On exit  : 0/0
  6135 ;;		Unchanged: 0/0
  6136 ;; Data sizes:     COMRAM   BANK0   BANK1   BANK2   BANK3   BANK4   BANK5   BANK6   BANK7   BANK8   BANK9  BANK10  BANK1
      +1  BANK12  BANK13
  6137 ;;      Params:         2       0       0       0       0       0       0       0       0       0       0       0       
      +0       0       0
  6138 ;;      Locals:         0       0       0       0       0       0       0       0       0       0       0       0       
      +0       0       0
  6139 ;;      Temps:          0       0       0       0       0       0       0       0       0       0       0       0       
      +0       0       0
  6140 ;;      Totals:         2       0       0       0       0       0       0       0       0       0       0       0       
      +0       0       0
  6141 ;;Total ram usage:        2 bytes
  6142 ;; Hardware stack levels used: 1
  6143 ;; Hardware stack levels required when called: 1
  6144 ;; This function calls:
  6145 ;;		_sendCharSerial4
  6146 ;; This function is called by:
  6147 ;;		_Color2String
  6148 ;; This function uses a non-reentrant model
  6149 ;;
  6150                           
  6151                           	psect	text33
  6152   003380                     __ptext33:
  6153                           	callstack 0
  6154   003380                     _sendStringSerial4:
  6155                           	callstack 28
  6156   003380                     
  6157                           ;serial.c: 52:     while(*string != 0){
  6158   003380  EFCF  F019         	goto	l2490
  6159   003384                     l2484:
  6160                           
  6161                           ;serial.c: 54:   sendCharSerial4(*string++);
  6162   003384  C002  FFD9         	movff	sendStringSerial4@string,fsr2l
  6163   003388  C003  FFDA         	movff	sendStringSerial4@string+1,fsr2h
  6164   00338C  50DF               	movf	indf2,w,c
  6165   00338E  EC26  F01A         	call	_sendCharSerial4
  6166   003392  4A02               	infsnz	sendStringSerial4@string^0,f,c
  6167   003394  2A03               	incf	(sendStringSerial4@string+1)^0,f,c
  6168   003396                     
  6169                           ;serial.c: 55:         _delay((unsigned long)((20)*(64000000/4000000.0)));
  6170   003396  0E6A               	movlw	106
  6171   003398                     u3287:
  6172   003398  2EE8               	decfsz	wreg,f,c
  6173   00339A  D7FE               	bra	u3287
  6174   00339C  D000               	nop2	
  6175   00339E                     l2490:
  6176                           
  6177                           ;serial.c: 52:     while(*string != 0){
  6178   00339E  C002  FFD9         	movff	sendStringSerial4@string,fsr2l
  6179   0033A2  C003  FFDA         	movff	sendStringSerial4@string+1,fsr2h
  6180   0033A6  50DF               	movf	indf2,w,c
  6181   0033A8  A4D8               	btfss	status,2,c
  6182   0033AA  EFD9  F019         	goto	u2521
  6183   0033AE  EFDB  F019         	goto	u2520
  6184   0033B2                     u2521:
  6185   0033B2  EFC2  F019         	goto	l2484
  6186   0033B6                     u2520:
  6187   0033B6  0012               	return		;funcret
  6188   0033B8                     __end_of_sendStringSerial4:
  6189                           	callstack 0
  6190                           
  6191 ;; *************** function _sendCharSerial4 *****************
  6192 ;; Defined at:
  6193 ;;		line 34 in file "serial.c"
  6194 ;; Parameters:    Size  Location     Type
  6195 ;;  charToSend      1    wreg     unsigned char 
  6196 ;; Auto vars:     Size  Location     Type
  6197 ;;  charToSend      1    0[COMRAM] unsigned char 
  6198 ;; Return value:  Size  Location     Type
  6199 ;;                  1    wreg      void 
  6200 ;; Registers used:
  6201 ;;		wreg
  6202 ;; Tracked objects:
  6203 ;;		On entry : 0/0
  6204 ;;		On exit  : 0/0
  6205 ;;		Unchanged: 0/0
  6206 ;; Data sizes:     COMRAM   BANK0   BANK1   BANK2   BANK3   BANK4   BANK5   BANK6   BANK7   BANK8   BANK9  BANK10  BANK1
      +1  BANK12  BANK13
  6207 ;;      Params:         0       0       0       0       0       0       0       0       0       0       0       0       
      +0       0       0
  6208 ;;      Locals:         1       0       0       0       0       0       0       0       0       0       0       0       
      +0       0       0
  6209 ;;      Temps:          0       0       0       0       0       0       0       0       0       0       0       0       
      +0       0       0
  6210 ;;      Totals:         1       0       0       0       0       0       0       0       0       0       0       0       
      +0       0       0
  6211 ;;Total ram usage:        1 bytes
  6212 ;; Hardware stack levels used: 1
  6213 ;; This function calls:
  6214 ;;		Nothing
  6215 ;; This function is called by:
  6216 ;;		_sendStringSerial4
  6217 ;; This function uses a non-reentrant model
  6218 ;;
  6219                           
  6220                           	psect	text34
  6221   00344C                     __ptext34:
  6222                           	callstack 0
  6223   00344C                     _sendCharSerial4:
  6224                           	callstack 28
  6225                           
  6226                           ;incstack = 0
  6227                           ;sendCharSerial4@charToSend stored from wreg
  6228   00344C  6E01               	movwf	sendCharSerial4@charToSend^0,c
  6229   00344E                     l212:
  6230   00344E  010E               	movlb	14	; () banked
  6231   003450  A537               	btfss	55,2,b	;volatile
  6232   003452  EF2D  F01A         	goto	u1901
  6233   003456  EF2F  F01A         	goto	u1900
  6234   00345A                     u1901:
  6235   00345A  EF27  F01A         	goto	l212
  6236   00345E                     u1900:
  6237   00345E                     
  6238                           ; BSR set to: 14
  6239                           ;serial.c: 36:     TX4REG = charToSend;
  6240   00345E  C001  FEE4         	movff	sendCharSerial4@charToSend,3812	;volatile
  6241   003462                     
  6242                           ; BSR set to: 14
  6243   003462  0012               	return		;funcret
  6244   003464                     __end_of_sendCharSerial4:
  6245                           	callstack 0
  6246                           
  6247 ;; *************** function _Hue2Colour *****************
  6248 ;; Defined at:
  6249 ;;		line 53 in file "colorfunctions.c"
  6250 ;; Parameters:    Size  Location     Type
  6251 ;;  cf              2   12[COMRAM] PTR struct RGBC_rel
  6252 ;;		 -> colorf(20), 
  6253 ;; Auto vars:     Size  Location     Type
  6254 ;;  colourname      2   14[COMRAM] PTR unsigned char 
  6255 ;;		 -> STR_17(10), STR_16(11), STR_15(7), STR_14(7), 
  6256 ;;		 -> STR_13(5), STR_12(9), STR_11(6), STR_10(4), 
  6257 ;;		 -> STR_9(1), 
  6258 ;; Return value:  Size  Location     Type
  6259 ;;                  2   12[COMRAM] PTR unsigned char 
  6260 ;; Registers used:
  6261 ;;		wreg, fsr2l, fsr2h, status,2, status,0, cstack
  6262 ;; Tracked objects:
  6263 ;;		On entry : 0/0
  6264 ;;		On exit  : 0/0
  6265 ;;		Unchanged: 0/0
  6266 ;; Data sizes:     COMRAM   BANK0   BANK1   BANK2   BANK3   BANK4   BANK5   BANK6   BANK7   BANK8   BANK9  BANK10  BANK1
      +1  BANK12  BANK13
  6267 ;;      Params:         2       0       0       0       0       0       0       0       0       0       0       0       
      +0       0       0
  6268 ;;      Locals:         2       0       0       0       0       0       0       0       0       0       0       0       
      +0       0       0
  6269 ;;      Temps:          0       0       0       0       0       0       0       0       0       0       0       0       
      +0       0       0
  6270 ;;      Totals:         4       0       0       0       0       0       0       0       0       0       0       0       
      +0       0       0
  6271 ;;Total ram usage:        4 bytes
  6272 ;; Hardware stack levels used: 1
  6273 ;; Hardware stack levels required when called: 1
  6274 ;; This function calls:
  6275 ;;		___flge
  6276 ;; This function is called by:
  6277 ;;		_Color2String
  6278 ;; This function uses a non-reentrant model
  6279 ;;
  6280                           
  6281                           	psect	text35
  6282   001A14                     __ptext35:
  6283                           	callstack 0
  6284   001A14                     _Hue2Colour:
  6285                           	callstack 28
  6286   001A14                     
  6287                           ;colorfunctions.c: 53: char* Hue2Colour(struct RGBC_rel *cf);colorfunctions.c: 54: {;col
      +                          orfunctions.c: 55:     char* colourname = "";
  6288   001A14  0E10               	movlw	low (STR_34+15)
  6289   001A16  6E0F               	movwf	Hue2Colour@colourname^0,c
  6290   001A18  0E0E               	movlw	high (STR_34+15)
  6291   001A1A  6E10               	movwf	(Hue2Colour@colourname+1)^0,c
  6292   001A1C                     
  6293                           ;colorfunctions.c: 57:     if (((cf->h)>352)&&((cf->h)<360))
  6294   001A1C  0E00               	movlw	0
  6295   001A1E  6E01               	movwf	___flge@ff1^0,c
  6296   001A20  0E00               	movlw	0
  6297   001A22  6E02               	movwf	(___flge@ff1+1)^0,c
  6298   001A24  0EB0               	movlw	176
  6299   001A26  6E03               	movwf	(___flge@ff1+2)^0,c
  6300   001A28  0E43               	movlw	67
  6301   001A2A  6E04               	movwf	(___flge@ff1+3)^0,c
  6302   001A2C  EE20 F010          	lfsr	2,16
  6303   001A30  500D               	movf	Hue2Colour@cf^0,w,c
  6304   001A32  26D9               	addwf	fsr2l,f,c
  6305   001A34  500E               	movf	(Hue2Colour@cf+1)^0,w,c
  6306   001A36  22DA               	addwfc	fsr2h,f,c
  6307   001A38  CFDE F005          	movff	postinc2,___flge@ff2
  6308   001A3C  CFDE F006          	movff	postinc2,___flge@ff2+1
  6309   001A40  CFDE F007          	movff	postinc2,___flge@ff2+2
  6310   001A44  CFDE F008          	movff	postinc2,___flge@ff2+3
  6311   001A48  ECBC  F015         	call	___flge	;wreg free
  6312   001A4C  B0D8               	btfsc	status,0,c
  6313   001A4E  EF2B  F00D         	goto	u2361
  6314   001A52  EF2D  F00D         	goto	u2360
  6315   001A56                     u2361:
  6316   001A56  EF50  F00D         	goto	l2426
  6317   001A5A                     u2360:
  6318   001A5A  EE20 F010          	lfsr	2,16
  6319   001A5E  500D               	movf	Hue2Colour@cf^0,w,c
  6320   001A60  26D9               	addwf	fsr2l,f,c
  6321   001A62  500E               	movf	(Hue2Colour@cf+1)^0,w,c
  6322   001A64  22DA               	addwfc	fsr2h,f,c
  6323   001A66  CFDE F001          	movff	postinc2,___flge@ff1
  6324   001A6A  CFDE F002          	movff	postinc2,___flge@ff1+1
  6325   001A6E  CFDE F003          	movff	postinc2,___flge@ff1+2
  6326   001A72  CFDE F004          	movff	postinc2,___flge@ff1+3
  6327   001A76  0E00               	movlw	0
  6328   001A78  6E05               	movwf	___flge@ff2^0,c
  6329   001A7A  0E00               	movlw	0
  6330   001A7C  6E06               	movwf	(___flge@ff2+1)^0,c
  6331   001A7E  0EB4               	movlw	180
  6332   001A80  6E07               	movwf	(___flge@ff2+2)^0,c
  6333   001A82  0E43               	movlw	67
  6334   001A84  6E08               	movwf	(___flge@ff2+3)^0,c
  6335   001A86  ECBC  F015         	call	___flge	;wreg free
  6336   001A8A  B0D8               	btfsc	status,0,c
  6337   001A8C  EF4A  F00D         	goto	u2371
  6338   001A90  EF4C  F00D         	goto	u2370
  6339   001A94                     u2371:
  6340   001A94  EF50  F00D         	goto	l2426
  6341   001A98                     u2370:
  6342   001A98                     
  6343                           ;colorfunctions.c: 58:     {;colorfunctions.c: 59:         colourname = "Red";
  6344   001A98  0E4C               	movlw	low STR_1
  6345   001A9A  6E0F               	movwf	Hue2Colour@colourname^0,c
  6346   001A9C  0E0E               	movlw	high STR_1
  6347   001A9E  6E10               	movwf	(Hue2Colour@colourname+1)^0,c
  6348   001AA0                     l2426:
  6349                           
  6350                           ;colorfunctions.c: 61:      if (((cf->h)>75)&&((cf->h)<79))
  6351   001AA0  0E00               	movlw	0
  6352   001AA2  6E01               	movwf	___flge@ff1^0,c
  6353   001AA4  0E00               	movlw	0
  6354   001AA6  6E02               	movwf	(___flge@ff1+1)^0,c
  6355   001AA8  0E96               	movlw	150
  6356   001AAA  6E03               	movwf	(___flge@ff1+2)^0,c
  6357   001AAC  0E42               	movlw	66
  6358   001AAE  6E04               	movwf	(___flge@ff1+3)^0,c
  6359   001AB0  EE20 F010          	lfsr	2,16
  6360   001AB4  500D               	movf	Hue2Colour@cf^0,w,c
  6361   001AB6  26D9               	addwf	fsr2l,f,c
  6362   001AB8  500E               	movf	(Hue2Colour@cf+1)^0,w,c
  6363   001ABA  22DA               	addwfc	fsr2h,f,c
  6364   001ABC  CFDE F005          	movff	postinc2,___flge@ff2
  6365   001AC0  CFDE F006          	movff	postinc2,___flge@ff2+1
  6366   001AC4  CFDE F007          	movff	postinc2,___flge@ff2+2
  6367   001AC8  CFDE F008          	movff	postinc2,___flge@ff2+3
  6368   001ACC  ECBC  F015         	call	___flge	;wreg free
  6369   001AD0  B0D8               	btfsc	status,0,c
  6370   001AD2  EF6D  F00D         	goto	u2381
  6371   001AD6  EF6F  F00D         	goto	u2380
  6372   001ADA                     u2381:
  6373   001ADA  EF94  F00D         	goto	l2432
  6374   001ADE                     u2380:
  6375   001ADE  EE20 F010          	lfsr	2,16
  6376   001AE2  500D               	movf	Hue2Colour@cf^0,w,c
  6377   001AE4  26D9               	addwf	fsr2l,f,c
  6378   001AE6  500E               	movf	(Hue2Colour@cf+1)^0,w,c
  6379   001AE8  22DA               	addwfc	fsr2h,f,c
  6380   001AEA  CFDE F001          	movff	postinc2,___flge@ff1
  6381   001AEE  CFDE F002          	movff	postinc2,___flge@ff1+1
  6382   001AF2  CFDE F003          	movff	postinc2,___flge@ff1+2
  6383   001AF6  CFDE F004          	movff	postinc2,___flge@ff1+3
  6384   001AFA  0E00               	movlw	0
  6385   001AFC  6E05               	movwf	___flge@ff2^0,c
  6386   001AFE  0E00               	movlw	0
  6387   001B00  6E06               	movwf	(___flge@ff2+1)^0,c
  6388   001B02  0E9E               	movlw	158
  6389   001B04  6E07               	movwf	(___flge@ff2+2)^0,c
  6390   001B06  0E42               	movlw	66
  6391   001B08  6E08               	movwf	(___flge@ff2+3)^0,c
  6392   001B0A  ECBC  F015         	call	___flge	;wreg free
  6393   001B0E  B0D8               	btfsc	status,0,c
  6394   001B10  EF8C  F00D         	goto	u2391
  6395   001B14  EF8E  F00D         	goto	u2390
  6396   001B18                     u2391:
  6397   001B18  EF94  F00D         	goto	l2432
  6398   001B1C                     u2390:
  6399   001B1C                     
  6400                           ;colorfunctions.c: 62:     {;colorfunctions.c: 63:         colourname = "Green";
  6401   001B1C  0E3D               	movlw	low STR_8
  6402   001B1E  6E0F               	movwf	Hue2Colour@colourname^0,c
  6403   001B20  0E0E               	movlw	high STR_8
  6404   001B22  6E10               	movwf	(Hue2Colour@colourname+1)^0,c
  6405                           
  6406                           ;colorfunctions.c: 64:     }
  6407   001B24  EF2C  F00F         	goto	l68
  6408   001B28                     l2432:
  6409   001B28  0E00               	movlw	0
  6410   001B2A  6E01               	movwf	___flge@ff1^0,c
  6411   001B2C  0E00               	movlw	0
  6412   001B2E  6E02               	movwf	(___flge@ff1+1)^0,c
  6413   001B30  0ED0               	movlw	208
  6414   001B32  6E03               	movwf	(___flge@ff1+2)^0,c
  6415   001B34  0E41               	movlw	65
  6416   001B36  6E04               	movwf	(___flge@ff1+3)^0,c
  6417   001B38  EE20 F010          	lfsr	2,16
  6418   001B3C  500D               	movf	Hue2Colour@cf^0,w,c
  6419   001B3E  26D9               	addwf	fsr2l,f,c
  6420   001B40  500E               	movf	(Hue2Colour@cf+1)^0,w,c
  6421   001B42  22DA               	addwfc	fsr2h,f,c
  6422   001B44  CFDE F005          	movff	postinc2,___flge@ff2
  6423   001B48  CFDE F006          	movff	postinc2,___flge@ff2+1
  6424   001B4C  CFDE F007          	movff	postinc2,___flge@ff2+2
  6425   001B50  CFDE F008          	movff	postinc2,___flge@ff2+3
  6426   001B54  ECBC  F015         	call	___flge	;wreg free
  6427   001B58  B0D8               	btfsc	status,0,c
  6428   001B5A  EFB1  F00D         	goto	u2401
  6429   001B5E  EFB3  F00D         	goto	u2400
  6430   001B62                     u2401:
  6431   001B62  EFD8  F00D         	goto	l2438
  6432   001B66                     u2400:
  6433   001B66  EE20 F010          	lfsr	2,16
  6434   001B6A  500D               	movf	Hue2Colour@cf^0,w,c
  6435   001B6C  26D9               	addwf	fsr2l,f,c
  6436   001B6E  500E               	movf	(Hue2Colour@cf+1)^0,w,c
  6437   001B70  22DA               	addwfc	fsr2h,f,c
  6438   001B72  CFDE F001          	movff	postinc2,___flge@ff1
  6439   001B76  CFDE F002          	movff	postinc2,___flge@ff1+1
  6440   001B7A  CFDE F003          	movff	postinc2,___flge@ff1+2
  6441   001B7E  CFDE F004          	movff	postinc2,___flge@ff1+3
  6442   001B82  0E00               	movlw	0
  6443   001B84  6E05               	movwf	___flge@ff2^0,c
  6444   001B86  0E00               	movlw	0
  6445   001B88  6E06               	movwf	(___flge@ff2+1)^0,c
  6446   001B8A  0EE8               	movlw	232
  6447   001B8C  6E07               	movwf	(___flge@ff2+2)^0,c
  6448   001B8E  0E41               	movlw	65
  6449   001B90  6E08               	movwf	(___flge@ff2+3)^0,c
  6450   001B92  ECBC  F015         	call	___flge	;wreg free
  6451   001B96  B0D8               	btfsc	status,0,c
  6452   001B98  EFD0  F00D         	goto	u2411
  6453   001B9C  EFD2  F00D         	goto	u2410
  6454   001BA0                     u2411:
  6455   001BA0  EFD8  F00D         	goto	l2438
  6456   001BA4                     u2410:
  6457   001BA4                     
  6458                           ;colorfunctions.c: 66:     {;colorfunctions.c: 67:         colourname = "Eggshell";
  6459   001BA4  0E26               	movlw	low STR_2
  6460   001BA6  6E0F               	movwf	Hue2Colour@colourname^0,c
  6461   001BA8  0E0E               	movlw	high STR_2
  6462   001BAA  6E10               	movwf	(Hue2Colour@colourname+1)^0,c
  6463                           
  6464                           ;colorfunctions.c: 68:     }
  6465   001BAC  EF2C  F00F         	goto	l68
  6466   001BB0                     l2438:
  6467   001BB0  0E00               	movlw	0
  6468   001BB2  6E01               	movwf	___flge@ff1^0,c
  6469   001BB4  0E00               	movlw	0
  6470   001BB6  6E02               	movwf	(___flge@ff1+1)^0,c
  6471   001BB8  0E70               	movlw	112
  6472   001BBA  6E03               	movwf	(___flge@ff1+2)^0,c
  6473   001BBC  0E41               	movlw	65
  6474   001BBE  6E04               	movwf	(___flge@ff1+3)^0,c
  6475   001BC0  EE20 F010          	lfsr	2,16
  6476   001BC4  500D               	movf	Hue2Colour@cf^0,w,c
  6477   001BC6  26D9               	addwf	fsr2l,f,c
  6478   001BC8  500E               	movf	(Hue2Colour@cf+1)^0,w,c
  6479   001BCA  22DA               	addwfc	fsr2h,f,c
  6480   001BCC  CFDE F005          	movff	postinc2,___flge@ff2
  6481   001BD0  CFDE F006          	movff	postinc2,___flge@ff2+1
  6482   001BD4  CFDE F007          	movff	postinc2,___flge@ff2+2
  6483   001BD8  CFDE F008          	movff	postinc2,___flge@ff2+3
  6484   001BDC  ECBC  F015         	call	___flge	;wreg free
  6485   001BE0  B0D8               	btfsc	status,0,c
  6486   001BE2  EFF5  F00D         	goto	u2421
  6487   001BE6  EFF7  F00D         	goto	u2420
  6488   001BEA                     u2421:
  6489   001BEA  EF1C  F00E         	goto	l2444
  6490   001BEE                     u2420:
  6491   001BEE  EE20 F010          	lfsr	2,16
  6492   001BF2  500D               	movf	Hue2Colour@cf^0,w,c
  6493   001BF4  26D9               	addwf	fsr2l,f,c
  6494   001BF6  500E               	movf	(Hue2Colour@cf+1)^0,w,c
  6495   001BF8  22DA               	addwfc	fsr2h,f,c
  6496   001BFA  CFDE F001          	movff	postinc2,___flge@ff1
  6497   001BFE  CFDE F002          	movff	postinc2,___flge@ff1+1
  6498   001C02  CFDE F003          	movff	postinc2,___flge@ff1+2
  6499   001C06  CFDE F004          	movff	postinc2,___flge@ff1+3
  6500   001C0A  0E00               	movlw	0
  6501   001C0C  6E05               	movwf	___flge@ff2^0,c
  6502   001C0E  0E00               	movlw	0
  6503   001C10  6E06               	movwf	(___flge@ff2+1)^0,c
  6504   001C12  0E98               	movlw	152
  6505   001C14  6E07               	movwf	(___flge@ff2+2)^0,c
  6506   001C16  0E41               	movlw	65
  6507   001C18  6E08               	movwf	(___flge@ff2+3)^0,c
  6508   001C1A  ECBC  F015         	call	___flge	;wreg free
  6509   001C1E  B0D8               	btfsc	status,0,c
  6510   001C20  EF14  F00E         	goto	u2431
  6511   001C24  EF16  F00E         	goto	u2430
  6512   001C28                     u2431:
  6513   001C28  EF1C  F00E         	goto	l2444
  6514   001C2C                     u2430:
  6515   001C2C                     
  6516                           ;colorfunctions.c: 70:     {;colorfunctions.c: 71:         colourname = "Pink";
  6517   001C2C  0E43               	movlw	low STR_3
  6518   001C2E  6E0F               	movwf	Hue2Colour@colourname^0,c
  6519   001C30  0E0E               	movlw	high STR_3
  6520   001C32  6E10               	movwf	(Hue2Colour@colourname+1)^0,c
  6521                           
  6522                           ;colorfunctions.c: 72:     }
  6523   001C34  EF2C  F00F         	goto	l68
  6524   001C38                     l2444:
  6525   001C38  0E00               	movlw	0
  6526   001C3A  6E01               	movwf	___flge@ff1^0,c
  6527   001C3C  0E00               	movlw	0
  6528   001C3E  6E02               	movwf	(___flge@ff1+1)^0,c
  6529   001C40  0EA8               	movlw	168
  6530   001C42  6E03               	movwf	(___flge@ff1+2)^0,c
  6531   001C44  0E41               	movlw	65
  6532   001C46  6E04               	movwf	(___flge@ff1+3)^0,c
  6533   001C48  EE20 F010          	lfsr	2,16
  6534   001C4C  500D               	movf	Hue2Colour@cf^0,w,c
  6535   001C4E  26D9               	addwf	fsr2l,f,c
  6536   001C50  500E               	movf	(Hue2Colour@cf+1)^0,w,c
  6537   001C52  22DA               	addwfc	fsr2h,f,c
  6538   001C54  CFDE F005          	movff	postinc2,___flge@ff2
  6539   001C58  CFDE F006          	movff	postinc2,___flge@ff2+1
  6540   001C5C  CFDE F007          	movff	postinc2,___flge@ff2+2
  6541   001C60  CFDE F008          	movff	postinc2,___flge@ff2+3
  6542   001C64  ECBC  F015         	call	___flge	;wreg free
  6543   001C68  B0D8               	btfsc	status,0,c
  6544   001C6A  EF39  F00E         	goto	u2441
  6545   001C6E  EF3B  F00E         	goto	u2440
  6546   001C72                     u2441:
  6547   001C72  EF60  F00E         	goto	l2450
  6548   001C76                     u2440:
  6549   001C76  EE20 F010          	lfsr	2,16
  6550   001C7A  500D               	movf	Hue2Colour@cf^0,w,c
  6551   001C7C  26D9               	addwf	fsr2l,f,c
  6552   001C7E  500E               	movf	(Hue2Colour@cf+1)^0,w,c
  6553   001C80  22DA               	addwfc	fsr2h,f,c
  6554   001C82  CFDE F001          	movff	postinc2,___flge@ff1
  6555   001C86  CFDE F002          	movff	postinc2,___flge@ff1+1
  6556   001C8A  CFDE F003          	movff	postinc2,___flge@ff1+2
  6557   001C8E  CFDE F004          	movff	postinc2,___flge@ff1+3
  6558   001C92  0E00               	movlw	0
  6559   001C94  6E05               	movwf	___flge@ff2^0,c
  6560   001C96  0E00               	movlw	0
  6561   001C98  6E06               	movwf	(___flge@ff2+1)^0,c
  6562   001C9A  0EC8               	movlw	200
  6563   001C9C  6E07               	movwf	(___flge@ff2+2)^0,c
  6564   001C9E  0E41               	movlw	65
  6565   001CA0  6E08               	movwf	(___flge@ff2+3)^0,c
  6566   001CA2  ECBC  F015         	call	___flge	;wreg free
  6567   001CA6  B0D8               	btfsc	status,0,c
  6568   001CA8  EF58  F00E         	goto	u2451
  6569   001CAC  EF5A  F00E         	goto	u2450
  6570   001CB0                     u2451:
  6571   001CB0  EF60  F00E         	goto	l2450
  6572   001CB4                     u2450:
  6573   001CB4                     
  6574                           ;colorfunctions.c: 74:     {;colorfunctions.c: 75:         colourname = "Yellow";
  6575   001CB4  0E36               	movlw	low STR_4
  6576   001CB6  6E0F               	movwf	Hue2Colour@colourname^0,c
  6577   001CB8  0E0E               	movlw	high STR_4
  6578   001CBA  6E10               	movwf	(Hue2Colour@colourname+1)^0,c
  6579                           
  6580                           ;colorfunctions.c: 76:     }
  6581   001CBC  EF2C  F00F         	goto	l68
  6582   001CC0                     l2450:
  6583   001CC0  0E00               	movlw	0
  6584   001CC2  6E01               	movwf	___flge@ff1^0,c
  6585   001CC4  0E00               	movlw	0
  6586   001CC6  6E02               	movwf	(___flge@ff1+1)^0,c
  6587   001CC8  0EE0               	movlw	224
  6588   001CCA  6E03               	movwf	(___flge@ff1+2)^0,c
  6589   001CCC  0E40               	movlw	64
  6590   001CCE  6E04               	movwf	(___flge@ff1+3)^0,c
  6591   001CD0  EE20 F010          	lfsr	2,16
  6592   001CD4  500D               	movf	Hue2Colour@cf^0,w,c
  6593   001CD6  26D9               	addwf	fsr2l,f,c
  6594   001CD8  500E               	movf	(Hue2Colour@cf+1)^0,w,c
  6595   001CDA  22DA               	addwfc	fsr2h,f,c
  6596   001CDC  CFDE F005          	movff	postinc2,___flge@ff2
  6597   001CE0  CFDE F006          	movff	postinc2,___flge@ff2+1
  6598   001CE4  CFDE F007          	movff	postinc2,___flge@ff2+2
  6599   001CE8  CFDE F008          	movff	postinc2,___flge@ff2+3
  6600   001CEC  ECBC  F015         	call	___flge	;wreg free
  6601   001CF0  B0D8               	btfsc	status,0,c
  6602   001CF2  EF7D  F00E         	goto	u2461
  6603   001CF6  EF7F  F00E         	goto	u2460
  6604   001CFA                     u2461:
  6605   001CFA  EFA4  F00E         	goto	l2456
  6606   001CFE                     u2460:
  6607   001CFE  EE20 F010          	lfsr	2,16
  6608   001D02  500D               	movf	Hue2Colour@cf^0,w,c
  6609   001D04  26D9               	addwf	fsr2l,f,c
  6610   001D06  500E               	movf	(Hue2Colour@cf+1)^0,w,c
  6611   001D08  22DA               	addwfc	fsr2h,f,c
  6612   001D0A  CFDE F001          	movff	postinc2,___flge@ff1
  6613   001D0E  CFDE F002          	movff	postinc2,___flge@ff1+1
  6614   001D12  CFDE F003          	movff	postinc2,___flge@ff1+2
  6615   001D16  CFDE F004          	movff	postinc2,___flge@ff1+3
  6616   001D1A  0E00               	movlw	0
  6617   001D1C  6E05               	movwf	___flge@ff2^0,c
  6618   001D1E  0E00               	movlw	0
  6619   001D20  6E06               	movwf	(___flge@ff2+1)^0,c
  6620   001D22  0E10               	movlw	16
  6621   001D24  6E07               	movwf	(___flge@ff2+2)^0,c
  6622   001D26  0E41               	movlw	65
  6623   001D28  6E08               	movwf	(___flge@ff2+3)^0,c
  6624   001D2A  ECBC  F015         	call	___flge	;wreg free
  6625   001D2E  B0D8               	btfsc	status,0,c
  6626   001D30  EF9C  F00E         	goto	u2471
  6627   001D34  EF9E  F00E         	goto	u2470
  6628   001D38                     u2471:
  6629   001D38  EFA4  F00E         	goto	l2456
  6630   001D3C                     u2470:
  6631   001D3C                     
  6632                           ;colorfunctions.c: 78:     {;colorfunctions.c: 79:         colourname = "Orange";
  6633   001D3C  0E2F               	movlw	low STR_5
  6634   001D3E  6E0F               	movwf	Hue2Colour@colourname^0,c
  6635   001D40  0E0E               	movlw	high STR_5
  6636   001D42  6E10               	movwf	(Hue2Colour@colourname+1)^0,c
  6637                           
  6638                           ;colorfunctions.c: 80:     }
  6639   001D44  EF2C  F00F         	goto	l68
  6640   001D48                     l2456:
  6641   001D48  0E00               	movlw	0
  6642   001D4A  6E01               	movwf	___flge@ff1^0,c
  6643   001D4C  0E00               	movlw	0
  6644   001D4E  6E02               	movwf	(___flge@ff1+1)^0,c
  6645   001D50  0EAA               	movlw	170
  6646   001D52  6E03               	movwf	(___flge@ff1+2)^0,c
  6647   001D54  0E42               	movlw	66
  6648   001D56  6E04               	movwf	(___flge@ff1+3)^0,c
  6649   001D58  EE20 F010          	lfsr	2,16
  6650   001D5C  500D               	movf	Hue2Colour@cf^0,w,c
  6651   001D5E  26D9               	addwf	fsr2l,f,c
  6652   001D60  500E               	movf	(Hue2Colour@cf+1)^0,w,c
  6653   001D62  22DA               	addwfc	fsr2h,f,c
  6654   001D64  CFDE F005          	movff	postinc2,___flge@ff2
  6655   001D68  CFDE F006          	movff	postinc2,___flge@ff2+1
  6656   001D6C  CFDE F007          	movff	postinc2,___flge@ff2+2
  6657   001D70  CFDE F008          	movff	postinc2,___flge@ff2+3
  6658   001D74  ECBC  F015         	call	___flge	;wreg free
  6659   001D78  B0D8               	btfsc	status,0,c
  6660   001D7A  EFC1  F00E         	goto	u2481
  6661   001D7E  EFC3  F00E         	goto	u2480
  6662   001D82                     u2481:
  6663   001D82  EFE8  F00E         	goto	l2462
  6664   001D86                     u2480:
  6665   001D86  EE20 F010          	lfsr	2,16
  6666   001D8A  500D               	movf	Hue2Colour@cf^0,w,c
  6667   001D8C  26D9               	addwf	fsr2l,f,c
  6668   001D8E  500E               	movf	(Hue2Colour@cf+1)^0,w,c
  6669   001D90  22DA               	addwfc	fsr2h,f,c
  6670   001D92  CFDE F001          	movff	postinc2,___flge@ff1
  6671   001D96  CFDE F002          	movff	postinc2,___flge@ff1+1
  6672   001D9A  CFDE F003          	movff	postinc2,___flge@ff1+2
  6673   001D9E  CFDE F004          	movff	postinc2,___flge@ff1+3
  6674   001DA2  0E00               	movlw	0
  6675   001DA4  6E05               	movwf	___flge@ff2^0,c
  6676   001DA6  0E00               	movlw	0
  6677   001DA8  6E06               	movwf	(___flge@ff2+1)^0,c
  6678   001DAA  0EBC               	movlw	188
  6679   001DAC  6E07               	movwf	(___flge@ff2+2)^0,c
  6680   001DAE  0E42               	movlw	66
  6681   001DB0  6E08               	movwf	(___flge@ff2+3)^0,c
  6682   001DB2  ECBC  F015         	call	___flge	;wreg free
  6683   001DB6  B0D8               	btfsc	status,0,c
  6684   001DB8  EFE0  F00E         	goto	u2491
  6685   001DBC  EFE2  F00E         	goto	u2490
  6686   001DC0                     u2491:
  6687   001DC0  EFE8  F00E         	goto	l2462
  6688   001DC4                     u2490:
  6689   001DC4                     
  6690                           ;colorfunctions.c: 82:     {;colorfunctions.c: 83:         colourname = "Light Blue";
  6691   001DC4  0E11               	movlw	low STR_6
  6692   001DC6  6E0F               	movwf	Hue2Colour@colourname^0,c
  6693   001DC8  0E0E               	movlw	high STR_6
  6694   001DCA  6E10               	movwf	(Hue2Colour@colourname+1)^0,c
  6695                           
  6696                           ;colorfunctions.c: 84:     }
  6697   001DCC  EF2C  F00F         	goto	l68
  6698   001DD0                     l2462:
  6699   001DD0  0E00               	movlw	0
  6700   001DD2  6E01               	movwf	___flge@ff1^0,c
  6701   001DD4  0E00               	movlw	0
  6702   001DD6  6E02               	movwf	(___flge@ff1+1)^0,c
  6703   001DD8  0E11               	movlw	17
  6704   001DDA  6E03               	movwf	(___flge@ff1+2)^0,c
  6705   001DDC  0E43               	movlw	67
  6706   001DDE  6E04               	movwf	(___flge@ff1+3)^0,c
  6707   001DE0  EE20 F010          	lfsr	2,16
  6708   001DE4  500D               	movf	Hue2Colour@cf^0,w,c
  6709   001DE6  26D9               	addwf	fsr2l,f,c
  6710   001DE8  500E               	movf	(Hue2Colour@cf+1)^0,w,c
  6711   001DEA  22DA               	addwfc	fsr2h,f,c
  6712   001DEC  CFDE F005          	movff	postinc2,___flge@ff2
  6713   001DF0  CFDE F006          	movff	postinc2,___flge@ff2+1
  6714   001DF4  CFDE F007          	movff	postinc2,___flge@ff2+2
  6715   001DF8  CFDE F008          	movff	postinc2,___flge@ff2+3
  6716   001DFC  ECBC  F015         	call	___flge	;wreg free
  6717   001E00  B0D8               	btfsc	status,0,c
  6718   001E02  EF05  F00F         	goto	u2501
  6719   001E06  EF07  F00F         	goto	u2500
  6720   001E0A                     u2501:
  6721   001E0A  EF2C  F00F         	goto	l74
  6722   001E0E                     u2500:
  6723   001E0E  EE20 F010          	lfsr	2,16
  6724   001E12  500D               	movf	Hue2Colour@cf^0,w,c
  6725   001E14  26D9               	addwf	fsr2l,f,c
  6726   001E16  500E               	movf	(Hue2Colour@cf+1)^0,w,c
  6727   001E18  22DA               	addwfc	fsr2h,f,c
  6728   001E1A  CFDE F001          	movff	postinc2,___flge@ff1
  6729   001E1E  CFDE F002          	movff	postinc2,___flge@ff1+1
  6730   001E22  CFDE F003          	movff	postinc2,___flge@ff1+2
  6731   001E26  CFDE F004          	movff	postinc2,___flge@ff1+3
  6732   001E2A  0E00               	movlw	0
  6733   001E2C  6E05               	movwf	___flge@ff2^0,c
  6734   001E2E  0E00               	movlw	0
  6735   001E30  6E06               	movwf	(___flge@ff2+1)^0,c
  6736   001E32  0E24               	movlw	36
  6737   001E34  6E07               	movwf	(___flge@ff2+2)^0,c
  6738   001E36  0E43               	movlw	67
  6739   001E38  6E08               	movwf	(___flge@ff2+3)^0,c
  6740   001E3A  ECBC  F015         	call	___flge	;wreg free
  6741   001E3E  B0D8               	btfsc	status,0,c
  6742   001E40  EF24  F00F         	goto	u2511
  6743   001E44  EF26  F00F         	goto	u2510
  6744   001E48                     u2511:
  6745   001E48  EF2C  F00F         	goto	l74
  6746   001E4C                     u2510:
  6747   001E4C                     
  6748                           ;colorfunctions.c: 86:     {;colorfunctions.c: 87:         colourname = "Dark Blue";
  6749   001E4C  0E1C               	movlw	low STR_7
  6750   001E4E  6E0F               	movwf	Hue2Colour@colourname^0,c
  6751   001E50  0E0E               	movlw	high STR_7
  6752   001E52  6E10               	movwf	(Hue2Colour@colourname+1)^0,c
  6753   001E54  EF2C  F00F         	goto	l68
  6754   001E58                     l74:
  6755   001E58                     l68:
  6756                           
  6757                           ;colorfunctions.c: 90:     return colourname;
  6758   001E58  C00F  F00D         	movff	Hue2Colour@colourname,?_Hue2Colour
  6759   001E5C  C010  F00E         	movff	Hue2Colour@colourname+1,?_Hue2Colour+1
  6760   001E60  0012               	return		;funcret
  6761   001E62                     __end_of_Hue2Colour:
  6762                           	callstack 0
  6763                           
  6764 ;; *************** function ___flge *****************
  6765 ;; Defined at:
  6766 ;;		line 4 in file "C:\Program Files\Microchip\xc8\v2.40\pic\sources\c99\common\flge.c"
  6767 ;; Parameters:    Size  Location     Type
  6768 ;;  ff1             4    0[COMRAM] PTR unsigned char 
  6769 ;;  ff2             4    4[COMRAM] PTR unsigned char 
  6770 ;; Auto vars:     Size  Location     Type
  6771 ;;		None
  6772 ;; Return value:  Size  Location     Type
  6773 ;;		None               void
  6774 ;; Registers used:
  6775 ;;		wreg, status,2, status,0
  6776 ;; Tracked objects:
  6777 ;;		On entry : 0/0
  6778 ;;		On exit  : 0/0
  6779 ;;		Unchanged: 0/0
  6780 ;; Data sizes:     COMRAM   BANK0   BANK1   BANK2   BANK3   BANK4   BANK5   BANK6   BANK7   BANK8   BANK9  BANK10  BANK1
      +1  BANK12  BANK13
  6781 ;;      Params:         8       0       0       0       0       0       0       0       0       0       0       0       
      +0       0       0
  6782 ;;      Locals:         0       0       0       0       0       0       0       0       0       0       0       0       
      +0       0       0
  6783 ;;      Temps:          4       0       0       0       0       0       0       0       0       0       0       0       
      +0       0       0
  6784 ;;      Totals:        12       0       0       0       0       0       0       0       0       0       0       0       
      +0       0       0
  6785 ;;Total ram usage:       12 bytes
  6786 ;; Hardware stack levels used: 1
  6787 ;; This function calls:
  6788 ;;		Nothing
  6789 ;; This function is called by:
  6790 ;;		_RGB2Hue
  6791 ;;		_Hue2Colour
  6792 ;; This function uses a non-reentrant model
  6793 ;;
  6794                           
  6795                           	psect	text36
  6796   002B78                     __ptext36:
  6797                           	callstack 0
  6798   002B78                     ___flge:
  6799                           	callstack 29
  6800   002B78  0E00               	movlw	0
  6801   002B7A  1401               	andwf	___flge@ff1^0,w,c
  6802   002B7C  6E09               	movwf	??___flge^0,c
  6803   002B7E  0E00               	movlw	0
  6804   002B80  1402               	andwf	(___flge@ff1+1)^0,w,c
  6805   002B82  6E0A               	movwf	(??___flge+1)^0,c
  6806   002B84  0E80               	movlw	128
  6807   002B86  1403               	andwf	(___flge@ff1+2)^0,w,c
  6808   002B88  6E0B               	movwf	(??___flge+2)^0,c
  6809   002B8A  0E7F               	movlw	127
  6810   002B8C  1404               	andwf	(___flge@ff1+3)^0,w,c
  6811   002B8E  6E0C               	movwf	(??___flge+3)^0,c
  6812   002B90  5009               	movf	??___flge^0,w,c
  6813   002B92  100A               	iorwf	(??___flge+1)^0,w,c
  6814   002B94  100B               	iorwf	(??___flge+2)^0,w,c
  6815   002B96  100C               	iorwf	(??___flge+3)^0,w,c
  6816   002B98  A4D8               	btfss	status,2,c
  6817   002B9A  EFD1  F015         	goto	u2301
  6818   002B9E  EFD3  F015         	goto	u2300
  6819   002BA2                     u2301:
  6820   002BA2  EFDB  F015         	goto	l2352
  6821   002BA6                     u2300:
  6822   002BA6  0E00               	movlw	0
  6823   002BA8  6E01               	movwf	___flge@ff1^0,c
  6824   002BAA  0E00               	movlw	0
  6825   002BAC  6E02               	movwf	(___flge@ff1+1)^0,c
  6826   002BAE  0E00               	movlw	0
  6827   002BB0  6E03               	movwf	(___flge@ff1+2)^0,c
  6828   002BB2  0E00               	movlw	0
  6829   002BB4  6E04               	movwf	(___flge@ff1+3)^0,c
  6830   002BB6                     l2352:
  6831   002BB6  0E00               	movlw	0
  6832   002BB8  1405               	andwf	___flge@ff2^0,w,c
  6833   002BBA  6E09               	movwf	??___flge^0,c
  6834   002BBC  0E00               	movlw	0
  6835   002BBE  1406               	andwf	(___flge@ff2+1)^0,w,c
  6836   002BC0  6E0A               	movwf	(??___flge+1)^0,c
  6837   002BC2  0E80               	movlw	128
  6838   002BC4  1407               	andwf	(___flge@ff2+2)^0,w,c
  6839   002BC6  6E0B               	movwf	(??___flge+2)^0,c
  6840   002BC8  0E7F               	movlw	127
  6841   002BCA  1408               	andwf	(___flge@ff2+3)^0,w,c
  6842   002BCC  6E0C               	movwf	(??___flge+3)^0,c
  6843   002BCE  5009               	movf	??___flge^0,w,c
  6844   002BD0  100A               	iorwf	(??___flge+1)^0,w,c
  6845   002BD2  100B               	iorwf	(??___flge+2)^0,w,c
  6846   002BD4  100C               	iorwf	(??___flge+3)^0,w,c
  6847   002BD6  A4D8               	btfss	status,2,c
  6848   002BD8  EFF0  F015         	goto	u2311
  6849   002BDC  EFF2  F015         	goto	u2310
  6850   002BE0                     u2311:
  6851   002BE0  EFFA  F015         	goto	l2356
  6852   002BE4                     u2310:
  6853   002BE4  0E00               	movlw	0
  6854   002BE6  6E05               	movwf	___flge@ff2^0,c
  6855   002BE8  0E00               	movlw	0
  6856   002BEA  6E06               	movwf	(___flge@ff2+1)^0,c
  6857   002BEC  0E00               	movlw	0
  6858   002BEE  6E07               	movwf	(___flge@ff2+2)^0,c
  6859   002BF0  0E00               	movlw	0
  6860   002BF2  6E08               	movwf	(___flge@ff2+3)^0,c
  6861   002BF4                     l2356:
  6862   002BF4  AE04               	btfss	(___flge@ff1+3)^0,7,c
  6863   002BF6  EFFF  F015         	goto	u2321
  6864   002BFA  EF01  F016         	goto	u2320
  6865   002BFE                     u2321:
  6866   002BFE  EF0A  F016         	goto	l2360
  6867   002C02                     u2320:
  6868   002C02  6C01               	negf	___flge@ff1^0,c
  6869   002C04  1E02               	comf	(___flge@ff1+1)^0,f,c
  6870   002C06  B0D8               	btfsc	status,0,c
  6871   002C08  2A02               	incf	(___flge@ff1+1)^0,f,c
  6872   002C0A  1E03               	comf	(___flge@ff1+2)^0,f,c
  6873   002C0C  B0D8               	btfsc	status,0,c
  6874   002C0E  2A03               	incf	(___flge@ff1+2)^0,f,c
  6875   002C10  0E80               	movlw	128
  6876   002C12  5604               	subfwb	(___flge@ff1+3)^0,f,c
  6877   002C14                     l2360:
  6878   002C14  AE08               	btfss	(___flge@ff2+3)^0,7,c
  6879   002C16  EF0F  F016         	goto	u2331
  6880   002C1A  EF11  F016         	goto	u2330
  6881   002C1E                     u2331:
  6882   002C1E  EF1A  F016         	goto	l492
  6883   002C22                     u2330:
  6884   002C22  6C05               	negf	___flge@ff2^0,c
  6885   002C24  1E06               	comf	(___flge@ff2+1)^0,f,c
  6886   002C26  B0D8               	btfsc	status,0,c
  6887   002C28  2A06               	incf	(___flge@ff2+1)^0,f,c
  6888   002C2A  1E07               	comf	(___flge@ff2+2)^0,f,c
  6889   002C2C  B0D8               	btfsc	status,0,c
  6890   002C2E  2A07               	incf	(___flge@ff2+2)^0,f,c
  6891   002C30  0E80               	movlw	128
  6892   002C32  5608               	subfwb	(___flge@ff2+3)^0,f,c
  6893   002C34                     l492:
  6894   002C34  0E00               	movlw	0
  6895   002C36  1A01               	xorwf	___flge@ff1^0,f,c
  6896   002C38  0E00               	movlw	0
  6897   002C3A  1A02               	xorwf	(___flge@ff1+1)^0,f,c
  6898   002C3C  0E00               	movlw	0
  6899   002C3E  1A03               	xorwf	(___flge@ff1+2)^0,f,c
  6900   002C40  0E80               	movlw	128
  6901   002C42  1A04               	xorwf	(___flge@ff1+3)^0,f,c
  6902   002C44  0E00               	movlw	0
  6903   002C46  1A05               	xorwf	___flge@ff2^0,f,c
  6904   002C48  0E00               	movlw	0
  6905   002C4A  1A06               	xorwf	(___flge@ff2+1)^0,f,c
  6906   002C4C  0E00               	movlw	0
  6907   002C4E  1A07               	xorwf	(___flge@ff2+2)^0,f,c
  6908   002C50  0E80               	movlw	128
  6909   002C52  1A08               	xorwf	(___flge@ff2+3)^0,f,c
  6910   002C54  5005               	movf	___flge@ff2^0,w,c
  6911   002C56  5C01               	subwf	___flge@ff1^0,w,c
  6912   002C58  5006               	movf	(___flge@ff2+1)^0,w,c
  6913   002C5A  5802               	subwfb	(___flge@ff1+1)^0,w,c
  6914   002C5C  5007               	movf	(___flge@ff2+2)^0,w,c
  6915   002C5E  5803               	subwfb	(___flge@ff1+2)^0,w,c
  6916   002C60  5008               	movf	(___flge@ff2+3)^0,w,c
  6917   002C62  5804               	subwfb	(___flge@ff1+3)^0,w,c
  6918   002C64  B0D8               	btfsc	status,0,c
  6919   002C66  EF37  F016         	goto	u2341
  6920   002C6A  EF39  F016         	goto	u2340
  6921   002C6E                     u2341:
  6922   002C6E  EF3C  F016         	goto	l2366
  6923   002C72                     u2340:
  6924   002C72  90D8               	bcf	status,0,c
  6925   002C74  EF3D  F016         	goto	l497
  6926   002C78                     l2366:
  6927   002C78  80D8               	bsf	status,0,c
  6928   002C7A                     l497:
  6929   002C7A  0012               	return		;funcret
  6930   002C7C                     __end_of___flge:
  6931                           	callstack 0
  6932                           
  6933                           	psect	rparam
  6934   000000                     
  6935                           	psect	idloc
  6936                           
  6937                           ;Config register IDLOC0 @ 0x200000
  6938                           ;	unspecified, using default values
  6939   200000                     	org	2097152
  6940   200000  0FFF               	dw	4095
  6941                           
  6942                           ;Config register IDLOC1 @ 0x200002
  6943                           ;	unspecified, using default values
  6944   200002                     	org	2097154
  6945   200002  0FFF               	dw	4095
  6946                           
  6947                           ;Config register IDLOC2 @ 0x200004
  6948                           ;	unspecified, using default values
  6949   200004                     	org	2097156
  6950   200004  0FFF               	dw	4095
  6951                           
  6952                           ;Config register IDLOC3 @ 0x200006
  6953                           ;	unspecified, using default values
  6954   200006                     	org	2097158
  6955   200006  0FFF               	dw	4095
  6956                           
  6957                           ;Config register IDLOC4 @ 0x200008
  6958                           ;	unspecified, using default values
  6959   200008                     	org	2097160
  6960   200008  0FFF               	dw	4095
  6961                           
  6962                           ;Config register IDLOC5 @ 0x20000A
  6963                           ;	unspecified, using default values
  6964   20000A                     	org	2097162
  6965   20000A  0FFF               	dw	4095
  6966                           
  6967                           ;Config register IDLOC6 @ 0x20000C
  6968                           ;	unspecified, using default values
  6969   20000C                     	org	2097164
  6970   20000C  0FFF               	dw	4095
  6971                           
  6972                           ;Config register IDLOC7 @ 0x20000E
  6973                           ;	unspecified, using default values
  6974   20000E                     	org	2097166
  6975   20000E  0FFF               	dw	4095
  6976                           
  6977                           	psect	config
  6978                           
  6979                           ;Config register CONFIG1L @ 0x300000
  6980                           ;	External Oscillator mode Selection bits
  6981                           ;	FEXTOSC = HS, HS (crystal oscillator) above 8 MHz; PFM set to high power
  6982                           ;	Power-up default value for COSC bits
  6983                           ;	RSTOSC = EXTOSC_4PLL, EXTOSC with 4x PLL, with EXTOSC operating per FEXTOSC bits
  6984   300000                     	org	3145728
  6985   300000  AA                 	db	170
  6986                           
  6987                           ;Config register CONFIG1H @ 0x300001
  6988                           ;	unspecified, using default values
  6989                           ;	Clock Out Enable bit
  6990                           ;	CLKOUTEN = 0x1, unprogrammed default
  6991                           ;	Clock Switch Enable bit
  6992                           ;	CSWEN = 0x1, unprogrammed default
  6993                           ;	Fail-Safe Clock Monitor Enable bit
  6994                           ;	FCMEN = 0x1, unprogrammed default
  6995   300001                     	org	3145729
  6996   300001  FF                 	db	255
  6997                           
  6998                           ;Config register CONFIG2L @ 0x300002
  6999                           ;	unspecified, using default values
  7000                           ;	Master Clear Enable bit
  7001                           ;	MCLRE = 0x1, unprogrammed default
  7002                           ;	Power-up Timer Enable bit
  7003                           ;	PWRTE = 0x1, unprogrammed default
  7004                           ;	Low-power BOR enable bit
  7005                           ;	LPBOREN = 0x1, unprogrammed default
  7006                           ;	Brown-out Reset Enable bits
  7007                           ;	BOREN = 0x3, unprogrammed default
  7008   300002                     	org	3145730
  7009   300002  FF                 	db	255
  7010                           
  7011                           ;Config register CONFIG2H @ 0x300003
  7012                           ;	unspecified, using default values
  7013                           ;	Brown Out Reset Voltage selection bits
  7014                           ;	BORV = 0x3, unprogrammed default
  7015                           ;	ZCD Disable bit
  7016                           ;	ZCD = 0x1, unprogrammed default
  7017                           ;	PPSLOCK bit One-Way Set Enable bit
  7018                           ;	PPS1WAY = 0x1, unprogrammed default
  7019                           ;	Stack Full/Underflow Reset Enable bit
  7020                           ;	STVREN = 0x1, unprogrammed default
  7021                           ;	Debugger Enable bit
  7022                           ;	DEBUG = 0x1, unprogrammed default
  7023                           ;	Extended Instruction Set Enable bit
  7024                           ;	XINST = 0x1, unprogrammed default
  7025   300003                     	org	3145731
  7026   300003  FF                 	db	255
  7027                           
  7028                           ;Config register CONFIG3L @ 0x300004
  7029                           ;	WDT Period Select bits
  7030                           ;	WDTCPS = WDTCPS_31, Divider ratio 1:65536; software control of WDTPS
  7031                           ;	WDT operating mode
  7032                           ;	WDTE = OFF, WDT Disabled
  7033   300004                     	org	3145732
  7034   300004  9F                 	db	159
  7035                           
  7036                           ;Config register CONFIG3H @ 0x300005
  7037                           ;	unspecified, using default values
  7038                           ;	WDT Window Select bits
  7039                           ;	WDTCWS = 0x7, unprogrammed default
  7040                           ;	WDT input clock selector
  7041                           ;	WDTCCS = 0x7, unprogrammed default
  7042   300005                     	org	3145733
  7043   300005  FF                 	db	255
  7044                           
  7045                           ;Config register CONFIG4L @ 0x300006
  7046                           ;	unspecified, using default values
  7047                           ;	Write Protection Block 0
  7048                           ;	WRT0 = 0x1, unprogrammed default
  7049                           ;	Write Protection Block 1
  7050                           ;	WRT1 = 0x1, unprogrammed default
  7051                           ;	Write Protection Block 2
  7052                           ;	WRT2 = 0x1, unprogrammed default
  7053                           ;	Write Protection Block 3
  7054                           ;	WRT3 = 0x1, unprogrammed default
  7055                           ;	Write Protection Block 3
  7056                           ;	WRT4 = 0x1, unprogrammed default
  7057                           ;	Write Protection Block 3
  7058                           ;	WRT5 = 0x1, unprogrammed default
  7059                           ;	Write Protection Block 3
  7060                           ;	WRT6 = 0x1, unprogrammed default
  7061                           ;	Write Protection Block 3
  7062                           ;	WRT7 = 0x1, unprogrammed default
  7063   300006                     	org	3145734
  7064   300006  FF                 	db	255
  7065                           
  7066                           ;Config register CONFIG4H @ 0x300007
  7067                           ;	unspecified, using default values
  7068                           ;	Configuration Register Write Protection bit
  7069                           ;	WRTC = 0x1, unprogrammed default
  7070                           ;	Boot Block Write Protection bit
  7071                           ;	WRTB = 0x1, unprogrammed default
  7072                           ;	Data EEPROM Write Protection bit
  7073                           ;	WRTD = 0x1, unprogrammed default
  7074                           ;	Scanner Enable bit
  7075                           ;	SCANE = 0x1, unprogrammed default
  7076                           ;	Low Voltage Programming Enable bit
  7077                           ;	LVP = 0x1, unprogrammed default
  7078   300007                     	org	3145735
  7079   300007  FF                 	db	255
  7080                           
  7081                           ;Config register CONFIG5L @ 0x300008
  7082                           ;	unspecified, using default values
  7083                           ;	UserNVM Program Memory Code Protection bit
  7084                           ;	CP = 0x1, unprogrammed default
  7085                           ;	DataNVM Memory Code Protection bit
  7086                           ;	CPD = 0x1, unprogrammed default
  7087   300008                     	org	3145736
  7088   300008  FF                 	db	255
  7089                           
  7090                           ;Config register CONFIG5H @ 0x300009
  7091                           ;	unspecified, using default values
  7092   300009                     	org	3145737
  7093   300009  FF                 	db	255
  7094                           
  7095                           ;Config register CONFIG6L @ 0x30000A
  7096                           ;	unspecified, using default values
  7097                           ;	Table Read Protection Block 0
  7098                           ;	EBTR0 = 0x1, unprogrammed default
  7099                           ;	Table Read Protection Block 1
  7100                           ;	EBTR1 = 0x1, unprogrammed default
  7101                           ;	Table Read Protection Block 2
  7102                           ;	EBTR2 = 0x1, unprogrammed default
  7103                           ;	Table Read Protection Block 3
  7104                           ;	EBTR3 = 0x1, unprogrammed default
  7105                           ;	Table Read Protection Block 4
  7106                           ;	EBTR4 = 0x1, unprogrammed default
  7107                           ;	Table Read Protection Block 5
  7108                           ;	EBTR5 = 0x1, unprogrammed default
  7109                           ;	Table Read Protection Block 6
  7110                           ;	EBTR6 = 0x1, unprogrammed default
  7111                           ;	Table Read Protection Block 7
  7112                           ;	EBTR7 = 0x1, unprogrammed default
  7113   30000A                     	org	3145738
  7114   30000A  FF                 	db	255
  7115                           
  7116                           ;Config register CONFIG6H @ 0x30000B
  7117                           ;	unspecified, using default values
  7118                           ;	Boot Block Table Read Protection bit
  7119                           ;	EBTRB = 0x1, unprogrammed default
  7120   30000B                     	org	3145739
  7121   30000B  FF                 	db	255
  7122                           tosu	equ	0xFFF
  7123                           tosh	equ	0xFFE
  7124                           tosl	equ	0xFFD
  7125                           stkptr	equ	0xFFC
  7126                           pclatu	equ	0xFFB
  7127                           pclath	equ	0xFFA
  7128                           pcl	equ	0xFF9
  7129                           tblptru	equ	0xFF8
  7130                           tblptrh	equ	0xFF7
  7131                           tblptrl	equ	0xFF6
  7132                           tablat	equ	0xFF5
  7133                           prodh	equ	0xFF4
  7134                           prodl	equ	0xFF3
  7135                           indf0	equ	0xFEF
  7136                           postinc0	equ	0xFEE
  7137                           postdec0	equ	0xFED
  7138                           preinc0	equ	0xFEC
  7139                           plusw0	equ	0xFEB
  7140                           fsr0h	equ	0xFEA
  7141                           fsr0l	equ	0xFE9
  7142                           wreg	equ	0xFE8
  7143                           indf1	equ	0xFE7
  7144                           postinc1	equ	0xFE6
  7145                           postdec1	equ	0xFE5
  7146                           preinc1	equ	0xFE4
  7147                           plusw1	equ	0xFE3
  7148                           fsr1h	equ	0xFE2
  7149                           fsr1l	equ	0xFE1
  7150                           bsr	equ	0xFE0
  7151                           indf2	equ	0xFDF
  7152                           postinc2	equ	0xFDE
  7153                           postdec2	equ	0xFDD
  7154                           preinc2	equ	0xFDC
  7155                           plusw2	equ	0xFDB
  7156                           fsr2h	equ	0xFDA
  7157                           fsr2l	equ	0xFD9
  7158                           status	equ	0xFD8

Data Sizes:
    Strings     79
    Constant    0
    Data        23
    BSS         57
    Persistent  0
    Stack       0

Auto Spaces:
    Space          Size  Autos    Used
    COMRAM           95     94      95
    BANK0           160    101     148
    BANK1           256      0      32
    BANK2           256      0       0
    BANK3           256      0       0
    BANK4           256      0       0
    BANK5           256      0       0
    BANK6           256      0       0
    BANK7           256      0       0
    BANK8           256      0       0
    BANK9           256      0       0
    BANK10          256      0       0
    BANK11          256      0       0
    BANK12          256      0       0
    BANK13          234      0       0

Pointer List with Targets:

    strncmp@_r	PTR const unsigned char  size(2) Largest target is 4
		 -> STR_37(CODE[4]), 

    strncmp@r	PTR const unsigned char  size(2) Largest target is 4
		 -> STR_37(CODE[4]), 

    strncmp@_l	PTR const unsigned char  size(2) Largest target is 16
		 -> STR_34(CODE[16]), 

    strncmp@l	PTR const unsigned char  size(2) Largest target is 16
		 -> STR_34(CODE[16]), 

    strlen@s	PTR const unsigned char  size(2) Largest target is 7
		 -> stoa@nuls(COMRAM[7]), ?_sprintf(COMRAM[2]), STR_17(CODE[10]), STR_16(CODE[11]), 
		 -> STR_15(CODE[7]), STR_14(CODE[7]), STR_13(CODE[5]), STR_12(CODE[9]), 
		 -> STR_11(CODE[6]), STR_10(CODE[4]), STR_9(CODE[1]), 

    strlen@a	PTR const unsigned char  size(2) Largest target is 7
		 -> stoa@nuls(COMRAM[7]), ?_sprintf(COMRAM[2]), STR_17(CODE[10]), STR_16(CODE[11]), 
		 -> STR_15(CODE[7]), STR_14(CODE[7]), STR_13(CODE[5]), STR_12(CODE[9]), 
		 -> STR_11(CODE[6]), STR_10(CODE[4]), STR_9(CODE[1]), 

    fputc@fp...source	PTR const unsigned char  size(2) Largest target is 0

    fputc@fp...buffer	PTR unsigned char  size(2) Largest target is 0

    fputc@fp	PTR struct _IO_FILE size(2) Largest target is 11
		 -> sprintf@f(COMRAM[11]), 

    vfprintf@ap	PTR PTR void  size(2) Largest target is 2
		 -> sprintf@ap(COMRAM[2]), 

    vfprintf@fp	PTR struct _IO_FILE size(2) Largest target is 11
		 -> sprintf@f(COMRAM[11]), 

    vfprintf@fmt	PTR const unsigned char  size(2) Largest target is 16
		 -> STR_34(CODE[16]), 

    vfprintf@cfmt	PTR unsigned char  size(2) Largest target is 16
		 -> STR_34(CODE[16]), 

    vfpfcnvrt@ap	PTR PTR void  size(2) Largest target is 2
		 -> sprintf@ap(COMRAM[2]), 

    vfpfcnvrt@fp	PTR struct _IO_FILE size(2) Largest target is 11
		 -> sprintf@f(COMRAM[11]), 

    vfpfcnvrt@fmt	PTR PTR unsigned char  size(2) Largest target is 2
		 -> vfprintf@cfmt(COMRAM[2]), 

    S1298$vp	PTR void  size(2) Largest target is 0

    convarg.vp	PTR void  size(2) Largest target is 0

    stoa@fp	PTR struct _IO_FILE size(2) Largest target is 11
		 -> sprintf@f(COMRAM[11]), 

    stoa@s	PTR unsigned char  size(2) Largest target is 2
		 -> ?_sprintf(COMRAM[2]), STR_17(CODE[10]), STR_16(CODE[11]), STR_15(CODE[7]), 
		 -> STR_14(CODE[7]), STR_13(CODE[5]), STR_12(CODE[9]), STR_11(CODE[6]), 
		 -> STR_10(CODE[4]), STR_9(CODE[1]), 

    stoa@cp	PTR unsigned char  size(2) Largest target is 7
		 -> stoa@nuls(COMRAM[7]), ?_sprintf(COMRAM[2]), STR_17(CODE[10]), STR_16(CODE[11]), 
		 -> STR_15(CODE[7]), STR_14(CODE[7]), STR_13(CODE[5]), STR_12(CODE[9]), 
		 -> STR_11(CODE[6]), STR_10(CODE[4]), STR_9(CODE[1]), 

    sprintf@fmt	PTR const unsigned char  size(2) Largest target is 16
		 -> STR_34(CODE[16]), 

    sprintf@s	PTR unsigned char  size(2) Largest target is 80
		 -> main@data(BANK0[80]), 

    sprintf@ap	PTR void [1] size(2) Largest target is 2
		 -> ?_sprintf(COMRAM[2]), 

    S1245$source	PTR const unsigned char  size(2) Largest target is 0

    f...source	PTR const unsigned char  size(2) Largest target is 0

    S1245$buffer	PTR unsigned char  size(2) Largest target is 0

    f...buffer	PTR unsigned char  size(2) Largest target is 0

    sendStringSerial4@string	PTR unsigned char  size(2) Largest target is 80
		 -> main@data(BANK0[80]), 

    Color2String@buf	PTR unsigned char  size(2) Largest target is 80
		 -> main@data(BANK0[80]), 

    Color2String@cf	PTR struct RGBC_rel size(2) Largest target is 20
		 -> colorf(BANK0[20]), 

    Color2String@colourname	PTR unsigned char  size(2) Largest target is 11
		 -> STR_17(CODE[10]), STR_16(CODE[11]), STR_15(CODE[7]), STR_14(CODE[7]), 
		 -> STR_13(CODE[5]), STR_12(CODE[9]), STR_11(CODE[6]), STR_10(CODE[4]), 
		 -> STR_9(CODE[1]), 

    sp__Hue2Colour	PTR unsigned char  size(2) Largest target is 11
		 -> STR_17(CODE[10]), STR_16(CODE[11]), STR_15(CODE[7]), STR_14(CODE[7]), 
		 -> STR_13(CODE[5]), STR_12(CODE[9]), STR_11(CODE[6]), STR_10(CODE[4]), 
		 -> STR_9(CODE[1]), 

    Hue2Colour@cf	PTR struct RGBC_rel size(2) Largest target is 20
		 -> colorf(BANK0[20]), 

    Hue2Colour@colourname	PTR unsigned char  size(2) Largest target is 11
		 -> STR_17(CODE[10]), STR_16(CODE[11]), STR_15(CODE[7]), STR_14(CODE[7]), 
		 -> STR_13(CODE[5]), STR_12(CODE[9]), STR_11(CODE[6]), STR_10(CODE[4]), 
		 -> STR_9(CODE[1]), 

    RGB2Hue@cf	PTR struct RGBC_rel size(2) Largest target is 20
		 -> colorf(BANK0[20]), 

    colour_read_all@cf	PTR struct RGBC_rel size(2) Largest target is 20
		 -> colorf(BANK0[20]), 

    Colourslist	PTR unsigned char [8] size(2) Largest target is 11
		 -> STR_33(CODE[6]), STR_32(CODE[10]), STR_31(CODE[11]), STR_30(CODE[7]), 
		 -> STR_29(CODE[7]), STR_28(CODE[5]), STR_27(CODE[9]), STR_26(CODE[4]), 
		 -> STR_25(CODE[6]), STR_24(CODE[10]), STR_23(CODE[11]), STR_22(CODE[7]), 
		 -> STR_21(CODE[7]), STR_20(CODE[5]), STR_19(CODE[9]), STR_18(CODE[4]), 
		 -> STR_8(CODE[6]), STR_7(CODE[10]), STR_6(CODE[11]), STR_5(CODE[7]), 
		 -> STR_4(CODE[7]), STR_3(CODE[5]), STR_2(CODE[9]), STR_1(CODE[4]), 


Critical Paths under _main in COMRAM

    _main->_RGB2Hue
    _colour_read_all->___xxtofl
    _color_read_Red->_I2C_2_Master_Read
    _color_read_Green->_I2C_2_Master_Read
    _color_read_Clear->_I2C_2_Master_Read
    _color_read_Blue->_I2C_2_Master_Read
    _I2C_2_Master_RepStart->_I2C_2_Master_Idle
    _I2C_2_Master_Read->_I2C_2_Master_Idle
    _color_click_init->_color_writetoaddr
    _color_writetoaddr->_I2C_2_Master_Write
    _I2C_2_Master_Write->_I2C_2_Master_Idle
    _I2C_2_Master_Stop->_I2C_2_Master_Idle
    _I2C_2_Master_Start->_I2C_2_Master_Idle
    _RGB2Hue->___flmul
    ___xxtofl->_color_read_Blue
    ___xxtofl->_color_read_Clear
    ___xxtofl->_color_read_Green
    ___xxtofl->_color_read_Red
    ___flsub->___fladd
    ___fladd->___xxtofl
    ___flmul->___fldiv
    ___fldiv->___flsub
    _Color2String->_sprintf
    _sprintf->_vfprintf
    _vfprintf->_vfpfcnvrt
    _vfpfcnvrt->_stoa
    _stoa->_fputc
    _sendStringSerial4->_sendCharSerial4
    _Hue2Colour->___flge

Critical Paths under _main in BANK0

    _main->_RGB2Hue
    _RGB2Hue->___flmul

Critical Paths under _main in BANK1

    None.

Critical Paths under _main in BANK2

    None.

Critical Paths under _main in BANK3

    None.

Critical Paths under _main in BANK4

    None.

Critical Paths under _main in BANK5

    None.

Critical Paths under _main in BANK6

    None.

Critical Paths under _main in BANK7

    None.

Critical Paths under _main in BANK8

    None.

Critical Paths under _main in BANK9

    None.

Critical Paths under _main in BANK10

    None.

Critical Paths under _main in BANK11

    None.

Critical Paths under _main in BANK12

    None.

Critical Paths under _main in BANK13

    None.

Call Graph Tables:

 ---------------------------------------------------------------------------------
 (Depth) Function   	        Calls       Base Space   Used Autos Params    Refs
 ---------------------------------------------------------------------------------
 (0) _main                                                82    82      0   24090
                                             92 COMRAM     2     2      0
                                             21 BANK0     80    80      0
                       _Color2String
                  _I2C_2_Master_Init
                            _RGB2Hue
                   _color_click_init
                    _colour_read_all
                         _initUSART4
 ---------------------------------------------------------------------------------
 (1) _initUSART4                                           0     0      0       0
 ---------------------------------------------------------------------------------
 (1) _colour_read_all                                     18    16      2    1518
                                             25 COMRAM    14    12      2
                           ___xxtofl
                    _color_read_Blue
                   _color_read_Clear
                   _color_read_Green
                     _color_read_Red
 ---------------------------------------------------------------------------------
 (2) _color_read_Red                                       7     5      2     113
                                              4 COMRAM     7     5      2
                  _I2C_2_Master_Read
              _I2C_2_Master_RepStart
                 _I2C_2_Master_Start
                  _I2C_2_Master_Stop
                 _I2C_2_Master_Write
 ---------------------------------------------------------------------------------
 (2) _color_read_Green                                     7     5      2     113
                                              4 COMRAM     7     5      2
                  _I2C_2_Master_Read
              _I2C_2_Master_RepStart
                 _I2C_2_Master_Start
                  _I2C_2_Master_Stop
                 _I2C_2_Master_Write
 ---------------------------------------------------------------------------------
 (2) _color_read_Clear                                     7     5      2     113
                                              4 COMRAM     7     5      2
                  _I2C_2_Master_Read
              _I2C_2_Master_RepStart
                 _I2C_2_Master_Start
                  _I2C_2_Master_Stop
                 _I2C_2_Master_Write
 ---------------------------------------------------------------------------------
 (2) _color_read_Blue                                      7     5      2     113
                                              4 COMRAM     7     5      2
                  _I2C_2_Master_Read
              _I2C_2_Master_RepStart
                 _I2C_2_Master_Start
                  _I2C_2_Master_Stop
                 _I2C_2_Master_Write
 ---------------------------------------------------------------------------------
 (3) _I2C_2_Master_RepStart                                0     0      0       0
                  _I2C_2_Master_Idle
 ---------------------------------------------------------------------------------
 (3) _I2C_2_Master_Read                                    3     3      0      45
                                              1 COMRAM     3     3      0
                  _I2C_2_Master_Idle
 ---------------------------------------------------------------------------------
 (1) _color_click_init                                     1     1      0     370
                                              4 COMRAM     1     1      0
                  _I2C_2_Master_Init
                  _color_writetoaddr
 ---------------------------------------------------------------------------------
 (2) _color_writetoaddr                                    2     1      1     370
                                              2 COMRAM     2     1      1
                 _I2C_2_Master_Start
                  _I2C_2_Master_Stop
                 _I2C_2_Master_Write
 ---------------------------------------------------------------------------------
 (3) _I2C_2_Master_Write                                   1     1      0      22
                                              1 COMRAM     1     1      0
                  _I2C_2_Master_Idle
 ---------------------------------------------------------------------------------
 (3) _I2C_2_Master_Stop                                    0     0      0       0
                  _I2C_2_Master_Idle
 ---------------------------------------------------------------------------------
 (3) _I2C_2_Master_Start                                   0     0      0       0
                  _I2C_2_Master_Idle
 ---------------------------------------------------------------------------------
 (4) _I2C_2_Master_Idle                                    1     1      0       0
                                              0 COMRAM     1     1      0
 ---------------------------------------------------------------------------------
 (2) _I2C_2_Master_Init                                    0     0      0       0
 ---------------------------------------------------------------------------------
 (1) _RGB2Hue                                             14    12      2   14573
                                             86 COMRAM     6     4      2
                                             13 BANK0      8     8      0
                            ___fladd
                            ___fldiv
                             ___fleq
                             ___flge
                            ___flmul
                            ___flsub
                            ___fltol
                           ___xxtofl
 ---------------------------------------------------------------------------------
 (2) ___xxtofl                                            14    10      4     854
                                             11 COMRAM    14    10      4
                    _color_read_Blue (ARG)
                   _color_read_Clear (ARG)
                   _color_read_Green (ARG)
                     _color_read_Red (ARG)
 ---------------------------------------------------------------------------------
 (2) ___fltol                                             10     6      4     523
                                              0 COMRAM    10     6      4
 ---------------------------------------------------------------------------------
 (2) ___flsub                                              8     0      8    3021
                                             41 COMRAM     8     0      8
                            ___fladd
 ---------------------------------------------------------------------------------
 (3) ___fladd                                             16     8      8    2556
                                             25 COMRAM    16     8      8
                           ___xxtofl (ARG)
 ---------------------------------------------------------------------------------
 (2) ___flmul                                             25    17      8    1886
                                             74 COMRAM    12     4      8
                                              0 BANK0     13    13      0
                            ___fladd (ARG)
                            ___fldiv (ARG)
                            ___flsub (ARG)
                           ___xxtofl (ARG)
 ---------------------------------------------------------------------------------
 (2) ___fleq                                              12     4      8     538
                                              0 COMRAM    12     4      8
 ---------------------------------------------------------------------------------
 (2) ___fldiv                                             25    17      8    1541
                                             49 COMRAM    25    17      8
                            ___fladd (ARG)
                            ___flsub (ARG)
                           ___xxtofl (ARG)
 ---------------------------------------------------------------------------------
 (1) _Color2String                                         6     2      4    7601
                                             68 COMRAM     6     2      4
                         _Hue2Colour
                  _sendStringSerial4
                            _sprintf
 ---------------------------------------------------------------------------------
 (2) _sprintf                                             21    15      6    4224
                                             49 COMRAM    19    13      6
                           _vfprintf
 ---------------------------------------------------------------------------------
 (3) _vfprintf                                             8     2      6    3873
                                             41 COMRAM     8     2      6
                          _vfpfcnvrt
 ---------------------------------------------------------------------------------
 (4) _vfpfcnvrt                                           26    20      6    3521
                                             31 COMRAM    10     4      6
                              _fputc
                               _stoa
                            _strncmp
 ---------------------------------------------------------------------------------
 (5) _strncmp                                             11     5      6     453
                                              0 COMRAM    11     5      6
 ---------------------------------------------------------------------------------
 (5) _stoa                                                22    18      4    1618
                                              9 COMRAM    22    18      4
                              _fputc
                             _strlen
 ---------------------------------------------------------------------------------
 (6) _strlen                                               4     2      2     166
                                              0 COMRAM     4     2      2
 ---------------------------------------------------------------------------------
 (6) _fputc                                                9     5      4     934
                                              0 COMRAM     9     5      4
                              _putch
 ---------------------------------------------------------------------------------
 (7) _putch                                                1     1      0       0
 ---------------------------------------------------------------------------------
 (2) _sendStringSerial4                                    2     0      2     143
                                              1 COMRAM     2     0      2
                    _sendCharSerial4
 ---------------------------------------------------------------------------------
 (3) _sendCharSerial4                                      1     1      0      22
                                              0 COMRAM     1     1      0
 ---------------------------------------------------------------------------------
 (2) _Hue2Colour                                           4     2      2    2993
                                             12 COMRAM     4     2      2
                             ___flge
 ---------------------------------------------------------------------------------
 (2) ___flge                                              12     4      8    2534
                                              0 COMRAM    12     4      8
 ---------------------------------------------------------------------------------
 Estimated maximum stack depth 7
 ---------------------------------------------------------------------------------

 Call Graph Graphs:

 _main (ROOT)
   _Color2String
     _Hue2Colour
       ___flge
     _sendStringSerial4
       _sendCharSerial4
     _sprintf
       _vfprintf
         _vfpfcnvrt
           _fputc
             _putch
           _stoa
             _fputc
             _strlen
           _strncmp
   _I2C_2_Master_Init
   _RGB2Hue
     ___fladd
       ___xxtofl (ARG)
         _color_read_Blue (ARG)
           _I2C_2_Master_Read
             _I2C_2_Master_Idle
           _I2C_2_Master_RepStart
             _I2C_2_Master_Idle
           _I2C_2_Master_Start
             _I2C_2_Master_Idle
           _I2C_2_Master_Stop
             _I2C_2_Master_Idle
           _I2C_2_Master_Write
             _I2C_2_Master_Idle
         _color_read_Clear (ARG)
           _I2C_2_Master_Read
           _I2C_2_Master_RepStart
           _I2C_2_Master_Start
           _I2C_2_Master_Stop
           _I2C_2_Master_Write
         _color_read_Green (ARG)
           _I2C_2_Master_Read
           _I2C_2_Master_RepStart
           _I2C_2_Master_Start
           _I2C_2_Master_Stop
           _I2C_2_Master_Write
         _color_read_Red (ARG)
           _I2C_2_Master_Read
           _I2C_2_Master_RepStart
           _I2C_2_Master_Start
           _I2C_2_Master_Stop
           _I2C_2_Master_Write
     ___fldiv
       ___fladd (ARG)
       ___flsub (ARG)
         ___fladd
       ___xxtofl (ARG)
     ___fleq
     ___flge
     ___flmul
       ___fladd (ARG)
       ___fldiv (ARG)
       ___flsub (ARG)
       ___xxtofl (ARG)
     ___flsub
     ___fltol
     ___xxtofl
   _color_click_init
     _I2C_2_Master_Init
     _color_writetoaddr
       _I2C_2_Master_Start
       _I2C_2_Master_Stop
       _I2C_2_Master_Write
   _colour_read_all
     ___xxtofl
     _color_read_Blue
     _color_read_Clear
     _color_read_Green
     _color_read_Red
   _initUSART4

 Address spaces:
Name               Size   Autos  Total    Cost      Usage
BIGRAM             DE9      0       0      48        0.0%
EEDATA             400      0       0       0        0.0%
BITBANK12          100      0       0      28        0.0%
BANK12             100      0       0      29        0.0%
BITBANK11          100      0       0      26        0.0%
BANK11             100      0       0      27        0.0%
BITBANK10          100      0       0      24        0.0%
BANK10             100      0       0      25        0.0%
BITBANK9           100      0       0      22        0.0%
BANK9              100      0       0      23        0.0%
BITBANK8           100      0       0      20        0.0%
BANK8              100      0       0      21        0.0%
BITBANK7           100      0       0      18        0.0%
BANK7              100      0       0      19        0.0%
BITBANK6           100      0       0      16        0.0%
BANK6              100      0       0      17        0.0%
BITBANK5           100      0       0      14        0.0%
BANK5              100      0       0      15        0.0%
BITBANK4           100      0       0      12        0.0%
BANK4              100      0       0      13        0.0%
BITBANK3           100      0       0      10        0.0%
BANK3              100      0       0      11        0.0%
BITBANK2           100      0       0       8        0.0%
BANK2              100      0       0       9        0.0%
BITBANK1           100      0       0       6        0.0%
BANK1              100      0      20       7       12.5%
BITBANK13           EA      0       0      30        0.0%
BANK13              EA      0       0      31        0.0%
BITBANK0            A0      0       0       4        0.0%
BANK0               A0     65      94       5       92.5%
BITBIGSFRhlllh      8F      0       0      37        0.0%
BITBIGSFRhhh        78      0       0      32        0.0%
BITCOMRAM           5F      0       0       0        0.0%
COMRAM              5F     5E      5F       1      100.0%
BITBIGSFRlllhh      36      0       0      41        0.0%
BITBIGSFRllh        2D      0       0      40        0.0%
BITBIGSFRlllhll     2A      0       0      43        0.0%
BITBIGSFRlllll      26      0       0      46        0.0%
BITBIGSFRlllhll     19      0       0      44        0.0%
BITBIGSFRlllhlh      C      0       0      42        0.0%
BITBIGSFRhlllll      8      0       0      38        0.0%
BITBIGSFRllllh       6      0       0      45        0.0%
BITBIGSFRhllh        4      0       0      36        0.0%
BITBIGSFRhlhh        1      0       0      34        0.0%
BITBIGSFRhlhl        1      0       0      35        0.0%
BITBIGSFRhhl         1      0       0      33        0.0%
BITBIGSFRlh          1      0       0      39        0.0%
BIGSFR               0      0       0     200        0.0%
BITSFR_3             0      0       0     200        0.0%
SFR_3                0      0       0     200        0.0%
BITSFR_2             0      0       0     200        0.0%
SFR_2                0      0       0     200        0.0%
BITSFR_1             0      0       0     200        0.0%
SFR_1                0      0       0     200        0.0%
BITSFR               0      0       0     200        0.0%
SFR                  0      0       0     200        0.0%
STACK                0      0       0       2        0.0%
NULL                 0      0       0       0        0.0%
ABS                  0      0     113      47        0.0%
DATA                 0      0     113       3        0.0%
CODE                 0      0       0       0        0.0%


Microchip Technology PIC18 Macro Assembler V2.40 build 20220703182018 
Symbol Table                                                                                   Thu Mar 09 21:44:10 2023

               _color_read_Red 300C                   ___fldiv@aexp 004A                   ___fldiv@bexp 0049  
                 ___fldiv@sign 0042                _color_read_Blue 30FC                             l22 344A  
                           l31 314A                             l25 305A                             l34 30FA  
                           l19 3340                             l28 30AA                             l55 10A0  
                           l63 1552                             l80 1E60                             l49 2E32  
                           l74 1E58                             l68 1E58               _color_read_Clear 30AC  
             _color_read_Green 305C                            l110 33E2                            l113 3408  
                          l122 349A                            l107 33E0                            l203 342A  
                          l212 344E                            l116 34A4                            l125 3486  
                          l215 3462                            l119 3490                            l224 33B6  
                          l128 3302                            l218 337E                            l524 2B76  
                          l811 2486                            l492 2C34                            l820 24CC  
                          l822 2544                            l814 244A                            l486 2FA6  
                          l823 2532                            l497 2C7A                            l905 31E8  
                          l809 2626                            l841 1F28                            l850 2196  
                          l851 2184                            l755 1742                            l940 29B6  
                          l772 185C                            l764 1A12                            l756 1730  
                          l845 228C                            l781 192C                            l757 16F6  
                          l942 29BE                            l782 191A                            l951 2A70  
                          l848 211E                            l962 2934                            l858 224E  
                          l882 267E                            l980 2EFC                            l797 327C  
                          l885 27DA                            l991 34A6                            l968 3236  
                          l896 2772                            l889 2716                            l997 319A  
                          wreg 000FE8                   ___flmul@aexp 0065                   ___flmul@bexp 0066  
                 ___flmul@sign 0060                   ___flmul@temp 006B                   ___flmul@prod 0067  
              __end_of_RGB2Hue 1554                   ___fltol@exp1 000A                           l1001 2D58  
                         l2000 2E46                           l2002 2E58                           l2004 2E62  
                         l2012 314C                           l2006 2E80                           l2014 3158  
                         l2030 296A                           l2022 2936                           l2102 28FA  
                         l2008 2EB6                           l2016 315C                           l2040 29E6  
                         l2032 297E                           l2024 2948                           l2200 1664  
                         l2112 349C                           l2120 3492                           l2018 318E  
                         l2050 2A4E                           l2042 29EA                           l2034 2986  
                         l2026 2950                           l2106 290C                           l2210 1678  
                         l2202 1668                           l2114 34A0                           l2122 3496  
                         l2130 32C8                           l2052 2A52                           l2044 2A08  
                         l2036 2994                           l2028 2962                           l2060 2CB2  
                         l2300 18CA                           l2220 168C                           l2212 167C  
                         l2204 166C                           l2116 347E                           l2132 32D0  
                         l2124 3488                           l2142 344E                           l2046 2A14  
                         l2038 29D2                           l2070 2D34                           l2062 2CC0  
                         l2054 2C7C                           l2310 18FC                           l2302 18DA  
                         l2230 16DE                           l2222 1690                           l2214 1680  
                         l2206 1670                           l2150 156E                           l2118 3482  
                         l2134 32D8                           l2126 348C                           l2144 345E  
                         l2048 2A4A                           l2064 2CDC                           l2056 2CA6  
                         l2080 2800                           l2320 1956                           l2312 1912  
                         l2304 18DC                           l2240 1722                           l2232 16EE  
                         l2216 1684                           l2208 1674                           l2224 1694  
                         l2160 15A2                           l2152 1570                           l2136 32FE  
                         l2128 32C4                           l2400 305C                           l2066 2CF8  
                         l2090 287A                           l2082 280E                           l2330 19D2  
                         l2322 1990                           l2306 18EA                           l2242 1724  
                         l2234 1704                           l2226 1698                           l2218 1688  
                         l2170 15D4                           l2154 1580                           l2162 15AA  
                         l2146 1554                           l2074 33E2                           l2138 3300  
                         l2402 30A2                           l2420 1A1C                           l2068 2D0A  
                         l2092 289E                           l2084 281C                           l2500 22BA  
                         l2340 19F2                           l2332 19D6                           l2316 193C  
                         l2324 1992                           l2308 18EE                           l2260 17AC  
                         l2252 1774                           l2244 172E                           l2236 1710  
                         l2228 16C2                           l2180 160A                           l2172 15DA  
                         l2164 15BA                           l2156 1590                           l2148 1560  
                         l2076 33F2                           l2412 30AC                           l2350 2BA6  
                         l2430 1B1C                           l2422 1A5A                           l2094 28AA  
                         l2086 2820                           l2078 27DC                           l2510 22F4  
                         l2502 22CA                           l2342 1A00                           l2334 19E4  
                         l2326 19A2                           l2318 1948                           l2262 17B0  
                         l2254 1784                           l2246 1750                           l2270 17D0  
                         l2238 1714                           l2190 1646                           l2182 161A  
                         l2174 15E8                           l2166 15C0                           l2158 15A0  
                         l2406 30FC                           l2414 30F2                           l2360 2C14  
                         l2352 2BB6                           l2440 1BEE                           l2432 1B28  
                         l2424 1A98                           l2096 28B2                           l2088 2844  
                         l2600 2560                           l2520 2320                           l2512 22FA  
                         l2504 22DA                           l2344 1A02                           l2336 19EA  
                         l2328 19B2                           l2272 17F6                           l2280 184C  
                         l2264 17BE                           l2256 1792                           l2248 1760  
                         l2192 1654                           l2184 161C                           l2176 15EA  
                         l2168 15D2                           l2408 3142                           l2362 2C22  
                         l2354 2BE4                           l2450 1CC0                           l2442 1C2C  
                         l2434 1B66                           l2426 1AA0                           l2418 1A14  
                         l2098 28C2                           l2370 31EA                           l2610 25CC  
                         l2602 256E                           l2530 235A                           l2522 2330  
                         l2514 2300                           l2506 22DC                           l2338 19EC  
                         l2290 18A0                           l2282 1872                           l2274 182A  
                         l2266 17C0                           l2258 17A0                           l2194 1658  
                         l2178 15FA                           l2186 1624                           l2364 2C72  
                         l2356 2BF4                           l2348 2B78                           l2460 1DC4  
                         l2452 1CFE                           l2444 1C38                           l2436 1BA4  
                         l2428 1ADE                           l2372 31F6                           l2620 261A  
                         l2612 25E6                           l2604 2598                           l2532 2370  
                         l2524 2340                           l2516 230E                           l2508 22E4  
                         l2700 2050                           l2292 18AE                           l2284 1882  
                         l2276 182C                           l2268 17CA                           l2196 165C  
                         l2188 1634                           l2380 33B8                           l2366 2C78  
                         l2358 2C02                           l2462 1DD0                           l2454 1D3C  
                         l2446 1C76                           l2438 1BB0                           l2374 3212  
                         l2470 319C                           l2622 261C                           l2614 2602  
                         l2606 259C                           l2550 23C4                           l2534 2380  
                         l2542 23A0                           l2526 2342                           l2518 2310  
                         l2710 20E6                           l2702 205C                           l2630 1E62  
                         l2294 18B0                           l2278 183C                           l2198 1660  
                         l2390 33CE                           l2382 33C2                           l2464 1E0E  
                         l2456 1D48                           l2448 1CB4                           l2376 322E  
                         l2472 31AC                           l2616 2606                           l2608 25B6  
                         l2560 2416                           l2552 23DE                           l2544 23B0  
                         l2536 2388                           l2528 234A                           l2720 213C  
                         l2712 2104                           l2704 2078                           l2640 1EA0  
                         l2632 1E70                           l2296 18BE                           l2288 1896  
                         l2384 33C8                           l2392 342E                           l2466 1E4C  
                         l2458 1D86                           l2490 339E                           l2482 3380  
                         l2474 31B4                           l2618 2614                           l2570 2472  
                         l2562 2426                           l2554 23EE                           l2546 23B0  
                         l2538 238C                           l2730 21A6                           l2722 2140  
                         l2714 210E                           l2706 20A2                           l2650 1ED2  
                         l2642 1EB0                           l2634 1E7E                           l2298 18C6  
                         l2386 33CA                           l2394 300C                           l2484 3384  
                         l2476 31BC                           l2580 24B2                           l2572 2474  
                         l2564 243A                           l2556 23FE                           l2492 228E  
                         l2740 2208                           l2732 21B2                           l2724 214E  
                         l2716 211C                           l2708 20D8                           l2660 1F12  
                         l2652 1EE0                           l2644 1EB6                           l2636 1E80  
                         l2820 2B56                           l2804 2B02                           l2900 0F08  
                         l2388 33CC                           l2396 3052                           l2486 3392  
                         l2478 31D8                           l2590 24EE                           l2582 24BC  
                         l2574 2484                           l2566 2448                           l2558 240E  
                         l2494 229A                           l2750 2270                           l2742 221C  
                         l2734 21C0                           l2726 217C                           l2718 212E  
                         l2670 1F5C                           l2662 1F18                           l2654 1EE2  
                         l2646 1EC6                           l2638 1E90                           l2822 2B66  
                         l2814 2B2A                           l2806 2B0C                           l2830 2648  
                         l2910 104C                           l2902 0F4E                           l2488 3396  
                         l2592 24FC                           l2584 24CA                           l2576 2496  
                         l2568 2454                           l2496 22A8                           l2752 2272  
                         l2744 2236                           l2736 21EA                           l2680 1FAC  
                         l2672 1F68                           l2664 1F38                           l2656 1EF2  
                         l2648 1ECC                           l2760 3238                           l2816 2B36  
                         l2808 2B16                           l2840 26C0                           l2832 268E  
                         l2920 121A                           l2912 1078                           l2904 0F94  
                         l2594 252A                           l2578 24AC                           l2586 24DC  
                         l2498 22AA                           l2770 2F3C                           l2746 2252  
                         l2754 2278                           l2738 21EE                           l2690 1FEE  
                         l2682 1FB8                           l2674 1F72                           l2666 1F48  
                         l2658 1F02                           l2762 3248                           l2818 2B46  
                         l2850 2748                           l2842 26CC                           l2834 26A4  
                         l2826 262A                           l2930 1486                           l2922 1260  
                         l2914 10E6                           l2906 0FBC                           l2588 24EA  
                         l2772 2F6A                           l2756 227C                           l2748 2262  
                         l2692 1FFA                           l2684 1FC4                           l2676 1F88  
                         l2860 2786                           l2852 2754                           l2844 26FE  
                         l2828 263A                           l2924 12AA                           l2932 14EA  
                         l2916 112C                           l2908 1002                           l2940 3418  
                         l2950 3342                           l2598 2554                           l2774 2F7A  
                         l2766 2EFE                           l2694 200A                           l2686 1FD2  
                         l2678 1F94                           l2790 2AC6                           l2782 2A72  
                         l2862 27AA                           l2854 2762                           l2846 2700  
                         l2838 26B8                           l2934 1506                           l2926 1364  
                         l2918 1150                           l2942 341A                           l2952 3356  
                         l2776 2F9E                           l2768 2F2C                           l2696 2024  
                         l2688 1FDE                           l2792 2AC8                           l2784 2A88  
                         l2864 27BA                           l2856 2780                           l2848 270C  
                         l2928 13CC                           l2880 332C                           l2872 3304  
                         l2944 3424                           l2936 340A                           l2960 2FB0  
                         l2954 3372                           l2778 2FA4                           l2698 2034  
                         l2794 2AD8                           l2866 27C8                           l2858 2782  
                         l2882 3336                           l2874 3308                           l2890 2E16  
                         l2946 3426                           l2938 340E                           l2970 2FBC  
                         l2962 2FB4                           l2796 2ADC                           l2788 2A9C  
                         l2868 27CA                           l2892 0E52                           l2876 3312  
                         l2884 2D5A                           l2948 3428                           l2980 2FEC  
                         l2972 2FBE                           l2964 2FB6                           l2956 2FA8  
                         l1998 2E34                           l2798 2AEA                           l2894 0E98  
                         l2878 3322                           l2886 2DE2                           l2974 2FC0  
                         l2966 2FB8                           l2958 2FAC                           l2896 0EDE  
                         l2888 2DFA                           l2976 2FCC                           l2968 2FBA  
                         l2898 0EFE                           l2978 2FD8                           STR_1 0E4C  
                         STR_2 0E26                           STR_3 0E43                           STR_4 0E36  
                         STR_5 0E2F                           STR_6 0E11                           STR_7 0E1C  
                         STR_8 0E3D                           STR_9 0E10                           u2000 16C2  
                         u2001 16BE                           u2010 16DA                           u2011 16D4  
                         u2100 17BE                           u2020 16DC                           u2101 17BA  
                         u2110 17F6                           u2030 1704                           u2111 17F2  
                         u2031 1700                           u2200 1912                           u2120 183C  
                         u2040 1722                           u3000 2AEA                           u2201 190E  
                         u2121 1838                           u2041 171E                           u3001 2AE6  
                         u2210 1928                           u2130 1872                           u2050 1742  
                         u3010 2AFE                           u2211 1924                           u2131 186E  
                         u2051 173E                           u3011 2AFA                           u2300 2BA6  
                         u2220 193C                           u2140 1882                           u2060 1750  
                         u3020 2B26                           u3100 2762                           u2301 2BA2  
                         u2221 1938                           u2141 187E                           u2061 174C  
                         u3021 2B22                           u3101 275E                           u2310 2BE4  
                         u2230 1956                           u2150 18AE                           u2070 1760  
                         u3030 2B46                           u3110 2772                           u2311 2BE0  
                         u2231 1952                           u2151 18AA                           u2071 175C  
                         u3031 2B42                           u3111 276E                           u2320 2C02  
                         u2400 1B66                           u2240 1990                           u2160 18BE  
                         u2080 1792                           u3040 2B56                           u3120 2780  
                         u3200 104C                   _BAUD4CONbits 000EE9                           u2321 2BFE  
                         u2401 1B62                           u2241 198C                           u2161 18BA  
                         u2081 178E                           u3041 2B52                           u3121 277C  
                         u3201 1048                           u2330 2C22                           u2410 1BA4  
                         u2250 19A2                           u2170 18DA                           u2090 17A0  
                         u3130 27BA                           u3050 263A                           u3210 10E6  
                         u2331 2C1E                           u2411 1BA0                           u2251 199E  
                         u2171 18D6                           u2091 179C                           u3131 27B6  
                         u3051 2636                           u3211 10E2                           u2340 2C72  
                         u2500 1E0E                           u2420 1BEE                           u2260 19B2  
                         u2180 18EA                           u3140 27C8                           u3060 2648  
                         u3220 112C                           u2341 2C6E                           u2501 1E0A  
                         u2421 1BEA                           u1701 2940                           u2261 19AE  
                         u2181 18E6                           u3141 27C4                           u3061 2644  
                         u3221 1128                           u2510 1E4C                           u2430 1C2C  
                         u1710 2962                           u2350 322E                           u2270 19D2  
                         u2190 18FC                           u3070 26A4                           u3230 1260  
                         u3150 0E98                           u2511 1E48                           u2431 1C28  
                         u1711 295E                           u2351 322A                           u2271 19CE  
                         u2191 18F8                           u3071 26A0                           u3231 125C  
                         u3151 0E94                           u2440 1C76                           u2360 1A5A  
                         u2520 33B6                           u1640 2E46                           u1720 2994  
                         u1800 2D0A                           u2600 23B0                           u2280 19E4  
                         u3080 26FA                           u3240 12AA                           u3160 0EDE  
                         u2441 1C72                           u2361 1A56                           u2521 33B2  
                         u1641 2E42                           u1721 2990                           u1801 2D06  
                         u2601 23AC                           u2281 19E0                           u3081 26F6  
                         u3241 12A6                           u3161 0EDA                           u2450 1CB4  
                         u2370 1A98                           u1650 2E58                           u1730 29B2  
                         u1810 2D34                           u2610 2426                           u2530 22A8  
                         u2290 1A00                           u3090 2744                           u3250 1506  
                         u3170 0F4E                           u2451 1CB0                           u2371 1A94  
                         u1651 2E54                           u1731 29AE                           u1811 2D30  
                         u2611 2422                           u2531 22A4                           u2291 19FC  
                         u3091 2740                           u3251 1502                           u3171 0F4A  
                         u2460 1CFE                           u2380 1ADE                           u1900 345E  
                         u1660 2E80                           u1740 2A08                           u2700 2540  
                         u2620 2448                           u2540 22BA                           u3180 0F94  
                         u1820 33F2                           u2461 1CFA                           u2381 1ADA  
                         u1901 345A                           u1661 2E7C                           u1741 2A04  
                         u2701 253C                           u2621 2444                           u2541 22B6  
                         u3181 0F90                           u1821 33EE                           u2470 1D3C  
                         u2390 1B1C                           u1670 2EB6                           u1750 2A36  
                         u2710 2554                           u2630 2472                           u2550 22CA  
                         u1910 156E                           u3190 1002                           u1830 3408  
                         u2471 1D38                           u2391 1B18                           u1671 2EB2  
                         u2711 2550                           u2631 246E                           u2551 22C6  
                         u1911 156A                           u3191 0FFE                           u1831 3404  
                         u2480 1D86                           u1680 317E                           u1760 2A70  
                         u1840 2800                           u2720 256E                           u2640 2496  
                         u2560 230E                           u2800 1EF2                           u1920 1580  
                         u2481 1D82                           u1761 2A6C                           u1841 27FC  
                         u2721 256A                           u2641 2492                           u2561 230A  
                         u2801 1EEE                           u1921 157C                           u2490 1DC4  
                         u1690 318E                           u1770 2CA6                           u1850 2844  
                         u2730 25B6                           u2650 24AC                           u2570 2320  
                         u2810 1F02                           u1930 1590                           u2491 1DC0  
                         u1691 318A                           u1771 2CA2                           u1851 2840  
                         u2731 25B2                           u2651 24A8                           u2571 231C  
                         u2811 1EFE                           u1931 158C                           u3267 2FF6  
                         u1780 2CDC                           u1860 287A                           u2740 25E6  
                         u2660 24CA                           u2580 2330                           u2900 21A6  
                         u2820 1F38                           u1940 15D2                           u1757 2A2C  
                         u1781 2CD8                           u1861 2876                           u2741 25E2  
                         u2661 24C6                           u2581 232C                           u2901 21A2  
                         u2821 1F34                           u1941 15CE                           u3277 3318  
                         u1790 2CF8                           u1870 289E                           u2750 2614  
                         u2670 24EA                           u2590 2370                           u2910 21C0  
                         u2830 1F48                           u1950 15E8                           u3287 3398  
                         u1687 3174                           u1791 2CF4                           u1871 289A  
                         u2751 2610                           u2671 24E6                           u2591 236C  
                         u2911 21BC                           u2831 1F44                           u1951 15E4  
                         u2680 24FC                           u2920 2208                           u2840 20C2  
                         u2760 1E7E                           u1960 15FA                           u1880 32EC  
                         u2681 24F8                           u2921 2204                           u2761 1E7A  
                         u1961 15F6                           u1881 32E4                           u2690 252A  
                         u2930 2236                           u2850 211C                           u2770 1E90  
                         u1970 160A                           u2691 2526                           u2931 2232  
                         u2851 2118                           u2771 1E8C                           u1971 1606  
                         u2940 2270                           u2860 213C                           u2780 1EA0  
                         u1980 1646                           u2941 226C                           u2861 2138  
                         u2845 20B8                           u2781 1E9C                           u1981 1642  
                         u2950 2F2C                           u2870 214E                           u2790 1EE0  
                         u1990 1654                           u2951 2F28                           u2871 214A  
                         u2791 1EDC                           u1991 1650                           u2960 2F6A  
                         u2880 217C                           u2961 2F66                           u2881 2178  
                         u2970 2F9E                           u2890 2192                           u1898 32EE  
                         u2971 2F9A                           u2891 218E                           u2980 2A88  
                         u2981 2A84                           u2990 2ABC                           u2995 2AB2  
                         _dbuf 0100                           _main 2FA8                           _prec 00C7  
                         fsr1h 000FE2                           fsr2h 000FDA                           indf1 000FE7  
                         indf2 000FDF                           fsr1l 000FE1                           fsr2l 000FD9  
                         _stoa 2936                           prodh 000FF4                           prodl 000FF3  
                         start 0000                ___fldiv@new_exp 0043         __end_of_color_read_Red 305C  
                 ___param_bank 000000                     _Hue2Colour 1A14                  ___fltol@sign1 0009  
              __end_of___fladd 1A14                          ?_main 0001                __end_of___fldiv 2628  
                        STR_10 0E4C                          STR_11 0E3D                          STR_12 0E26  
                        STR_13 0E43                          STR_14 0E36                          STR_30 0E2F  
                        STR_15 0E2F                          STR_31 0E11                          STR_16 0E11  
                        STR_32 0E1C                          STR_17 0E1C                          STR_33 0E3D  
                        STR_34 0E01                          STR_26 0E4C                          STR_35 0E48  
                        STR_27 0E26                          STR_28 0E43                          STR_37 0E48  
                        STR_29 0E36                __end_of___flmul 228E                __end_of___flsub 327E  
              __end_of___fltol 2B78                          ?_stoa 000A                   vfpfcnvrt@fmt 0022  
      __end_of_sendCharSerial4 3464     __end_of_I2C_2_Master_Start 34A6     __end_of_I2C_2_Master_Write 3488  
                        _flags 005F                          _fputc 2E34                          _width 00C5  
                        _putch 34A6                          tablat 000FF5                          plusw1 000FE3  
                        plusw2 000FDB                          stoa@i 0018                          stoa@l 001C  
                        stoa@p 001E                          stoa@s 000C                          stoa@w 0016  
                        status 000FD8                __end_of_sprintf 31EA                __end_of_strncmp 2D5A  
         __end_of_Color2String 3380        __end_of_color_read_Blue 314C          _I2C_2_Master_RepStart 3488  
              ?_color_read_Red 0005                __initialization 327E                   __end_of_main 300C  
                 __end_of_stoa 2A72                         ??_main 005D                         ??_stoa 000E  
                __activetblptr 000002                      ??_RGB2Hue 0059                         ?_fputc 0001  
              _colour_read_all 2D5A                         ?_putch 0001                         _RC0PPS 000E62  
                       _RC4REG 000EE3                         _RD5PPS 000E6F                         _RD6PPS 000E70  
     __end_of_color_click_init 3342                         _RX4PPS 000E15                         _TX4REG 000EE4  
             __end_of___xxtofl 27DC                   vfprintf@cfmt 0030                         ___flge 2B78  
                       ___fleq 2EFE                      ??___fladd 0022                    ?_Hue2Colour 000D  
                    ??___fldiv 003A                      ??___flmul 0053                      ??___flsub 0032  
                    ??___fltol 0005                         _colorf 00C9                         clear_0 32A4  
                       clear_1 32B0                         isa$std 000001                         _strlen 314C  
                  _Colourslist 00DD                         fputc@c 0001                   __mediumconst 0000  
                       tblptrh 000FF7                         tblptrl 000FF6                         tblptru 000FF8  
             ?_sendCharSerial4 0001                         stoa@cp 001A                         stoa@fp 000A  
                       putch@c 0001               __end_of_vfprintf 3238                      ??_sprintf 0038  
                    ??_strncmp 0007                     ___flge@ff1 0001                     ___flge@ff2 0005  
                 ___xxtofl@arg 0016                   ___xxtofl@exp 0015                   ___xxtofl@val 000C  
                   ___fleq@ff1 0001                     ___fleq@ff2 0005                     __accesstop 0060  
      __end_of__initialization 32B8       __end_of_color_read_Clear 30FC       __end_of_color_read_Green 30AC  
       ?_I2C_2_Master_RepStart 0001                  ___rparam_used 000001                     ___fltol@f1 0001  
             ?_color_read_Blue 0005                 __pcstackCOMRAM 0001                   __pidataBANK0 3464  
                __end_of_fputc 2EFE                  __end_of_putch 34A8                      RGB2Hue@cf 0057  
      __end_of_colour_read_all 2E34                        ??_fputc 0005                        ??_putch 0001  
                   __pbssBANK0 00C5                     __pbssBANK1 0100              _color_writetoaddr 342C  
                      ?___flge 0001                        ?___fleq 0001             ?_color_writetoaddr 0003  
          ??_color_writetoaddr 0004                        ?_strlen 0001                   _Color2String 3342  
                      _RGB2Hue 0E52                      ?___xxtofl 000C                        _SP4BRGH 000EE6  
                      _SP4BRGL 000EE5                        _SSP2ADD 000ED6                        _SSP2BUF 000ED5  
       color_writetoaddr@value 0003               ??_color_read_Red 0007      __end_of_color_writetoaddr 344C  
           _I2C_2_Master_Start 349C                     _initUSART4 340A             _I2C_2_Master_Write 347C  
                      __Hparam 0000                        __Lparam 0000              color_read_Red@tmp 000A  
      sendStringSerial4@string 0002                        ___fladd 1554                        ___fldiv 228E  
                      ___flmul 1E62                        ___flsub 3238                        ___fltol 2A72  
          ?_I2C_2_Master_Start 0001            ?_I2C_2_Master_Write 0001                      ?_vfprintf 002A  
                 __psmallconst 0E00                        __pcinit 327E                        __ramtop 0E00  
                      __ptext0 2FA8                        __ptext1 340A                        __ptext2 2D5A  
                      __ptext3 300C                        __ptext4 305C                        __ptext5 30AC  
                      __ptext6 30FC                        __ptext7 3488                        __ptext8 32C2  
                      __ptext9 3304               ?_colour_read_all 001A                     ??___xxtofl 0010  
               Color2String@cf 0047                        _sprintf 319C           ??_I2C_2_Master_Start 0002  
         ??_I2C_2_Master_Write 0002                        _strncmp 2C7C           end_of_initialization 32B8  
                      fputc@fp 0003                  __Lmediumconst 0000              ?_color_click_init 0001  
           ??_color_click_init 0005              __end_of_vfpfcnvrt 2936                        postdec1 000FE5  
                      postdec2 000FDD                   ??_Hue2Colour 000F                        postinc0 000FEE  
                      postinc1 000FE6                        postinc2 000FDE                     ??_vfprintf 0030  
                      strlen@a 0003                        strlen@s 0001                    ___fladd@grs 0029  
                ___xxtofl@sign 0014                      _TRISAbits 000F81                      _TRISCbits 000F83  
                    _TRISDbits 000F84                      _TRISFbits 000F86                      _TRISGbits 000F87  
                  ___fldiv@grs 0045                    ___fldiv@rem 003E       color_writetoaddr@address 0004  
      ??_I2C_2_Master_RepStart 0002             __end_of_Hue2Colour 1E62                    ___flmul@grs 0061  
            ?_color_read_Clear 0005              ?_color_read_Green 0005                    ?_initUSART4 0001  
    sendCharSerial4@charToSend 0001             ??_color_read_Clear 0007             ??_color_read_Green 0007  
                 _RGB2Hue$1609 006D                 __end_of___flge 2C7C                 __end_of___fleq 2FA8  
                  vfpfcnvrt@ap 0024                    vfpfcnvrt@fp 0020                 __end_of_strlen 319C  
                   RGB2Hue@max 0071                     RGB2Hue@min 0073            color_read_Clear@tmp 000A  
          start_initialization 327E            color_read_Green@tmp 000A                    vfprintf@fmt 002C  
                     ??___flge 0009                       ??___fleq 0009                    __pdataBANK0 00DD  
                     ??_strlen 0003                      ___fladd@a 001E                      ___fladd@b 001A  
                    ___fldiv@a 0036                      ___fldiv@b 0032                       ?_RGB2Hue 0057  
                    ___flmul@a 004F                      ___flmul@b 004B                    __pbssCOMRAM 005F  
                    ___flsub@a 002E                      ___flsub@b 002A                  __pcstackBANK0 0060  
       Color2String@colourname 0049                       ?___fladd 001A                       ?___fldiv 0032  
                     ?___flmul 004B                       ?___flsub 002A                       ?___fltol 0001  
         I2C_2_Master_Read@ack 0003           I2C_2_Master_Read@tmp 0004                    __smallconst 0E00  
            _I2C_2_Master_Idle 33E2              _I2C_2_Master_Init 33B8              _I2C_2_Master_Read 32C2  
            _I2C_2_Master_Stop 3492             ?_I2C_2_Master_Idle 0001             ?_I2C_2_Master_Init 0001  
           ?_I2C_2_Master_Read 0001             ?_I2C_2_Master_Stop 0001                       ?_sprintf 0032  
                     ?_strncmp 0001           Hue2Colour@colourname 000F              colour_read_all@cf 001A  
                 Hue2Colour@cf 000D              _sendStringSerial4 3380            ??_I2C_2_Master_Idle 0001  
          ??_I2C_2_Master_Init 0001            ??_I2C_2_Master_Read 0002                       _LATAbits 000F79  
          ??_I2C_2_Master_Stop 0002                       _LATFbits 000F7E                       _LATGbits 000F7F  
           ?_sendStringSerial4 0002                       _PIR4bits 000E37              ??_sendCharSerial4 0001  
                     _SSP2CON2 000EDA            ??_sendStringSerial4 0004                       _SSP2STAT 000ED8  
                    _vfpfcnvrt 27DC      __end_of_I2C_2_Master_Idle 340A      __end_of_I2C_2_Master_Init 33E2  
    __end_of_I2C_2_Master_Read 3304      __end_of_I2C_2_Master_Stop 349C    I2C_2_Master_Write@data_byte 0002  
            ??_color_read_Blue 0007                      copy_data0 3292      __end_of_sendStringSerial4 33B8  
__end_of_I2C_2_Master_RepStart 3492             color_read_Blue@tmp 000A                   ??_initUSART4 0001  
                     __Hrparam 0000                     vfprintf@ap 002E                       __Lrparam 0000  
                   vfprintf@fp 002A                     ?_vfpfcnvrt 0020                     _ANSELDbits 000EA7  
                   sprintf@fmt 0034                       ___xxtofl 2628             __end_of_initUSART4 342C  
                     __ptext10 342C                       __ptext11 347C                       __ptext20 1554  
                     __ptext12 3492                       __ptext21 1E62                       __ptext13 349C  
                     __ptext30 314C                       __ptext22 2EFE                       __ptext14 33E2  
                     __ptext31 2E34                       __ptext23 228E                       __ptext15 33B8  
                     __ptext32 34A6                       __ptext24 3342                       __ptext16 0E52  
                     __ptext33 3380                       __ptext25 319C                       __ptext17 2628  
                     __ptext34 344C                       __ptext26 31EA                       __ptext18 2A72  
                     __ptext35 1A14                       __ptext27 27DC                       __ptext19 3238  
                     __ptext36 2B78                       __ptext28 2C7C                       __ptext29 2936  
                 _SSP2CON1bits 000ED9                   _SSP2CON2bits 000EDA                Color2String@buf 0045  
             colour_read_all@B 0024               colour_read_all@G 0020               colour_read_all@R 001C  
                    stoa@F1144 00ED                       isa$xinst 000000                     _RC4STAbits 000EE7  
                     _vfprintf 31EA                       main@data 0075                  ?_Color2String 0045  
               _vfpfcnvrt$1352 0028                      sprintf@ap 0038                      strncmp@_l 0001  
                    strncmp@_r 0003              ??_colour_read_all 001C                    ??_vfpfcnvrt 0026  
                     stoa@nuls 000F               _color_click_init 3304                 ??_Color2String 0049  
                     sprintf@f 003A                       sprintf@s 0032                     _SSP2DATPPS 000E1D  
                   _SSP2CLKPPS 000E1C                       strncmp@l 0008                       strncmp@n 0005  
                     strncmp@r 000A                  ___fladd@signs 0026                     _TX4STAbits 000EE8  
              _sendCharSerial4 344C                   ___fladd@aexp 0027                   ___fladd@bexp 0028  
