

Microchip MPLAB XC8 Assembler V2.40 build 20220703182018 
                                                                                               Thu Mar 09 21:38:10 2023

Microchip MPLAB XC8 C Compiler v2.40 (Free license) build 20220703182018 Og1 
     1                           	processor	18F67K40
     2                           	fnconf	param0,??,?,0
     3                           	pagewidth 120
     4                           	opt	flic
     5                           	psect	idataBANK1,global,class=CODE,delta=1,noexec
     6                           	psect	smallconst,global,reloc=2,class=SMALLCONST,delta=1,noexec
     7                           	psect	cinit,global,reloc=2,class=CODE,delta=1
     8                           	psect	bssBANK0,global,class=BANK0,space=1,delta=1,lowdata,noexec
     9                           	psect	bssBANK1,global,class=BANK1,space=1,delta=1,lowdata,noexec
    10                           	psect	dataBANK1,global,class=BANK1,space=1,delta=1,lowdata,noexec
    11                           	psect	cstackBANK1,global,class=BANK1,space=1,delta=1,lowdata,noexec
    12                           	psect	cstackBANK0,global,class=BANK0,space=1,delta=1,lowdata,noexec
    13                           	psect	cstackCOMRAM,global,class=COMRAM,space=1,delta=1,lowdata,noexec
    14                           	psect	text0,global,reloc=2,class=CODE,delta=1
    15                           	psect	text1,global,reloc=2,class=CODE,delta=1
    16                           	psect	text2,global,reloc=2,class=CODE,delta=1
    17                           	psect	text3,global,reloc=2,class=CODE,delta=1
    18                           	psect	text4,global,reloc=2,class=CODE,delta=1
    19                           	psect	text5,global,reloc=2,class=CODE,delta=1
    20                           	psect	text6,global,reloc=2,class=CODE,delta=1
    21                           	psect	text7,global,reloc=2,class=CODE,delta=1
    22                           	psect	text8,global,reloc=2,class=CODE,delta=1
    23                           	psect	text9,global,reloc=2,class=CODE,delta=1
    24                           	psect	text10,global,reloc=2,class=CODE,delta=1
    25                           	psect	text11,global,reloc=2,class=CODE,delta=1
    26                           	psect	text12,global,reloc=2,class=CODE,delta=1
    27                           	psect	text13,global,reloc=2,class=CODE,delta=1
    28                           	psect	text14,global,reloc=2,class=CODE,delta=1
    29                           	psect	text15,global,reloc=2,class=CODE,delta=1
    30                           	psect	text16,global,reloc=2,class=CODE,delta=1
    31                           	psect	text17,global,reloc=2,class=CODE,delta=1,group=2
    32                           	psect	text18,global,reloc=2,class=CODE,delta=1
    33                           	psect	text19,global,reloc=2,class=CODE,delta=1,group=3
    34                           	psect	text20,global,reloc=2,class=CODE,delta=1,group=1
    35                           	psect	text21,global,reloc=2,class=CODE,delta=1,group=1
    36                           	psect	text22,global,reloc=2,class=CODE,delta=1,group=3
    37                           	psect	text23,global,reloc=2,class=CODE,delta=1,group=1
    38                           	psect	text24,global,reloc=2,class=CODE,delta=1,group=3
    39                           	psect	text25,global,reloc=2,class=CODE,delta=1,group=1
    40                           	psect	text26,global,reloc=2,class=CODE,delta=1,group=3
    41                           	psect	text27,global,reloc=2,class=CODE,delta=1,group=1
    42                           	psect	text28,global,reloc=2,class=CODE,delta=1,group=3
    43                           	psect	text29,global,reloc=2,class=CODE,delta=1,group=3
    44                           	psect	text30,global,reloc=2,class=CODE,delta=1,group=3
    45                           	psect	text31,global,reloc=2,class=CODE,delta=1,group=3
    46                           	psect	text32,global,reloc=2,class=CODE,delta=1,group=3
    47                           	psect	text33,global,reloc=2,class=CODE,delta=1,group=3
    48                           	psect	text34,global,reloc=2,class=CODE,delta=1,group=3
    49                           	psect	text35,global,reloc=2,class=CODE,delta=1,group=2
    50                           	psect	text36,global,reloc=2,class=CODE,delta=1,group=2
    51                           	psect	text37,global,reloc=2,class=CODE,delta=1,group=2
    52                           	psect	text38,global,reloc=2,class=CODE,delta=1,group=2
    53                           	psect	text39,global,reloc=2,class=CODE,delta=1,group=2
    54                           	psect	text40,global,reloc=2,class=CODE,delta=1,group=2
    55                           	psect	text41,global,reloc=2,class=CODE,delta=1,group=2
    56                           	psect	text42,global,reloc=2,class=CODE,delta=1
    57                           	psect	text43,global,reloc=2,class=CODE,delta=1
    58                           	psect	text44,global,reloc=2,class=CODE,delta=1
    59                           	psect	text45,global,reloc=2,class=CODE,delta=1,group=2
    60                           	psect	intsave_regs,global,class=BIGRAM,space=1,delta=1,noexec
    61                           	psect	param0,global,class=BANK0,space=1,delta=1,noexec
    62                           	psect	idloc,global,abs,ovrld,class=IDLOC,space=5,delta=1,noexec
    63                           	psect	config,global,abs,ovrld,class=CONFIG,space=4,delta=1,noexec
    64   000000                     
    65                           ; Generated 06/04/2022 GMT
    66                           ; 
    67                           ; Copyright © 2022, Microchip Technology Inc. and its subsidiaries ("Microchip")
    68                           ; All rights reserved.
    69                           ; 
    70                           ; This software is developed by Microchip Technology Inc. and its subsidiaries ("Microch
      +                          ip").
    71                           ; 
    72                           ; Redistribution and use in source and binary forms, with or without modification, are
    73                           ; permitted provided that the following conditions are met:
    74                           ; 
    75                           ;     1. Redistributions of source code must retain the above copyright notice, this lis
      +                          t of
    76                           ;        conditions and the following disclaimer.
    77                           ; 
    78                           ;     2. Redistributions in binary form must reproduce the above copyright notice, this 
      +                          list
    79                           ;        of conditions and the following disclaimer in the documentation and/or other
    80                           ;        materials provided with the distribution. Publication is not required when
    81                           ;        this file is used in an embedded application.
    82                           ; 
    83                           ;     3. Microchip's name may not be used to endorse or promote products derived from th
      +                          is
    84                           ;        software without specific prior written permission.
    85                           ; 
    86                           ; THIS SOFTWARE IS PROVIDED BY MICROCHIP "AS IS" AND ANY EXPRESS OR IMPLIED WARRANTIES,
    87                           ; INCLUDING, BUT NOT LIMITED TO, THE IMPLIED WARRANTIES OF MERCHANTABILITY AND FITNESS F
      +                          OR
    88                           ; PURPOSE ARE DISCLAIMED.  IN NO EVENT SHALL MICROCHIP BE LIABLE FOR ANY DIRECT, INDIREC
      +                          T,
    89                           ; INCIDENTAL, SPECIAL, EXEMPLARY, OR CONSEQUENTIAL DAMAGES (INCLUDING BUT NOT LIMITED TO
    90                           ; PROCUREMENT OF SUBSTITUTE GOODS OR SERVICES; LOSS OF USE, DATA OR PROFITS; OR BUSINESS
    91                           ; INTERRUPTION) HOWSOEVER CAUSED AND ON ANY THEORY OF LIABILITY, WHETHER IN CONTRACT, ST
      +                          RICT
    92                           ; LIABILITY, OR TORT (INCLUDING NEGLIGENCE OR OTHERWISE) ARISING IN ANY WAY OUT OF THE U
      +                          SE OF
    93                           ; THIS SOFTWARE, EVEN IF ADVISED OF THE POSSIBILITY OF SUCH DAMAGE.
    94                           ; 
    95                           ; 
    96                           ; Code-generator required, PIC18F67K40 Definitions
    97                           ; 
    98                           ; SFR Addresses
    99   000000                     
   100                           	psect	idataBANK1
   101   0045A6                     __pidataBANK1:
   102                           	callstack 0
   103                           
   104                           ;initializer for _Colourslist
   105   0045A6  72                 	db	low STR_1
   106   0045A7  0E                 	db	high STR_1
   107   0045A8  44                 	db	low STR_2
   108   0045A9  0E                 	db	high STR_2
   109   0045AA  61                 	db	low STR_3
   110   0045AB  0E                 	db	high STR_3
   111   0045AC  54                 	db	low STR_4
   112   0045AD  0E                 	db	high STR_4
   113   0045AE  4D                 	db	low STR_5
   114   0045AF  0E                 	db	high STR_5
   115   0045B0  2F                 	db	low STR_6
   116   0045B1  0E                 	db	high STR_6
   117   0045B2  3A                 	db	low STR_7
   118   0045B3  0E                 	db	high STR_7
   119   0045B4  5B                 	db	low STR_8
   120   0045B5  0E                 	db	high STR_8
   121                           
   122                           ;initializer for stoa@F1167
   123   0045B6  28                 	db	40
   124   0045B7  6E                 	db	110
   125   0045B8  75                 	db	117
   126   0045B9  6C                 	db	108
   127   0045BA  6C                 	db	108
   128   0045BB  29                 	db	41
   129   0045BC  00                 	db	0
   130   000000                     _TX4REG	set	3812
   131   000000                     _RC4STAbits	set	3815
   132   000000                     _SP4BRGH	set	3814
   133   000000                     _SSP2CON2bits	set	3802
   134   000000                     _RX4PPS	set	3605
   135   000000                     _SSP2CLKPPS	set	3612
   136   000000                     _SSP2DATPPS	set	3613
   137   000000                     _ANSELDbits	set	3751
   138   000000                     _SSP2ADD	set	3798
   139   000000                     _SSP2CON1bits	set	3801
   140   000000                     _RC4REG	set	3811
   141   000000                     _SP4BRGL	set	3813
   142   000000                     _TX4STAbits	set	3816
   143   000000                     _BAUD4CONbits	set	3817
   144   000000                     _LATAbits	set	3961
   145   000000                     _LATGbits	set	3967
   146   000000                     _SSP2CON2	set	3802
   147   000000                     _TRISDbits	set	3972
   148   000000                     _SSP2STAT	set	3800
   149   000000                     _TRISFbits	set	3974
   150   000000                     _TRISGbits	set	3975
   151   000000                     _SSP2BUF	set	3797
   152   000000                     _PIR4bits	set	3639
   153   000000                     _RC0PPS	set	3682
   154   000000                     _RD5PPS	set	3695
   155   000000                     _RD6PPS	set	3696
   156   000000                     _TRISAbits	set	3969
   157   000000                     _LATFbits	set	3966
   158   000000                     _TRISCbits	set	3971
   159                           
   160                           	psect	smallconst
   161   000E00                     __psmallconst:
   162                           	callstack 0
   163   000E00  00                 	db	0
   164   000E01                     STR_33:
   165                           
   166                           ; BSR set to: 0
   167   000E01  43                 	db	67	;'C'
   168   000E02  6F                 	db	111	;'o'
   169   000E03  6C                 	db	108	;'l'
   170   000E04  6F                 	db	111	;'o'
   171   000E05  75                 	db	117	;'u'
   172   000E06  72                 	db	114	;'r'
   173   000E07  20                 	db	32
   174   000E08  69                 	db	105	;'i'
   175   000E09  73                 	db	115	;'s'
   176   000E0A  20                 	db	32
   177   000E0B  25                 	db	37
   178   000E0C  73                 	db	115	;'s'
   179   000E0D  20                 	db	32
   180   000E0E  52                 	db	82	;'R'
   181   000E0F  65                 	db	101	;'e'
   182   000E10  64                 	db	100	;'d'
   183   000E11  20                 	db	32
   184   000E12  25                 	db	37
   185   000E13  66                 	db	102	;'f'
   186   000E14  20                 	db	32
   187   000E15  47                 	db	71	;'G'
   188   000E16  72                 	db	114	;'r'
   189   000E17  65                 	db	101	;'e'
   190   000E18  65                 	db	101	;'e'
   191   000E19  6E                 	db	110	;'n'
   192   000E1A  2C                 	db	44
   193   000E1B  25                 	db	37
   194   000E1C  66                 	db	102	;'f'
   195   000E1D  20                 	db	32
   196   000E1E  42                 	db	66	;'B'
   197   000E1F  6C                 	db	108	;'l'
   198   000E20  75                 	db	117	;'u'
   199   000E21  65                 	db	101	;'e'
   200   000E22  2C                 	db	44
   201   000E23  25                 	db	37
   202   000E24  66                 	db	102	;'f'
   203   000E25  20                 	db	32
   204   000E26  48                 	db	72	;'H'
   205   000E27  75                 	db	117	;'u'
   206   000E28  65                 	db	101	;'e'
   207   000E29  20                 	db	32
   208   000E2A  25                 	db	37
   209   000E2B  66                 	db	102	;'f'
   210   000E2C  20                 	db	32
   211   000E2D  0D                 	db	13
   212   000E2E  00                 	db	0
   213   000E2F                     STR_6:
   214                           
   215                           ; BSR set to: 0
   216   000E2F  4C                 	db	76	;'L'
   217   000E30  69                 	db	105	;'i'
   218   000E31  67                 	db	103	;'g'
   219   000E32  68                 	db	104	;'h'
   220   000E33  74                 	db	116	;'t'
   221   000E34  20                 	db	32
   222   000E35  42                 	db	66	;'B'
   223   000E36  6C                 	db	108	;'l'
   224   000E37  75                 	db	117	;'u'
   225   000E38  65                 	db	101	;'e'
   226   000E39  00                 	db	0
   227   000E3A                     STR_7:
   228                           
   229                           ; BSR set to: 0
   230   000E3A  44                 	db	68	;'D'
   231   000E3B  61                 	db	97	;'a'
   232   000E3C  72                 	db	114	;'r'
   233   000E3D  6B                 	db	107	;'k'
   234   000E3E  20                 	db	32
   235   000E3F  42                 	db	66	;'B'
   236   000E40  6C                 	db	108	;'l'
   237   000E41  75                 	db	117	;'u'
   238   000E42  65                 	db	101	;'e'
   239   000E43  00                 	db	0
   240   000E44                     STR_2:
   241                           
   242                           ; BSR set to: 0
   243   000E44  45                 	db	69	;'E'
   244   000E45  67                 	db	103	;'g'
   245   000E46  67                 	db	103	;'g'
   246   000E47  73                 	db	115	;'s'
   247   000E48  68                 	db	104	;'h'
   248   000E49  65                 	db	101	;'e'
   249   000E4A  6C                 	db	108	;'l'
   250   000E4B  6C                 	db	108	;'l'
   251   000E4C  00                 	db	0
   252   000E4D                     STR_5:
   253                           
   254                           ; BSR set to: 0
   255   000E4D  4F                 	db	79	;'O'
   256   000E4E  72                 	db	114	;'r'
   257   000E4F  61                 	db	97	;'a'
   258   000E50  6E                 	db	110	;'n'
   259   000E51  67                 	db	103	;'g'
   260   000E52  65                 	db	101	;'e'
   261   000E53  00                 	db	0
   262   000E54                     STR_4:
   263                           
   264                           ; BSR set to: 0
   265   000E54  59                 	db	89	;'Y'
   266   000E55  65                 	db	101	;'e'
   267   000E56  6C                 	db	108	;'l'
   268   000E57  6C                 	db	108	;'l'
   269   000E58  6F                 	db	111	;'o'
   270   000E59  77                 	db	119	;'w'
   271   000E5A  00                 	db	0
   272   000E5B                     STR_8:
   273                           
   274                           ; BSR set to: 0
   275   000E5B  47                 	db	71	;'G'
   276   000E5C  72                 	db	114	;'r'
   277   000E5D  65                 	db	101	;'e'
   278   000E5E  65                 	db	101	;'e'
   279   000E5F  6E                 	db	110	;'n'
   280   000E60  00                 	db	0
   281   000E61                     STR_3:
   282                           
   283                           ; BSR set to: 0
   284   000E61  50                 	db	80	;'P'
   285   000E62  69                 	db	105	;'i'
   286   000E63  6E                 	db	110	;'n'
   287   000E64  6B                 	db	107	;'k'
   288   000E65  00                 	db	0
   289   000E66                     STR_34:
   290                           
   291                           ; BSR set to: 0
   292   000E66  69                 	db	105	;'i'
   293   000E67  6E                 	db	110	;'n'
   294   000E68  66                 	db	102	;'f'
   295   000E69  00                 	db	0
   296   000E6A                     STR_37:
   297                           
   298                           ; BSR set to: 0
   299   000E6A  6E                 	db	110	;'n'
   300   000E6B  61                 	db	97	;'a'
   301   000E6C  6E                 	db	110	;'n'
   302   000E6D  00                 	db	0
   303   000E6E                     STR_40:
   304                           
   305                           ; BSR set to: 0
   306   000E6E  6C                 	db	108	;'l'
   307   000E6F  6C                 	db	108	;'l'
   308   000E70  73                 	db	115	;'s'
   309   000E71  00                 	db	0
   310   000E72                     STR_1:
   311                           
   312                           ; BSR set to: 0
   313   000E72  52                 	db	82	;'R'
   314   000E73  65                 	db	101	;'e'
   315   000E74  64                 	db	100	;'d'
   316   000E75  00                 	db	0
   317   000E76  00                 	db	0	; dummy byte at the end
   318   000000                     
   319                           ; #config settings
   320                           
   321                           	psect	cinit
   322   00440E                     __pcinit:
   323                           	callstack 0
   324   00440E                     start_initialization:
   325                           	callstack 0
   326   00440E                     __initialization:
   327                           	callstack 0
   328                           
   329                           ; Initialize objects allocated to BANK1 (23 bytes)
   330                           ; load TBLPTR registers with __pidataBANK1
   331   00440E  0EA6               	movlw	low __pidataBANK1
   332   004410  6EF6               	movwf	tblptrl,c
   333   004412  0E45               	movlw	high __pidataBANK1
   334   004414  6EF7               	movwf	tblptrh,c
   335   004416  0E00               	movlw	low (__pidataBANK1 shr (0+16))
   336   004418  6EF8               	movwf	tblptru,c
   337   00441A  EE01  F0B4         	lfsr	0,__pdataBANK1
   338   00441E  EE10 F017          	lfsr	1,23
   339   004422                     copy_data0:
   340   004422  0009               	tblrd		*+
   341   004424  CFF5 FFEE          	movff	tablat,postinc0
   342   004428  50E5               	movf	postdec1,w,c
   343   00442A  50E1               	movf	fsr1l,w,c
   344   00442C  E1FA               	bnz	copy_data0
   345                           
   346                           ; Clear objects allocated to BANK1 (100 bytes)
   347   00442E  EE01  F000         	lfsr	0,__pbssBANK1
   348   004432  0E64               	movlw	100
   349   004434                     clear_0:
   350   004434  6AEE               	clrf	postinc0,c
   351   004436  06E8               	decf	wreg,f,c
   352   004438  E1FD               	bnz	clear_0
   353                           
   354                           ; Clear objects allocated to BANK0 (13 bytes)
   355   00443A  EE00  F0EE         	lfsr	0,__pbssBANK0
   356   00443E  0E0D               	movlw	13
   357   004440                     clear_1:
   358   004440  6AEE               	clrf	postinc0,c
   359   004442  06E8               	decf	wreg,f,c
   360   004444  E1FD               	bnz	clear_1
   361   004446                     end_of_initialization:
   362                           	callstack 0
   363   004446                     __end_of__initialization:
   364                           	callstack 0
   365   004446  0100               	movlb	0
   366   004448  EFD3  F01F         	goto	_main	;jump to C main() function
   367                           
   368                           	psect	bssBANK0
   369   0000EE                     __pbssBANK0:
   370                           	callstack 0
   371   0000EE                     floorf@F526:
   372                           	callstack 0
   373   0000EE                     	ds	4
   374   0000F2                     ___fpclassifyf@F465:
   375                           	callstack 0
   376   0000F2                     	ds	4
   377   0000F6                     _width:
   378                           	callstack 0
   379   0000F6                     	ds	2
   380   0000F8                     _prec:
   381                           	callstack 0
   382   0000F8                     	ds	2
   383   0000FA                     _flags:
   384                           	callstack 0
   385   0000FA                     	ds	1
   386                           
   387                           	psect	bssBANK1
   388   000100                     __pbssBANK1:
   389                           	callstack 0
   390   000100                     _dbuf:
   391                           	callstack 0
   392   000100                     	ds	80
   393   000150                     _colorf:
   394                           	callstack 0
   395   000150                     	ds	20
   396                           
   397                           	psect	dataBANK1
   398   0001B4                     __pdataBANK1:
   399                           	callstack 0
   400   0001B4                     _Colourslist:
   401                           	callstack 0
   402   0001B4                     	ds	16
   403   0001C4                     stoa@F1167:
   404                           	callstack 0
   405   0001C4                     	ds	7
   406                           
   407                           	psect	cstackBANK1
   408   000164                     __pcstackBANK1:
   409                           	callstack 0
   410   000164                     main@data:
   411                           	callstack 0
   412                           
   413                           ; 80 bytes @ 0x0
   414   000164                     	ds	80
   415                           
   416                           	psect	cstackBANK0
   417   000060                     __pcstackBANK0:
   418                           	callstack 0
   419   000060                     ___flmul@sign:
   420                           	callstack 0
   421                           
   422                           ; 1 bytes @ 0x0
   423   000060                     	ds	1
   424   000061                     ___flmul@grs:
   425                           	callstack 0
   426                           
   427                           ; 4 bytes @ 0x1
   428   000061                     	ds	4
   429   000065                     ___flmul@aexp:
   430                           	callstack 0
   431                           
   432                           ; 1 bytes @ 0x5
   433   000065                     	ds	1
   434   000066                     ___flmul@bexp:
   435                           	callstack 0
   436                           
   437                           ; 1 bytes @ 0x6
   438   000066                     	ds	1
   439   000067                     ___flmul@prod:
   440                           	callstack 0
   441                           
   442                           ; 4 bytes @ 0x7
   443   000067                     	ds	4
   444   00006B                     ___flmul@temp:
   445                           	callstack 0
   446                           
   447                           ; 2 bytes @ 0xB
   448   00006B                     	ds	2
   449   00006D                     ??___flge:
   450                           
   451                           ; 1 bytes @ 0xD
   452   00006D                     	ds	4
   453   000071                     ?_Hue2Colour:
   454                           	callstack 0
   455   000071                     RGB2Hue@cf:
   456                           	callstack 0
   457   000071                     Hue2Colour@cf:
   458                           	callstack 0
   459   000071                     efgtoa@fp:
   460                           	callstack 0
   461                           
   462                           ; 2 bytes @ 0x11
   463   000071                     	ds	2
   464   000073                     ??_RGB2Hue:
   465   000073                     Hue2Colour@colourname:
   466                           	callstack 0
   467   000073                     efgtoa@f:
   468                           	callstack 0
   469                           
   470                           ; 4 bytes @ 0x13
   471   000073                     	ds	4
   472   000077                     efgtoa@c:
   473                           	callstack 0
   474   000077                     _RGB2Hue$1724:
   475                           	callstack 0
   476                           
   477                           ; 4 bytes @ 0x17
   478   000077                     	ds	1
   479   000078                     ??_efgtoa:
   480                           
   481                           ; 1 bytes @ 0x18
   482   000078                     	ds	2
   483   00007A                     efgtoa@ne:
   484                           	callstack 0
   485                           
   486                           ; 2 bytes @ 0x1A
   487   00007A                     	ds	1
   488   00007B                     RGB2Hue@max:
   489                           	callstack 0
   490                           
   491                           ; 2 bytes @ 0x1B
   492   00007B                     	ds	1
   493   00007C                     efgtoa@p:
   494                           	callstack 0
   495                           
   496                           ; 2 bytes @ 0x1C
   497   00007C                     	ds	1
   498   00007D                     RGB2Hue@min:
   499                           	callstack 0
   500                           
   501                           ; 2 bytes @ 0x1D
   502   00007D                     	ds	1
   503   00007E                     efgtoa@t:
   504                           	callstack 0
   505                           
   506                           ; 2 bytes @ 0x1E
   507   00007E                     	ds	2
   508   000080                     _efgtoa$1389:
   509                           	callstack 0
   510                           
   511                           ; 2 bytes @ 0x20
   512   000080                     	ds	2
   513   000082                     efgtoa@pp:
   514                           	callstack 0
   515                           
   516                           ; 1 bytes @ 0x22
   517   000082                     	ds	1
   518   000083                     efgtoa@mode:
   519                           	callstack 0
   520                           
   521                           ; 1 bytes @ 0x23
   522   000083                     	ds	1
   523   000084                     efgtoa@nmode:
   524                           	callstack 0
   525                           
   526                           ; 1 bytes @ 0x24
   527   000084                     	ds	1
   528   000085                     efgtoa@d:
   529                           	callstack 0
   530                           
   531                           ; 2 bytes @ 0x25
   532   000085                     	ds	2
   533   000087                     efgtoa@m:
   534                           	callstack 0
   535                           
   536                           ; 2 bytes @ 0x27
   537   000087                     	ds	2
   538   000089                     efgtoa@e:
   539                           	callstack 0
   540                           
   541                           ; 2 bytes @ 0x29
   542   000089                     	ds	2
   543   00008B                     efgtoa@w:
   544                           	callstack 0
   545                           
   546                           ; 2 bytes @ 0x2B
   547   00008B                     	ds	2
   548   00008D                     efgtoa@ou:
   549                           	callstack 0
   550                           
   551                           ; 4 bytes @ 0x2D
   552   00008D                     	ds	4
   553   000091                     efgtoa@i:
   554                           	callstack 0
   555                           
   556                           ; 2 bytes @ 0x31
   557   000091                     	ds	2
   558   000093                     efgtoa@h:
   559                           	callstack 0
   560                           
   561                           ; 4 bytes @ 0x33
   562   000093                     	ds	4
   563   000097                     efgtoa@l:
   564                           	callstack 0
   565                           
   566                           ; 4 bytes @ 0x37
   567   000097                     	ds	4
   568   00009B                     efgtoa@sign:
   569                           	callstack 0
   570                           
   571                           ; 1 bytes @ 0x3B
   572   00009B                     	ds	1
   573   00009C                     efgtoa@n:
   574                           	callstack 0
   575                           
   576                           ; 2 bytes @ 0x3C
   577   00009C                     	ds	2
   578   00009E                     efgtoa@g:
   579                           	callstack 0
   580                           
   581                           ; 4 bytes @ 0x3E
   582   00009E                     	ds	4
   583   0000A2                     efgtoa@u:
   584                           	callstack 0
   585                           
   586                           ; 4 bytes @ 0x42
   587   0000A2                     	ds	4
   588   0000A6                     vfpfcnvrt@fp:
   589                           	callstack 0
   590                           
   591                           ; 2 bytes @ 0x46
   592   0000A6                     	ds	2
   593   0000A8                     vfpfcnvrt@fmt:
   594                           	callstack 0
   595                           
   596                           ; 2 bytes @ 0x48
   597   0000A8                     	ds	2
   598   0000AA                     vfpfcnvrt@ap:
   599                           	callstack 0
   600                           
   601                           ; 2 bytes @ 0x4A
   602   0000AA                     	ds	2
   603   0000AC                     ??_vfpfcnvrt:
   604                           
   605                           ; 1 bytes @ 0x4C
   606   0000AC                     	ds	2
   607   0000AE                     vfpfcnvrt@convarg:
   608                           	callstack 0
   609                           
   610                           ; 8 bytes @ 0x4E
   611   0000AE                     	ds	8
   612   0000B6                     _vfpfcnvrt$1422:
   613                           	callstack 0
   614                           
   615                           ; 2 bytes @ 0x56
   616   0000B6                     	ds	2
   617   0000B8                     vfpfcnvrt@c:
   618                           	callstack 0
   619                           
   620                           ; 1 bytes @ 0x58
   621   0000B8                     	ds	1
   622   0000B9                     vfpfcnvrt@cp:
   623                           	callstack 0
   624                           
   625                           ; 2 bytes @ 0x59
   626   0000B9                     	ds	2
   627   0000BB                     ?_vfprintf:
   628                           	callstack 0
   629   0000BB                     vfprintf@fp:
   630                           	callstack 0
   631                           
   632                           ; 2 bytes @ 0x5B
   633   0000BB                     	ds	2
   634   0000BD                     vfprintf@fmt:
   635                           	callstack 0
   636                           
   637                           ; 2 bytes @ 0x5D
   638   0000BD                     	ds	2
   639   0000BF                     vfprintf@ap:
   640                           	callstack 0
   641                           
   642                           ; 2 bytes @ 0x5F
   643   0000BF                     	ds	2
   644   0000C1                     vfprintf@cfmt:
   645                           	callstack 0
   646                           
   647                           ; 2 bytes @ 0x61
   648   0000C1                     	ds	2
   649   0000C3                     ?_sprintf:
   650                           	callstack 0
   651   0000C3                     sprintf@s:
   652                           	callstack 0
   653                           
   654                           ; 2 bytes @ 0x63
   655   0000C3                     	ds	2
   656   0000C5                     sprintf@fmt:
   657                           	callstack 0
   658                           
   659                           ; 2 bytes @ 0x65
   660   0000C5                     	ds	20
   661   0000D9                     sprintf@ap:
   662                           	callstack 0
   663                           
   664                           ; 2 bytes @ 0x79
   665   0000D9                     	ds	2
   666   0000DB                     sprintf@f:
   667                           	callstack 0
   668                           
   669                           ; 11 bytes @ 0x7B
   670   0000DB                     	ds	11
   671   0000E6                     Color2String@buf:
   672                           	callstack 0
   673                           
   674                           ; 2 bytes @ 0x86
   675   0000E6                     	ds	2
   676   0000E8                     Color2String@cf:
   677                           	callstack 0
   678                           
   679                           ; 2 bytes @ 0x88
   680   0000E8                     	ds	2
   681   0000EA                     Color2String@colourname:
   682                           	callstack 0
   683                           
   684                           ; 2 bytes @ 0x8A
   685   0000EA                     	ds	2
   686   0000EC                     ??_main:
   687                           
   688                           ; 1 bytes @ 0x8C
   689   0000EC                     	ds	2
   690                           
   691                           	psect	cstackCOMRAM
   692   000001                     __pcstackCOMRAM:
   693                           	callstack 0
   694   000001                     ??_I2C_2_Master_Idle:
   695   000001                     ?___fpclassifyf:
   696                           	callstack 0
   697   000001                     ?_strlen:
   698                           	callstack 0
   699   000001                     ?_strncmp:
   700                           	callstack 0
   701   000001                     ?_labs:
   702                           	callstack 0
   703   000001                     ?___flneg:
   704                           	callstack 0
   705   000001                     ?___fltol:
   706                           	callstack 0
   707   000001                     sendCharSerial4@charToSend:
   708                           	callstack 0
   709   000001                     memcpy@d1:
   710                           	callstack 0
   711   000001                     fputc@c:
   712                           	callstack 0
   713   000001                     strcpy@dest:
   714                           	callstack 0
   715   000001                     strlen@s:
   716                           	callstack 0
   717   000001                     strncmp@_l:
   718                           	callstack 0
   719   000001                     ___fleq@ff1:
   720                           	callstack 0
   721   000001                     ___flneg@f1:
   722                           	callstack 0
   723   000001                     ___fltol@f1:
   724                           	callstack 0
   725   000001                     ___fpclassifyf@x:
   726                           	callstack 0
   727   000001                     labs@a:
   728                           	callstack 0
   729                           
   730                           ; 4 bytes @ 0x0
   731   000001                     	ds	1
   732   000002                     ??_I2C_2_Master_Read:
   733   000002                     I2C_2_Master_Write@data_byte:
   734                           	callstack 0
   735   000002                     sendStringSerial4@string:
   736                           	callstack 0
   737                           
   738                           ; 2 bytes @ 0x1
   739   000002                     	ds	1
   740   000003                     color_writetoaddr@value:
   741                           	callstack 0
   742   000003                     I2C_2_Master_Read@ack:
   743                           	callstack 0
   744   000003                     memcpy@s1:
   745                           	callstack 0
   746   000003                     fputc@fp:
   747                           	callstack 0
   748   000003                     strcpy@src:
   749                           	callstack 0
   750   000003                     strlen@a:
   751                           	callstack 0
   752   000003                     strncmp@_r:
   753                           	callstack 0
   754                           
   755                           ; 2 bytes @ 0x2
   756   000003                     	ds	1
   757   000004                     color_writetoaddr@address:
   758                           	callstack 0
   759   000004                     I2C_2_Master_Read@tmp:
   760                           	callstack 0
   761                           
   762                           ; 1 bytes @ 0x3
   763   000004                     	ds	1
   764   000005                     ??_fputc:
   765   000005                     ??___fpclassifyf:
   766   000005                     ??_labs:
   767   000005                     ??_color_click_init:
   768   000005                     ??___fltol:
   769   000005                     ?_color_read_Red:
   770                           	callstack 0
   771   000005                     ?_color_read_Green:
   772                           	callstack 0
   773   000005                     ?_color_read_Blue:
   774                           	callstack 0
   775   000005                     ?_color_read_Clear:
   776                           	callstack 0
   777   000005                     memcpy@n:
   778                           	callstack 0
   779   000005                     strcpy@s:
   780                           	callstack 0
   781   000005                     strncmp@n:
   782                           	callstack 0
   783   000005                     ___fleq@ff2:
   784                           	callstack 0
   785                           
   786                           ; 4 bytes @ 0x4
   787   000005                     	ds	2
   788   000007                     ??_strncmp:
   789   000007                     ??_color_read_Red:
   790   000007                     ??_color_read_Green:
   791   000007                     ??_color_read_Blue:
   792   000007                     ??_color_read_Clear:
   793   000007                     memcpy@d:
   794                           	callstack 0
   795   000007                     strcpy@d:
   796                           	callstack 0
   797                           
   798                           ; 2 bytes @ 0x6
   799   000007                     	ds	1
   800   000008                     strncmp@l:
   801                           	callstack 0
   802                           
   803                           ; 2 bytes @ 0x7
   804   000008                     	ds	1
   805   000009                     ??___fleq:
   806   000009                     ___fltol@sign1:
   807                           	callstack 0
   808   000009                     ___fpclassifyf@e:
   809                           	callstack 0
   810   000009                     memcpy@s:
   811                           	callstack 0
   812                           
   813                           ; 2 bytes @ 0x8
   814   000009                     	ds	1
   815   00000A                     ___fltol@exp1:
   816                           	callstack 0
   817   00000A                     color_read_Red@tmp:
   818                           	callstack 0
   819   00000A                     color_read_Green@tmp:
   820                           	callstack 0
   821   00000A                     color_read_Blue@tmp:
   822                           	callstack 0
   823   00000A                     color_read_Clear@tmp:
   824                           	callstack 0
   825   00000A                     stoa@fp:
   826                           	callstack 0
   827   00000A                     fputs@s:
   828                           	callstack 0
   829   00000A                     strncmp@r:
   830                           	callstack 0
   831                           
   832                           ; 2 bytes @ 0x9
   833   00000A                     	ds	1
   834   00000B                     memcpy@tmp:
   835                           	callstack 0
   836   00000B                     ___fpclassifyf@u:
   837                           	callstack 0
   838                           
   839                           ; 4 bytes @ 0xA
   840   00000B                     	ds	1
   841   00000C                     ?___xxtofl:
   842                           	callstack 0
   843   00000C                     stoa@s:
   844                           	callstack 0
   845   00000C                     fputs@fp:
   846                           	callstack 0
   847   00000C                     ___xxtofl@val:
   848                           	callstack 0
   849                           
   850                           ; 4 bytes @ 0xB
   851   00000C                     	ds	2
   852   00000E                     ??_stoa:
   853   00000E                     fputs@c:
   854                           	callstack 0
   855                           
   856                           ; 1 bytes @ 0xD
   857   00000E                     	ds	1
   858   00000F                     fputs@i:
   859                           	callstack 0
   860   00000F                     stoa@nuls:
   861                           	callstack 0
   862                           
   863                           ; 7 bytes @ 0xE
   864   00000F                     	ds	1
   865   000010                     ??___xxtofl:
   866                           
   867                           ; 1 bytes @ 0xF
   868   000010                     	ds	1
   869   000011                     pad@fp:
   870                           	callstack 0
   871                           
   872                           ; 2 bytes @ 0x10
   873   000011                     	ds	2
   874   000013                     pad@buf:
   875                           	callstack 0
   876                           
   877                           ; 2 bytes @ 0x12
   878   000013                     	ds	1
   879   000014                     ___xxtofl@sign:
   880                           	callstack 0
   881                           
   882                           ; 1 bytes @ 0x13
   883   000014                     	ds	1
   884   000015                     ___xxtofl@exp:
   885                           	callstack 0
   886   000015                     pad@p:
   887                           	callstack 0
   888                           
   889                           ; 2 bytes @ 0x14
   890   000015                     	ds	1
   891   000016                     stoa@w:
   892                           	callstack 0
   893   000016                     ___xxtofl@arg:
   894                           	callstack 0
   895                           
   896                           ; 4 bytes @ 0x15
   897   000016                     	ds	1
   898   000017                     ??_pad:
   899                           
   900                           ; 1 bytes @ 0x16
   901   000017                     	ds	1
   902   000018                     pad@i:
   903                           	callstack 0
   904   000018                     stoa@i:
   905                           	callstack 0
   906                           
   907                           ; 2 bytes @ 0x17
   908   000018                     	ds	2
   909   00001A                     ?___fladd:
   910                           	callstack 0
   911   00001A                     colour_read_all@cf:
   912                           	callstack 0
   913   00001A                     pad@w:
   914                           	callstack 0
   915   00001A                     stoa@cp:
   916                           	callstack 0
   917   00001A                     ___fladd@b:
   918                           	callstack 0
   919                           
   920                           ; 4 bytes @ 0x19
   921   00001A                     	ds	2
   922   00001C                     stoa@l:
   923                           	callstack 0
   924   00001C                     colour_read_all@R:
   925                           	callstack 0
   926                           
   927                           ; 4 bytes @ 0x1B
   928   00001C                     	ds	2
   929   00001E                     stoa@p:
   930                           	callstack 0
   931   00001E                     ___fladd@a:
   932                           	callstack 0
   933                           
   934                           ; 4 bytes @ 0x1D
   935   00001E                     	ds	2
   936   000020                     colour_read_all@G:
   937                           	callstack 0
   938                           
   939                           ; 4 bytes @ 0x1F
   940   000020                     	ds	2
   941   000022                     ??___fladd:
   942                           
   943                           ; 1 bytes @ 0x21
   944   000022                     	ds	2
   945   000024                     colour_read_all@B:
   946                           	callstack 0
   947                           
   948                           ; 4 bytes @ 0x23
   949   000024                     	ds	2
   950   000026                     ___fladd@signs:
   951                           	callstack 0
   952                           
   953                           ; 1 bytes @ 0x25
   954   000026                     	ds	1
   955   000027                     ___fladd@aexp:
   956                           	callstack 0
   957                           
   958                           ; 1 bytes @ 0x26
   959   000027                     	ds	1
   960   000028                     ___fladd@bexp:
   961                           	callstack 0
   962                           
   963                           ; 1 bytes @ 0x27
   964   000028                     	ds	1
   965   000029                     ___fladd@grs:
   966                           	callstack 0
   967                           
   968                           ; 1 bytes @ 0x28
   969   000029                     	ds	1
   970   00002A                     ?___flsub:
   971                           	callstack 0
   972   00002A                     ___flsub@b:
   973                           	callstack 0
   974                           
   975                           ; 4 bytes @ 0x29
   976   00002A                     	ds	4
   977   00002E                     ___flsub@a:
   978                           	callstack 0
   979                           
   980                           ; 4 bytes @ 0x2D
   981   00002E                     	ds	4
   982   000032                     ?___fldiv:
   983                           	callstack 0
   984   000032                     ___fldiv@b:
   985                           	callstack 0
   986                           
   987                           ; 4 bytes @ 0x31
   988   000032                     	ds	4
   989   000036                     ___fldiv@a:
   990                           	callstack 0
   991                           
   992                           ; 4 bytes @ 0x35
   993   000036                     	ds	4
   994   00003A                     ??___fldiv:
   995                           
   996                           ; 1 bytes @ 0x39
   997   00003A                     	ds	4
   998   00003E                     ___fldiv@rem:
   999                           	callstack 0
  1000                           
  1001                           ; 4 bytes @ 0x3D
  1002   00003E                     	ds	4
  1003   000042                     ___fldiv@sign:
  1004                           	callstack 0
  1005                           
  1006                           ; 1 bytes @ 0x41
  1007   000042                     	ds	1
  1008   000043                     ___fldiv@new_exp:
  1009                           	callstack 0
  1010                           
  1011                           ; 2 bytes @ 0x42
  1012   000043                     	ds	2
  1013   000045                     ___fldiv@grs:
  1014                           	callstack 0
  1015                           
  1016                           ; 4 bytes @ 0x44
  1017   000045                     	ds	4
  1018   000049                     ___fldiv@bexp:
  1019                           	callstack 0
  1020                           
  1021                           ; 1 bytes @ 0x48
  1022   000049                     	ds	1
  1023   00004A                     ___fldiv@aexp:
  1024                           	callstack 0
  1025                           
  1026                           ; 1 bytes @ 0x49
  1027   00004A                     	ds	1
  1028   00004B                     ?___flmul:
  1029                           	callstack 0
  1030   00004B                     ?_floorf:
  1031                           	callstack 0
  1032   00004B                     ___flmul@b:
  1033                           	callstack 0
  1034   00004B                     floorf@x:
  1035                           	callstack 0
  1036                           
  1037                           ; 4 bytes @ 0x4A
  1038   00004B                     	ds	4
  1039   00004F                     ??_floorf:
  1040   00004F                     ___flmul@a:
  1041                           	callstack 0
  1042                           
  1043                           ; 4 bytes @ 0x4E
  1044   00004F                     	ds	4
  1045   000053                     ??___flmul:
  1046                           
  1047                           ; 1 bytes @ 0x52
  1048   000053                     	ds	2
  1049   000055                     floorf@m:
  1050                           	callstack 0
  1051                           
  1052                           ; 4 bytes @ 0x54
  1053   000055                     	ds	2
  1054   000057                     ___flge@ff1:
  1055                           	callstack 0
  1056                           
  1057                           ; 4 bytes @ 0x56
  1058   000057                     	ds	2
  1059   000059                     floorf@e:
  1060                           	callstack 0
  1061                           
  1062                           ; 2 bytes @ 0x58
  1063   000059                     	ds	2
  1064   00005B                     ___flge@ff2:
  1065                           	callstack 0
  1066   00005B                     floorf@u:
  1067                           	callstack 0
  1068                           
  1069                           ; 4 bytes @ 0x5A
  1070   00005B                     	ds	4
  1071   00005F                     
  1072                           ; 1 bytes @ 0x5E
  1073 ;;
  1074 ;;Main: autosize = 0, tempsize = 2, incstack = 0, save=0
  1075 ;;
  1076 ;; *************** function _main *****************
  1077 ;; Defined at:
  1078 ;;		line 15 in file "main.c"
  1079 ;; Parameters:    Size  Location     Type
  1080 ;;		None
  1081 ;; Auto vars:     Size  Location     Type
  1082 ;;  data           80    0[BANK1 ] unsigned char [80]
  1083 ;; Return value:  Size  Location     Type
  1084 ;;                  1    wreg      void 
  1085 ;; Registers used:
  1086 ;;		wreg, fsr1l, fsr1h, fsr2l, fsr2h, status,2, status,0, tblptrl, tblptrh, tblptru, prodl, prodh, cstack
  1087 ;; Tracked objects:
  1088 ;;		On entry : 0/0
  1089 ;;		On exit  : 0/0
  1090 ;;		Unchanged: 0/0
  1091 ;; Data sizes:     COMRAM   BANK0   BANK1   BANK2   BANK3   BANK4   BANK5   BANK6   BANK7   BANK8   BANK9  BANK10  BANK1
      +1  BANK12  BANK13
  1092 ;;      Params:         0       0       0       0       0       0       0       0       0       0       0       0       
      +0       0       0
  1093 ;;      Locals:         0       0      80       0       0       0       0       0       0       0       0       0       
      +0       0       0
  1094 ;;      Temps:          0       2       0       0       0       0       0       0       0       0       0       0       
      +0       0       0
  1095 ;;      Totals:         0       2      80       0       0       0       0       0       0       0       0       0       
      +0       0       0
  1096 ;;Total ram usage:       82 bytes
  1097 ;; Hardware stack levels required when called: 9
  1098 ;; This function calls:
  1099 ;;		_Color2String
  1100 ;;		_I2C_2_Master_Init
  1101 ;;		_RGB2Hue
  1102 ;;		_color_click_init
  1103 ;;		_colour_read_all
  1104 ;;		_initUSART4
  1105 ;; This function is called by:
  1106 ;;		Startup code after reset
  1107 ;; This function uses a non-reentrant model
  1108 ;;
  1109                           
  1110                           	psect	text0
  1111   003FA6                     __ptext0:
  1112                           	callstack 0
  1113   003FA6                     _main:
  1114                           	callstack 22
  1115   003FA6                     
  1116                           ;main.c: 16:     char data[80];;main.c: 17:     initUSART4();
  1117   003FA6  ECA6  F022         	call	_initUSART4	;wreg free
  1118   003FAA                     
  1119                           ;main.c: 18:     color_click_init();
  1120   003FAA  EC26  F022         	call	_color_click_init	;wreg free
  1121   003FAE                     
  1122                           ;main.c: 19:     I2C_2_Master_Init();
  1123   003FAE  EC7D  F022         	call	_I2C_2_Master_Init	;wreg free
  1124   003FB2                     
  1125                           ;main.c: 21:     LATGbits.LATG1=1;
  1126   003FB2  827F               	bsf	127,1,c	;volatile
  1127   003FB4                     
  1128                           ;main.c: 22:     TRISGbits.TRISG1=0;
  1129   003FB4  9287               	bcf	135,1,c	;volatile
  1130   003FB6                     
  1131                           ;main.c: 23:     LATAbits.LATA4=1;
  1132   003FB6  8879               	bsf	121,4,c	;volatile
  1133   003FB8                     
  1134                           ;main.c: 24:     TRISAbits.TRISA4=0;
  1135   003FB8  9881               	bcf	129,4,c	;volatile
  1136   003FBA                     
  1137                           ;main.c: 25:     LATFbits.LATF7=1;
  1138   003FBA  8E7E               	bsf	126,7,c	;volatile
  1139   003FBC                     
  1140                           ;main.c: 26:     TRISFbits.TRISF7=0;
  1141   003FBC  9E86               	bcf	134,7,c	;volatile
  1142   003FBE                     l3920:
  1143                           
  1144                           ;main.c: 29:         colour_read_all(&colorf);
  1145   003FBE  0E50               	movlw	low _colorf
  1146   003FC0  6E1A               	movwf	colour_read_all@cf^0,c
  1147   003FC2  0E01               	movlw	high _colorf
  1148   003FC4  6E1B               	movwf	(colour_read_all@cf+1)^0,c
  1149   003FC6  EC19  F01E         	call	_colour_read_all	;wreg free
  1150   003FCA                     
  1151                           ;main.c: 30:         RGB2Hue(&colorf);
  1152   003FCA  0E50               	movlw	low _colorf
  1153   003FCC  0100               	movlb	0	; () banked
  1154   003FCE  6F71               	movwf	RGB2Hue@cf& (0+255),b
  1155   003FD0  0E01               	movlw	high _colorf
  1156   003FD2  6F72               	movwf	(RGB2Hue@cf+1)& (0+255),b
  1157   003FD4  EC39  F00C         	call	_RGB2Hue	;wreg free
  1158   003FD8                     
  1159                           ;main.c: 32:         Color2String(data,&colorf);
  1160   003FD8  0E64               	movlw	low main@data
  1161   003FDA  0100               	movlb	0	; () banked
  1162   003FDC  6FE6               	movwf	Color2String@buf& (0+255),b
  1163   003FDE  0E01               	movlw	high main@data
  1164   003FE0  6FE7               	movwf	(Color2String@buf+1)& (0+255),b
  1165   003FE2  0E50               	movlw	low _colorf
  1166   003FE4  6FE8               	movwf	Color2String@cf& (0+255),b
  1167   003FE6  0E01               	movlw	high _colorf
  1168   003FE8  6FE9               	movwf	(Color2String@cf+1)& (0+255),b
  1169   003FEA  ECEB  F01E         	call	_Color2String	;wreg free
  1170   003FEE                     
  1171                           ;main.c: 33:         _delay((unsigned long)((1000)*(64000000/4000.0)));
  1172   003FEE  0E52               	movlw	82
  1173   003FF0  0100               	movlb	0	; () banked
  1174   003FF2  6FED               	movwf	(??_main+1)& (0+255),b
  1175   003FF4  0E2B               	movlw	43
  1176   003FF6  6FEC               	movwf	??_main& (0+255),b
  1177   003FF8  0E00               	movlw	0
  1178   003FFA                     u4367:
  1179   003FFA  2EE8               	decfsz	wreg,f,c
  1180   003FFC  D7FE               	bra	u4367
  1181   003FFE  2FEC               	decfsz	??_main& (0+255),f,b
  1182   004000  D7FC               	bra	u4367
  1183   004002  2FED               	decfsz	(??_main+1)& (0+255),f,b
  1184   004004  D7FA               	bra	u4367
  1185   004006  F000               	nop	
  1186   004008  EFDF  F01F         	goto	l3920
  1187   00400C  EF00  F000         	goto	start
  1188   004010                     __end_of_main:
  1189                           	callstack 0
  1190                           
  1191 ;; *************** function _initUSART4 *****************
  1192 ;; Defined at:
  1193 ;;		line 7 in file "serial.c"
  1194 ;; Parameters:    Size  Location     Type
  1195 ;;		None
  1196 ;; Auto vars:     Size  Location     Type
  1197 ;;		None
  1198 ;; Return value:  Size  Location     Type
  1199 ;;                  1    wreg      void 
  1200 ;; Registers used:
  1201 ;;		wreg, status,2
  1202 ;; Tracked objects:
  1203 ;;		On entry : 0/0
  1204 ;;		On exit  : 0/0
  1205 ;;		Unchanged: 0/0
  1206 ;; Data sizes:     COMRAM   BANK0   BANK1   BANK2   BANK3   BANK4   BANK5   BANK6   BANK7   BANK8   BANK9  BANK10  BANK1
      +1  BANK12  BANK13
  1207 ;;      Params:         0       0       0       0       0       0       0       0       0       0       0       0       
      +0       0       0
  1208 ;;      Locals:         0       0       0       0       0       0       0       0       0       0       0       0       
      +0       0       0
  1209 ;;      Temps:          0       0       0       0       0       0       0       0       0       0       0       0       
      +0       0       0
  1210 ;;      Totals:         0       0       0       0       0       0       0       0       0       0       0       0       
      +0       0       0
  1211 ;;Total ram usage:        0 bytes
  1212 ;; Hardware stack levels used: 1
  1213 ;; This function calls:
  1214 ;;		Nothing
  1215 ;; This function is called by:
  1216 ;;		_main
  1217 ;; This function uses a non-reentrant model
  1218 ;;
  1219                           
  1220                           	psect	text1
  1221   00454C                     __ptext1:
  1222                           	callstack 0
  1223   00454C                     _initUSART4:
  1224                           	callstack 30
  1225   00454C                     
  1226                           ;serial.c: 8:     TRISCbits.TRISC4=1;
  1227   00454C  8883               	bsf	131,4,c	;volatile
  1228                           
  1229                           ;serial.c: 9:     TRISCbits.TRISC1=1;
  1230   00454E  8283               	bsf	131,1,c	;volatile
  1231   004550                     
  1232                           ;serial.c: 10:     RC0PPS = 0x12;
  1233   004550  0E12               	movlw	18
  1234   004552  010E               	movlb	14	; () banked
  1235   004554  6F62               	movwf	98,b	;volatile
  1236                           
  1237                           ;serial.c: 11:     RX4PPS = 0x11;
  1238   004556  0E11               	movlw	17
  1239   004558  6F15               	movwf	21,b	;volatile
  1240   00455A                     
  1241                           ; BSR set to: 14
  1242                           ;serial.c: 12:     BAUD4CONbits.BRG16 = 0;
  1243   00455A  97E9               	bcf	233,3,b	;volatile
  1244   00455C                     
  1245                           ; BSR set to: 14
  1246                           ;serial.c: 13:     TX4STAbits.BRGH = 0;
  1247   00455C  95E8               	bcf	232,2,b	;volatile
  1248                           
  1249                           ;serial.c: 15:     SP4BRGL = 51;
  1250   00455E  0E33               	movlw	51
  1251   004560  6FE5               	movwf	229,b	;volatile
  1252                           
  1253                           ;serial.c: 16:     SP4BRGH = 0;
  1254   004562  0E00               	movlw	0
  1255   004564  6FE6               	movwf	230,b	;volatile
  1256   004566                     
  1257                           ; BSR set to: 14
  1258                           ;serial.c: 18:     RC4STAbits.CREN = 1;
  1259   004566  89E7               	bsf	231,4,b	;volatile
  1260   004568                     
  1261                           ; BSR set to: 14
  1262                           ;serial.c: 19:     TX4STAbits.TXEN = 1;
  1263   004568  8BE8               	bsf	232,5,b	;volatile
  1264   00456A                     
  1265                           ; BSR set to: 14
  1266                           ;serial.c: 20:     RC4STAbits.SPEN = 1;
  1267   00456A  8FE7               	bsf	231,7,b	;volatile
  1268   00456C                     
  1269                           ; BSR set to: 14
  1270   00456C  0012               	return		;funcret
  1271   00456E                     __end_of_initUSART4:
  1272                           	callstack 0
  1273                           
  1274 ;; *************** function _colour_read_all *****************
  1275 ;; Defined at:
  1276 ;;		line 6 in file "colorfunctions.c"
  1277 ;; Parameters:    Size  Location     Type
  1278 ;;  cf              2   25[COMRAM] PTR struct RGBC_rel
  1279 ;;		 -> colorf(20), 
  1280 ;; Auto vars:     Size  Location     Type
  1281 ;;  B               4   35[COMRAM] float 
  1282 ;;  G               4   31[COMRAM] float 
  1283 ;;  R               4   27[COMRAM] float 
  1284 ;;  C               4    0        float 
  1285 ;; Return value:  Size  Location     Type
  1286 ;;                  1    wreg      void 
  1287 ;; Registers used:
  1288 ;;		wreg, fsr2l, fsr2h, status,2, status,0, cstack
  1289 ;; Tracked objects:
  1290 ;;		On entry : 0/0
  1291 ;;		On exit  : 0/0
  1292 ;;		Unchanged: 0/0
  1293 ;; Data sizes:     COMRAM   BANK0   BANK1   BANK2   BANK3   BANK4   BANK5   BANK6   BANK7   BANK8   BANK9  BANK10  BANK1
      +1  BANK12  BANK13
  1294 ;;      Params:         2       0       0       0       0       0       0       0       0       0       0       0       
      +0       0       0
  1295 ;;      Locals:        12       0       0       0       0       0       0       0       0       0       0       0       
      +0       0       0
  1296 ;;      Temps:          0       0       0       0       0       0       0       0       0       0       0       0       
      +0       0       0
  1297 ;;      Totals:        14       0       0       0       0       0       0       0       0       0       0       0       
      +0       0       0
  1298 ;;Total ram usage:       14 bytes
  1299 ;; Hardware stack levels used: 1
  1300 ;; Hardware stack levels required when called: 3
  1301 ;; This function calls:
  1302 ;;		___xxtofl
  1303 ;;		_color_read_Blue
  1304 ;;		_color_read_Clear
  1305 ;;		_color_read_Green
  1306 ;;		_color_read_Red
  1307 ;; This function is called by:
  1308 ;;		_main
  1309 ;; This function uses a non-reentrant model
  1310 ;;
  1311                           
  1312                           	psect	text2
  1313   003C32                     __ptext2:
  1314                           	callstack 0
  1315   003C32                     _colour_read_all:
  1316                           	callstack 27
  1317   003C32                     
  1318                           ;colorfunctions.c: 8:     float R = color_read_Red();
  1319   003C32  EC8F  F020         	call	_color_read_Red	;wreg free
  1320   003C36  C005  F00C         	movff	?_color_read_Red,___xxtofl@val
  1321   003C3A  C006  F00D         	movff	?_color_read_Red+1,___xxtofl@val+1
  1322   003C3E  6A0E               	clrf	(___xxtofl@val+2)^0,c
  1323   003C40  6A0F               	clrf	(___xxtofl@val+3)^0,c
  1324   003C42  0E00               	movlw	0
  1325   003C44  ECA1  F01A         	call	___xxtofl
  1326   003C48  C00C  F01C         	movff	?___xxtofl,colour_read_all@R
  1327   003C4C  C00D  F01D         	movff	?___xxtofl+1,colour_read_all@R+1
  1328   003C50  C00E  F01E         	movff	?___xxtofl+2,colour_read_all@R+2
  1329   003C54  C00F  F01F         	movff	?___xxtofl+3,colour_read_all@R+3
  1330                           
  1331                           ;colorfunctions.c: 9:     float G= color_read_Green();
  1332   003C58  ECB7  F020         	call	_color_read_Green	;wreg free
  1333   003C5C  C005  F00C         	movff	?_color_read_Green,___xxtofl@val
  1334   003C60  C006  F00D         	movff	?_color_read_Green+1,___xxtofl@val+1
  1335   003C64  6A0E               	clrf	(___xxtofl@val+2)^0,c
  1336   003C66  6A0F               	clrf	(___xxtofl@val+3)^0,c
  1337   003C68  0E00               	movlw	0
  1338   003C6A  ECA1  F01A         	call	___xxtofl
  1339   003C6E  C00C  F020         	movff	?___xxtofl,colour_read_all@G
  1340   003C72  C00D  F021         	movff	?___xxtofl+1,colour_read_all@G+1
  1341   003C76  C00E  F022         	movff	?___xxtofl+2,colour_read_all@G+2
  1342   003C7A  C00F  F023         	movff	?___xxtofl+3,colour_read_all@G+3
  1343                           
  1344                           ;colorfunctions.c: 10:     float B= color_read_Blue();
  1345   003C7E  EC07  F021         	call	_color_read_Blue	;wreg free
  1346   003C82  C005  F00C         	movff	?_color_read_Blue,___xxtofl@val
  1347   003C86  C006  F00D         	movff	?_color_read_Blue+1,___xxtofl@val+1
  1348   003C8A  6A0E               	clrf	(___xxtofl@val+2)^0,c
  1349   003C8C  6A0F               	clrf	(___xxtofl@val+3)^0,c
  1350   003C8E  0E00               	movlw	0
  1351   003C90  ECA1  F01A         	call	___xxtofl
  1352   003C94  C00C  F024         	movff	?___xxtofl,colour_read_all@B
  1353   003C98  C00D  F025         	movff	?___xxtofl+1,colour_read_all@B+1
  1354   003C9C  C00E  F026         	movff	?___xxtofl+2,colour_read_all@B+2
  1355   003CA0  C00F  F027         	movff	?___xxtofl+3,colour_read_all@B+3
  1356   003CA4  ECDF  F020         	call	_color_read_Clear	;wreg free
  1357   003CA8  C005  F00C         	movff	?_color_read_Clear,___xxtofl@val
  1358   003CAC  C006  F00D         	movff	?_color_read_Clear+1,___xxtofl@val+1
  1359   003CB0  6A0E               	clrf	(___xxtofl@val+2)^0,c
  1360   003CB2  6A0F               	clrf	(___xxtofl@val+3)^0,c
  1361   003CB4  0E00               	movlw	0
  1362   003CB6  ECA1  F01A         	call	___xxtofl
  1363   003CBA                     
  1364                           ;colorfunctions.c: 15:     (cf->Rf)=R;
  1365   003CBA  C01A  FFD9         	movff	colour_read_all@cf,fsr2l
  1366   003CBE  C01B  FFDA         	movff	colour_read_all@cf+1,fsr2h
  1367   003CC2  C01C  FFDE         	movff	colour_read_all@R,postinc2
  1368   003CC6  C01D  FFDE         	movff	colour_read_all@R+1,postinc2
  1369   003CCA  C01E  FFDE         	movff	colour_read_all@R+2,postinc2
  1370   003CCE  C01F  FFDE         	movff	colour_read_all@R+3,postinc2
  1371   003CD2                     
  1372                           ;colorfunctions.c: 16:     (cf->Bf)=B;
  1373   003CD2  EE20 F008          	lfsr	2,8
  1374   003CD6  501A               	movf	colour_read_all@cf^0,w,c
  1375   003CD8  26D9               	addwf	fsr2l,f,c
  1376   003CDA  501B               	movf	(colour_read_all@cf+1)^0,w,c
  1377   003CDC  22DA               	addwfc	fsr2h,f,c
  1378   003CDE  C024  FFDE         	movff	colour_read_all@B,postinc2
  1379   003CE2  C025  FFDE         	movff	colour_read_all@B+1,postinc2
  1380   003CE6  C026  FFDE         	movff	colour_read_all@B+2,postinc2
  1381   003CEA  C027  FFDE         	movff	colour_read_all@B+3,postinc2
  1382   003CEE                     
  1383                           ;colorfunctions.c: 17:     (cf->Gf)=G;
  1384   003CEE  EE20 F004          	lfsr	2,4
  1385   003CF2  501A               	movf	colour_read_all@cf^0,w,c
  1386   003CF4  26D9               	addwf	fsr2l,f,c
  1387   003CF6  501B               	movf	(colour_read_all@cf+1)^0,w,c
  1388   003CF8  22DA               	addwfc	fsr2h,f,c
  1389   003CFA  C020  FFDE         	movff	colour_read_all@G,postinc2
  1390   003CFE  C021  FFDE         	movff	colour_read_all@G+1,postinc2
  1391   003D02  C022  FFDE         	movff	colour_read_all@G+2,postinc2
  1392   003D06  C023  FFDE         	movff	colour_read_all@G+3,postinc2
  1393   003D0A  0012               	return		;funcret
  1394   003D0C                     __end_of_colour_read_all:
  1395                           	callstack 0
  1396                           
  1397 ;; *************** function _color_read_Red *****************
  1398 ;; Defined at:
  1399 ;;		line 32 in file "colorclick.c"
  1400 ;; Parameters:    Size  Location     Type
  1401 ;;		None
  1402 ;; Auto vars:     Size  Location     Type
  1403 ;;  tmp             2    9[COMRAM] unsigned int 
  1404 ;; Return value:  Size  Location     Type
  1405 ;;                  2    4[COMRAM] unsigned int 
  1406 ;; Registers used:
  1407 ;;		wreg, status,2, status,0, cstack
  1408 ;; Tracked objects:
  1409 ;;		On entry : 0/0
  1410 ;;		On exit  : 0/0
  1411 ;;		Unchanged: 0/0
  1412 ;; Data sizes:     COMRAM   BANK0   BANK1   BANK2   BANK3   BANK4   BANK5   BANK6   BANK7   BANK8   BANK9  BANK10  BANK1
      +1  BANK12  BANK13
  1413 ;;      Params:         2       0       0       0       0       0       0       0       0       0       0       0       
      +0       0       0
  1414 ;;      Locals:         2       0       0       0       0       0       0       0       0       0       0       0       
      +0       0       0
  1415 ;;      Temps:          3       0       0       0       0       0       0       0       0       0       0       0       
      +0       0       0
  1416 ;;      Totals:         7       0       0       0       0       0       0       0       0       0       0       0       
      +0       0       0
  1417 ;;Total ram usage:        7 bytes
  1418 ;; Hardware stack levels used: 1
  1419 ;; Hardware stack levels required when called: 2
  1420 ;; This function calls:
  1421 ;;		_I2C_2_Master_Read
  1422 ;;		_I2C_2_Master_RepStart
  1423 ;;		_I2C_2_Master_Start
  1424 ;;		_I2C_2_Master_Stop
  1425 ;;		_I2C_2_Master_Write
  1426 ;; This function is called by:
  1427 ;;		_colour_read_all
  1428 ;; This function uses a non-reentrant model
  1429 ;;
  1430                           
  1431                           	psect	text3
  1432   00411E                     __ptext3:
  1433                           	callstack 0
  1434   00411E                     _color_read_Red:
  1435                           	callstack 27
  1436   00411E                     
  1437                           ;colorclick.c: 34:  unsigned int tmp;;colorclick.c: 35:  I2C_2_Master_Start();
  1438   00411E  ECEF  F022         	call	_I2C_2_Master_Start	;wreg free
  1439                           
  1440                           ;colorclick.c: 36:  I2C_2_Master_Write(0x52 | 0x00);
  1441   004122  0E52               	movlw	82
  1442   004124  ECDF  F022         	call	_I2C_2_Master_Write
  1443                           
  1444                           ;colorclick.c: 37:  I2C_2_Master_Write(0xA0 | 0x16);
  1445   004128  0EB6               	movlw	182
  1446   00412A  ECDF  F022         	call	_I2C_2_Master_Write
  1447                           
  1448                           ;colorclick.c: 38:  I2C_2_Master_RepStart();
  1449   00412E  ECE5  F022         	call	_I2C_2_Master_RepStart	;wreg free
  1450                           
  1451                           ;colorclick.c: 39:  I2C_2_Master_Write(0x52 | 0x01);
  1452   004132  0E53               	movlw	83
  1453   004134  ECDF  F022         	call	_I2C_2_Master_Write
  1454                           
  1455                           ;colorclick.c: 40:  tmp=I2C_2_Master_Read(1);
  1456   004138  0E01               	movlw	1
  1457   00413A  ECE6  F021         	call	_I2C_2_Master_Read
  1458   00413E  6E07               	movwf	??_color_read_Red^0,c
  1459   004140  5007               	movf	??_color_read_Red^0,w,c
  1460   004142  6E0A               	movwf	color_read_Red@tmp^0,c
  1461   004144  6A0B               	clrf	(color_read_Red@tmp+1)^0,c
  1462                           
  1463                           ;colorclick.c: 41:  tmp=tmp | (I2C_2_Master_Read(0)<<8);
  1464   004146  0E00               	movlw	0
  1465   004148  ECE6  F021         	call	_I2C_2_Master_Read
  1466   00414C  6E07               	movwf	??_color_read_Red^0,c
  1467   00414E  5007               	movf	??_color_read_Red^0,w,c
  1468   004150  6E09               	movwf	(??_color_read_Red+2)^0,c
  1469   004152  6A08               	clrf	(??_color_read_Red+1)^0,c
  1470   004154  500A               	movf	color_read_Red@tmp^0,w,c
  1471   004156  1008               	iorwf	(??_color_read_Red+1)^0,w,c
  1472   004158  6E0A               	movwf	color_read_Red@tmp^0,c
  1473   00415A  500B               	movf	(color_read_Red@tmp+1)^0,w,c
  1474   00415C  1009               	iorwf	(??_color_read_Red+2)^0,w,c
  1475   00415E  6E0B               	movwf	(color_read_Red@tmp+1)^0,c
  1476                           
  1477                           ;colorclick.c: 42:  I2C_2_Master_Stop();
  1478   004160  ECEA  F022         	call	_I2C_2_Master_Stop	;wreg free
  1479   004164                     
  1480                           ;colorclick.c: 43:  return tmp;
  1481   004164  C00A  F005         	movff	color_read_Red@tmp,?_color_read_Red
  1482   004168  C00B  F006         	movff	color_read_Red@tmp+1,?_color_read_Red+1
  1483   00416C  0012               	return		;funcret
  1484   00416E                     __end_of_color_read_Red:
  1485                           	callstack 0
  1486                           
  1487 ;; *************** function _color_read_Green *****************
  1488 ;; Defined at:
  1489 ;;		line 45 in file "colorclick.c"
  1490 ;; Parameters:    Size  Location     Type
  1491 ;;		None
  1492 ;; Auto vars:     Size  Location     Type
  1493 ;;  tmp             2    9[COMRAM] unsigned int 
  1494 ;; Return value:  Size  Location     Type
  1495 ;;                  2    4[COMRAM] unsigned int 
  1496 ;; Registers used:
  1497 ;;		wreg, status,2, status,0, cstack
  1498 ;; Tracked objects:
  1499 ;;		On entry : 0/0
  1500 ;;		On exit  : 0/0
  1501 ;;		Unchanged: 0/0
  1502 ;; Data sizes:     COMRAM   BANK0   BANK1   BANK2   BANK3   BANK4   BANK5   BANK6   BANK7   BANK8   BANK9  BANK10  BANK1
      +1  BANK12  BANK13
  1503 ;;      Params:         2       0       0       0       0       0       0       0       0       0       0       0       
      +0       0       0
  1504 ;;      Locals:         2       0       0       0       0       0       0       0       0       0       0       0       
      +0       0       0
  1505 ;;      Temps:          3       0       0       0       0       0       0       0       0       0       0       0       
      +0       0       0
  1506 ;;      Totals:         7       0       0       0       0       0       0       0       0       0       0       0       
      +0       0       0
  1507 ;;Total ram usage:        7 bytes
  1508 ;; Hardware stack levels used: 1
  1509 ;; Hardware stack levels required when called: 2
  1510 ;; This function calls:
  1511 ;;		_I2C_2_Master_Read
  1512 ;;		_I2C_2_Master_RepStart
  1513 ;;		_I2C_2_Master_Start
  1514 ;;		_I2C_2_Master_Stop
  1515 ;;		_I2C_2_Master_Write
  1516 ;; This function is called by:
  1517 ;;		_colour_read_all
  1518 ;; This function uses a non-reentrant model
  1519 ;;
  1520                           
  1521                           	psect	text4
  1522   00416E                     __ptext4:
  1523                           	callstack 0
  1524   00416E                     _color_read_Green:
  1525                           	callstack 27
  1526   00416E                     
  1527                           ;colorclick.c: 47:     unsigned int tmp;;colorclick.c: 48:     I2C_2_Master_Start();
  1528   00416E  ECEF  F022         	call	_I2C_2_Master_Start	;wreg free
  1529                           
  1530                           ;colorclick.c: 49:     I2C_2_Master_Write(0x52 | 0x00);
  1531   004172  0E52               	movlw	82
  1532   004174  ECDF  F022         	call	_I2C_2_Master_Write
  1533                           
  1534                           ;colorclick.c: 50:     I2C_2_Master_Write(0xA0 | 0x18);
  1535   004178  0EB8               	movlw	184
  1536   00417A  ECDF  F022         	call	_I2C_2_Master_Write
  1537                           
  1538                           ;colorclick.c: 51:     I2C_2_Master_RepStart();
  1539   00417E  ECE5  F022         	call	_I2C_2_Master_RepStart	;wreg free
  1540                           
  1541                           ;colorclick.c: 52:     I2C_2_Master_Write(0x52 | 0x01);
  1542   004182  0E53               	movlw	83
  1543   004184  ECDF  F022         	call	_I2C_2_Master_Write
  1544                           
  1545                           ;colorclick.c: 53:     tmp=I2C_2_Master_Read(1);
  1546   004188  0E01               	movlw	1
  1547   00418A  ECE6  F021         	call	_I2C_2_Master_Read
  1548   00418E  6E07               	movwf	??_color_read_Green^0,c
  1549   004190  5007               	movf	??_color_read_Green^0,w,c
  1550   004192  6E0A               	movwf	color_read_Green@tmp^0,c
  1551   004194  6A0B               	clrf	(color_read_Green@tmp+1)^0,c
  1552                           
  1553                           ;colorclick.c: 54:     tmp=tmp | (I2C_2_Master_Read(0)<<8);
  1554   004196  0E00               	movlw	0
  1555   004198  ECE6  F021         	call	_I2C_2_Master_Read
  1556   00419C  6E07               	movwf	??_color_read_Green^0,c
  1557   00419E  5007               	movf	??_color_read_Green^0,w,c
  1558   0041A0  6E09               	movwf	(??_color_read_Green+2)^0,c
  1559   0041A2  6A08               	clrf	(??_color_read_Green+1)^0,c
  1560   0041A4  500A               	movf	color_read_Green@tmp^0,w,c
  1561   0041A6  1008               	iorwf	(??_color_read_Green+1)^0,w,c
  1562   0041A8  6E0A               	movwf	color_read_Green@tmp^0,c
  1563   0041AA  500B               	movf	(color_read_Green@tmp+1)^0,w,c
  1564   0041AC  1009               	iorwf	(??_color_read_Green+2)^0,w,c
  1565   0041AE  6E0B               	movwf	(color_read_Green@tmp+1)^0,c
  1566                           
  1567                           ;colorclick.c: 55:     I2C_2_Master_Stop();
  1568   0041B0  ECEA  F022         	call	_I2C_2_Master_Stop	;wreg free
  1569   0041B4                     
  1570                           ;colorclick.c: 56:     return tmp;
  1571   0041B4  C00A  F005         	movff	color_read_Green@tmp,?_color_read_Green
  1572   0041B8  C00B  F006         	movff	color_read_Green@tmp+1,?_color_read_Green+1
  1573   0041BC  0012               	return		;funcret
  1574   0041BE                     __end_of_color_read_Green:
  1575                           	callstack 0
  1576                           
  1577 ;; *************** function _color_read_Clear *****************
  1578 ;; Defined at:
  1579 ;;		line 74 in file "colorclick.c"
  1580 ;; Parameters:    Size  Location     Type
  1581 ;;		None
  1582 ;; Auto vars:     Size  Location     Type
  1583 ;;  tmp             2    9[COMRAM] unsigned int 
  1584 ;; Return value:  Size  Location     Type
  1585 ;;                  2    4[COMRAM] unsigned int 
  1586 ;; Registers used:
  1587 ;;		wreg, status,2, status,0, cstack
  1588 ;; Tracked objects:
  1589 ;;		On entry : 0/0
  1590 ;;		On exit  : 0/0
  1591 ;;		Unchanged: 0/0
  1592 ;; Data sizes:     COMRAM   BANK0   BANK1   BANK2   BANK3   BANK4   BANK5   BANK6   BANK7   BANK8   BANK9  BANK10  BANK1
      +1  BANK12  BANK13
  1593 ;;      Params:         2       0       0       0       0       0       0       0       0       0       0       0       
      +0       0       0
  1594 ;;      Locals:         2       0       0       0       0       0       0       0       0       0       0       0       
      +0       0       0
  1595 ;;      Temps:          3       0       0       0       0       0       0       0       0       0       0       0       
      +0       0       0
  1596 ;;      Totals:         7       0       0       0       0       0       0       0       0       0       0       0       
      +0       0       0
  1597 ;;Total ram usage:        7 bytes
  1598 ;; Hardware stack levels used: 1
  1599 ;; Hardware stack levels required when called: 2
  1600 ;; This function calls:
  1601 ;;		_I2C_2_Master_Read
  1602 ;;		_I2C_2_Master_RepStart
  1603 ;;		_I2C_2_Master_Start
  1604 ;;		_I2C_2_Master_Stop
  1605 ;;		_I2C_2_Master_Write
  1606 ;; This function is called by:
  1607 ;;		_colour_read_all
  1608 ;; This function uses a non-reentrant model
  1609 ;;
  1610                           
  1611                           	psect	text5
  1612   0041BE                     __ptext5:
  1613                           	callstack 0
  1614   0041BE                     _color_read_Clear:
  1615                           	callstack 27
  1616   0041BE                     
  1617                           ;colorclick.c: 76:     unsigned int tmp;;colorclick.c: 77:     I2C_2_Master_Start();
  1618   0041BE  ECEF  F022         	call	_I2C_2_Master_Start	;wreg free
  1619                           
  1620                           ;colorclick.c: 78:     I2C_2_Master_Write(0x52 | 0x00);
  1621   0041C2  0E52               	movlw	82
  1622   0041C4  ECDF  F022         	call	_I2C_2_Master_Write
  1623                           
  1624                           ;colorclick.c: 79:     I2C_2_Master_Write(0xA0 | 0x14);
  1625   0041C8  0EB4               	movlw	180
  1626   0041CA  ECDF  F022         	call	_I2C_2_Master_Write
  1627                           
  1628                           ;colorclick.c: 80:     I2C_2_Master_RepStart();
  1629   0041CE  ECE5  F022         	call	_I2C_2_Master_RepStart	;wreg free
  1630                           
  1631                           ;colorclick.c: 81:     I2C_2_Master_Write(0x52 | 0x01);
  1632   0041D2  0E53               	movlw	83
  1633   0041D4  ECDF  F022         	call	_I2C_2_Master_Write
  1634                           
  1635                           ;colorclick.c: 82:     tmp=I2C_2_Master_Read(1);
  1636   0041D8  0E01               	movlw	1
  1637   0041DA  ECE6  F021         	call	_I2C_2_Master_Read
  1638   0041DE  6E07               	movwf	??_color_read_Clear^0,c
  1639   0041E0  5007               	movf	??_color_read_Clear^0,w,c
  1640   0041E2  6E0A               	movwf	color_read_Clear@tmp^0,c
  1641   0041E4  6A0B               	clrf	(color_read_Clear@tmp+1)^0,c
  1642                           
  1643                           ;colorclick.c: 83:     tmp=tmp | (I2C_2_Master_Read(0)<<8);
  1644   0041E6  0E00               	movlw	0
  1645   0041E8  ECE6  F021         	call	_I2C_2_Master_Read
  1646   0041EC  6E07               	movwf	??_color_read_Clear^0,c
  1647   0041EE  5007               	movf	??_color_read_Clear^0,w,c
  1648   0041F0  6E09               	movwf	(??_color_read_Clear+2)^0,c
  1649   0041F2  6A08               	clrf	(??_color_read_Clear+1)^0,c
  1650   0041F4  500A               	movf	color_read_Clear@tmp^0,w,c
  1651   0041F6  1008               	iorwf	(??_color_read_Clear+1)^0,w,c
  1652   0041F8  6E0A               	movwf	color_read_Clear@tmp^0,c
  1653   0041FA  500B               	movf	(color_read_Clear@tmp+1)^0,w,c
  1654   0041FC  1009               	iorwf	(??_color_read_Clear+2)^0,w,c
  1655   0041FE  6E0B               	movwf	(color_read_Clear@tmp+1)^0,c
  1656                           
  1657                           ;colorclick.c: 84:     I2C_2_Master_Stop();
  1658   004200  ECEA  F022         	call	_I2C_2_Master_Stop	;wreg free
  1659   004204                     
  1660                           ;colorclick.c: 85:     return tmp;
  1661   004204  C00A  F005         	movff	color_read_Clear@tmp,?_color_read_Clear
  1662   004208  C00B  F006         	movff	color_read_Clear@tmp+1,?_color_read_Clear+1
  1663   00420C  0012               	return		;funcret
  1664   00420E                     __end_of_color_read_Clear:
  1665                           	callstack 0
  1666                           
  1667 ;; *************** function _color_read_Blue *****************
  1668 ;; Defined at:
  1669 ;;		line 59 in file "colorclick.c"
  1670 ;; Parameters:    Size  Location     Type
  1671 ;;		None
  1672 ;; Auto vars:     Size  Location     Type
  1673 ;;  tmp             2    9[COMRAM] unsigned int 
  1674 ;; Return value:  Size  Location     Type
  1675 ;;                  2    4[COMRAM] unsigned int 
  1676 ;; Registers used:
  1677 ;;		wreg, status,2, status,0, cstack
  1678 ;; Tracked objects:
  1679 ;;		On entry : 0/0
  1680 ;;		On exit  : 0/0
  1681 ;;		Unchanged: 0/0
  1682 ;; Data sizes:     COMRAM   BANK0   BANK1   BANK2   BANK3   BANK4   BANK5   BANK6   BANK7   BANK8   BANK9  BANK10  BANK1
      +1  BANK12  BANK13
  1683 ;;      Params:         2       0       0       0       0       0       0       0       0       0       0       0       
      +0       0       0
  1684 ;;      Locals:         2       0       0       0       0       0       0       0       0       0       0       0       
      +0       0       0
  1685 ;;      Temps:          3       0       0       0       0       0       0       0       0       0       0       0       
      +0       0       0
  1686 ;;      Totals:         7       0       0       0       0       0       0       0       0       0       0       0       
      +0       0       0
  1687 ;;Total ram usage:        7 bytes
  1688 ;; Hardware stack levels used: 1
  1689 ;; Hardware stack levels required when called: 2
  1690 ;; This function calls:
  1691 ;;		_I2C_2_Master_Read
  1692 ;;		_I2C_2_Master_RepStart
  1693 ;;		_I2C_2_Master_Start
  1694 ;;		_I2C_2_Master_Stop
  1695 ;;		_I2C_2_Master_Write
  1696 ;; This function is called by:
  1697 ;;		_colour_read_all
  1698 ;; This function uses a non-reentrant model
  1699 ;;
  1700                           
  1701                           	psect	text6
  1702   00420E                     __ptext6:
  1703                           	callstack 0
  1704   00420E                     _color_read_Blue:
  1705                           	callstack 27
  1706   00420E                     
  1707                           ;colorclick.c: 61:     unsigned int tmp;;colorclick.c: 62:     I2C_2_Master_Start();
  1708   00420E  ECEF  F022         	call	_I2C_2_Master_Start	;wreg free
  1709                           
  1710                           ;colorclick.c: 63:     I2C_2_Master_Write(0x52 | 0x00);
  1711   004212  0E52               	movlw	82
  1712   004214  ECDF  F022         	call	_I2C_2_Master_Write
  1713                           
  1714                           ;colorclick.c: 64:     I2C_2_Master_Write(0xA0 | 0x1A);
  1715   004218  0EBA               	movlw	186
  1716   00421A  ECDF  F022         	call	_I2C_2_Master_Write
  1717                           
  1718                           ;colorclick.c: 65:     I2C_2_Master_RepStart();
  1719   00421E  ECE5  F022         	call	_I2C_2_Master_RepStart	;wreg free
  1720                           
  1721                           ;colorclick.c: 66:     I2C_2_Master_Write(0x52 | 0x01);
  1722   004222  0E53               	movlw	83
  1723   004224  ECDF  F022         	call	_I2C_2_Master_Write
  1724                           
  1725                           ;colorclick.c: 67:     tmp=I2C_2_Master_Read(1);
  1726   004228  0E01               	movlw	1
  1727   00422A  ECE6  F021         	call	_I2C_2_Master_Read
  1728   00422E  6E07               	movwf	??_color_read_Blue^0,c
  1729   004230  5007               	movf	??_color_read_Blue^0,w,c
  1730   004232  6E0A               	movwf	color_read_Blue@tmp^0,c
  1731   004234  6A0B               	clrf	(color_read_Blue@tmp+1)^0,c
  1732                           
  1733                           ;colorclick.c: 68:     tmp=tmp | (I2C_2_Master_Read(0)<<8);
  1734   004236  0E00               	movlw	0
  1735   004238  ECE6  F021         	call	_I2C_2_Master_Read
  1736   00423C  6E07               	movwf	??_color_read_Blue^0,c
  1737   00423E  5007               	movf	??_color_read_Blue^0,w,c
  1738   004240  6E09               	movwf	(??_color_read_Blue+2)^0,c
  1739   004242  6A08               	clrf	(??_color_read_Blue+1)^0,c
  1740   004244  500A               	movf	color_read_Blue@tmp^0,w,c
  1741   004246  1008               	iorwf	(??_color_read_Blue+1)^0,w,c
  1742   004248  6E0A               	movwf	color_read_Blue@tmp^0,c
  1743   00424A  500B               	movf	(color_read_Blue@tmp+1)^0,w,c
  1744   00424C  1009               	iorwf	(??_color_read_Blue+2)^0,w,c
  1745   00424E  6E0B               	movwf	(color_read_Blue@tmp+1)^0,c
  1746                           
  1747                           ;colorclick.c: 69:     I2C_2_Master_Stop();
  1748   004250  ECEA  F022         	call	_I2C_2_Master_Stop	;wreg free
  1749   004254                     
  1750                           ;colorclick.c: 70:     return tmp;
  1751   004254  C00A  F005         	movff	color_read_Blue@tmp,?_color_read_Blue
  1752   004258  C00B  F006         	movff	color_read_Blue@tmp+1,?_color_read_Blue+1
  1753   00425C  0012               	return		;funcret
  1754   00425E                     __end_of_color_read_Blue:
  1755                           	callstack 0
  1756                           
  1757 ;; *************** function _I2C_2_Master_RepStart *****************
  1758 ;; Defined at:
  1759 ;;		line 33 in file "i2c.c"
  1760 ;; Parameters:    Size  Location     Type
  1761 ;;		None
  1762 ;; Auto vars:     Size  Location     Type
  1763 ;;		None
  1764 ;; Return value:  Size  Location     Type
  1765 ;;                  1    wreg      void 
  1766 ;; Registers used:
  1767 ;;		wreg, status,2, status,0, cstack
  1768 ;; Tracked objects:
  1769 ;;		On entry : 0/0
  1770 ;;		On exit  : 0/0
  1771 ;;		Unchanged: 0/0
  1772 ;; Data sizes:     COMRAM   BANK0   BANK1   BANK2   BANK3   BANK4   BANK5   BANK6   BANK7   BANK8   BANK9  BANK10  BANK1
      +1  BANK12  BANK13
  1773 ;;      Params:         0       0       0       0       0       0       0       0       0       0       0       0       
      +0       0       0
  1774 ;;      Locals:         0       0       0       0       0       0       0       0       0       0       0       0       
      +0       0       0
  1775 ;;      Temps:          0       0       0       0       0       0       0       0       0       0       0       0       
      +0       0       0
  1776 ;;      Totals:         0       0       0       0       0       0       0       0       0       0       0       0       
      +0       0       0
  1777 ;;Total ram usage:        0 bytes
  1778 ;; Hardware stack levels used: 1
  1779 ;; Hardware stack levels required when called: 1
  1780 ;; This function calls:
  1781 ;;		_I2C_2_Master_Idle
  1782 ;; This function is called by:
  1783 ;;		_color_read_Red
  1784 ;;		_color_read_Green
  1785 ;;		_color_read_Blue
  1786 ;;		_color_read_Clear
  1787 ;; This function uses a non-reentrant model
  1788 ;;
  1789                           
  1790                           	psect	text7
  1791   0045CA                     __ptext7:
  1792                           	callstack 0
  1793   0045CA                     _I2C_2_Master_RepStart:
  1794                           	callstack 27
  1795   0045CA                     
  1796                           ;i2c.c: 35:   I2C_2_Master_Idle();
  1797   0045CA  EC92  F022         	call	_I2C_2_Master_Idle	;wreg free
  1798   0045CE                     
  1799                           ;i2c.c: 36:   SSP2CON2bits.RSEN = 1;
  1800   0045CE  010E               	movlb	14	; () banked
  1801   0045D0  83DA               	bsf	218,1,b	;volatile
  1802   0045D2                     
  1803                           ; BSR set to: 14
  1804   0045D2  0012               	return		;funcret
  1805   0045D4                     __end_of_I2C_2_Master_RepStart:
  1806                           	callstack 0
  1807                           
  1808 ;; *************** function _I2C_2_Master_Read *****************
  1809 ;; Defined at:
  1810 ;;		line 51 in file "i2c.c"
  1811 ;; Parameters:    Size  Location     Type
  1812 ;;  ack             1    wreg     unsigned char 
  1813 ;; Auto vars:     Size  Location     Type
  1814 ;;  ack             1    2[COMRAM] unsigned char 
  1815 ;;  tmp             1    3[COMRAM] unsigned char 
  1816 ;; Return value:  Size  Location     Type
  1817 ;;                  1    wreg      unsigned char 
  1818 ;; Registers used:
  1819 ;;		wreg, status,2, status,0, cstack
  1820 ;; Tracked objects:
  1821 ;;		On entry : 0/0
  1822 ;;		On exit  : 0/0
  1823 ;;		Unchanged: 0/0
  1824 ;; Data sizes:     COMRAM   BANK0   BANK1   BANK2   BANK3   BANK4   BANK5   BANK6   BANK7   BANK8   BANK9  BANK10  BANK1
      +1  BANK12  BANK13
  1825 ;;      Params:         0       0       0       0       0       0       0       0       0       0       0       0       
      +0       0       0
  1826 ;;      Locals:         2       0       0       0       0       0       0       0       0       0       0       0       
      +0       0       0
  1827 ;;      Temps:          1       0       0       0       0       0       0       0       0       0       0       0       
      +0       0       0
  1828 ;;      Totals:         3       0       0       0       0       0       0       0       0       0       0       0       
      +0       0       0
  1829 ;;Total ram usage:        3 bytes
  1830 ;; Hardware stack levels used: 1
  1831 ;; Hardware stack levels required when called: 1
  1832 ;; This function calls:
  1833 ;;		_I2C_2_Master_Idle
  1834 ;; This function is called by:
  1835 ;;		_color_read_Red
  1836 ;;		_color_read_Green
  1837 ;;		_color_read_Blue
  1838 ;;		_color_read_Clear
  1839 ;; This function uses a non-reentrant model
  1840 ;;
  1841                           
  1842                           	psect	text8
  1843   0043CC                     __ptext8:
  1844                           	callstack 0
  1845   0043CC                     _I2C_2_Master_Read:
  1846                           	callstack 27
  1847                           
  1848                           ; BSR set to: 14
  1849                           ;incstack = 0
  1850                           ;I2C_2_Master_Read@ack stored from wreg
  1851   0043CC  6E03               	movwf	I2C_2_Master_Read@ack^0,c
  1852   0043CE                     
  1853                           ;i2c.c: 51: unsigned char I2C_2_Master_Read(unsigned char ack);i2c.c: 52: {;i2c.c: 53:  
      +                           unsigned char tmp;;i2c.c: 54:   I2C_2_Master_Idle();
  1854   0043CE  EC92  F022         	call	_I2C_2_Master_Idle	;wreg free
  1855   0043D2                     
  1856                           ;i2c.c: 55:   SSP2CON2bits.RCEN = 1;
  1857   0043D2  010E               	movlb	14	; () banked
  1858   0043D4  87DA               	bsf	218,3,b	;volatile
  1859                           
  1860                           ;i2c.c: 56:   I2C_2_Master_Idle();
  1861   0043D6  EC92  F022         	call	_I2C_2_Master_Idle	;wreg free
  1862   0043DA                     
  1863                           ;i2c.c: 57:   tmp = SSP2BUF;
  1864   0043DA  CED5 F004          	movff	3797,I2C_2_Master_Read@tmp	;volatile
  1865                           
  1866                           ;i2c.c: 58:   I2C_2_Master_Idle();
  1867   0043DE  EC92  F022         	call	_I2C_2_Master_Idle	;wreg free
  1868   0043E2                     
  1869                           ;i2c.c: 59:   SSP2CON2bits.ACKDT = !ack;
  1870   0043E2  5003               	movf	I2C_2_Master_Read@ack^0,w,c
  1871   0043E4  B4D8               	btfsc	status,2,c
  1872   0043E6  EFF7  F021         	goto	u3961
  1873   0043EA  EFFB  F021         	goto	u3960
  1874   0043EE                     u3961:
  1875   0043EE  6A02               	clrf	??_I2C_2_Master_Read^0,c
  1876   0043F0  2A02               	incf	??_I2C_2_Master_Read^0,f,c
  1877   0043F2  EFFC  F021         	goto	u3978
  1878   0043F6                     u3960:
  1879   0043F6  6A02               	clrf	??_I2C_2_Master_Read^0,c
  1880   0043F8                     u3978:
  1881   0043F8  3A02               	swapf	??_I2C_2_Master_Read^0,f,c
  1882   0043FA  4602               	rlncf	??_I2C_2_Master_Read^0,f,c
  1883   0043FC  010E               	movlb	14	; () banked
  1884   0043FE  51DA               	movf	218,w,b	;volatile
  1885   004400  1802               	xorwf	??_I2C_2_Master_Read^0,w,c
  1886   004402  0BDF               	andlw	-33
  1887   004404  1802               	xorwf	??_I2C_2_Master_Read^0,w,c
  1888   004406  6FDA               	movwf	218,b	;volatile
  1889   004408                     
  1890                           ; BSR set to: 14
  1891                           ;i2c.c: 60:   SSP2CON2bits.ACKEN = 1;
  1892   004408  89DA               	bsf	218,4,b	;volatile
  1893   00440A                     
  1894                           ; BSR set to: 14
  1895                           ;i2c.c: 61:   return tmp;
  1896   00440A  5004               	movf	I2C_2_Master_Read@tmp^0,w,c
  1897   00440C                     
  1898                           ; BSR set to: 14
  1899   00440C  0012               	return		;funcret
  1900   00440E                     __end_of_I2C_2_Master_Read:
  1901                           	callstack 0
  1902                           
  1903 ;; *************** function _color_click_init *****************
  1904 ;; Defined at:
  1905 ;;		line 6 in file "colorclick.c"
  1906 ;; Parameters:    Size  Location     Type
  1907 ;;		None
  1908 ;; Auto vars:     Size  Location     Type
  1909 ;;		None
  1910 ;; Return value:  Size  Location     Type
  1911 ;;                  1    wreg      void 
  1912 ;; Registers used:
  1913 ;;		wreg, status,2, status,0, cstack
  1914 ;; Tracked objects:
  1915 ;;		On entry : 0/0
  1916 ;;		On exit  : 0/0
  1917 ;;		Unchanged: 0/0
  1918 ;; Data sizes:     COMRAM   BANK0   BANK1   BANK2   BANK3   BANK4   BANK5   BANK6   BANK7   BANK8   BANK9  BANK10  BANK1
      +1  BANK12  BANK13
  1919 ;;      Params:         0       0       0       0       0       0       0       0       0       0       0       0       
      +0       0       0
  1920 ;;      Locals:         0       0       0       0       0       0       0       0       0       0       0       0       
      +0       0       0
  1921 ;;      Temps:          1       0       0       0       0       0       0       0       0       0       0       0       
      +0       0       0
  1922 ;;      Totals:         1       0       0       0       0       0       0       0       0       0       0       0       
      +0       0       0
  1923 ;;Total ram usage:        1 bytes
  1924 ;; Hardware stack levels used: 1
  1925 ;; Hardware stack levels required when called: 3
  1926 ;; This function calls:
  1927 ;;		_I2C_2_Master_Init
  1928 ;;		_color_writetoaddr
  1929 ;; This function is called by:
  1930 ;;		_main
  1931 ;; This function uses a non-reentrant model
  1932 ;;
  1933                           
  1934                           	psect	text9
  1935   00444C                     __ptext9:
  1936                           	callstack 0
  1937   00444C                     _color_click_init:
  1938                           	callstack 27
  1939   00444C                     
  1940                           ;colorclick.c: 9:     I2C_2_Master_Init();
  1941   00444C  EC7D  F022         	call	_I2C_2_Master_Init	;wreg free
  1942   004450                     
  1943                           ;colorclick.c: 12:   color_writetoaddr(0x00, 0x01);
  1944   004450  0E01               	movlw	1
  1945   004452  6E03               	movwf	color_writetoaddr@value^0,c
  1946   004454  0E00               	movlw	0
  1947   004456  ECB7  F022         	call	_color_writetoaddr
  1948   00445A                     
  1949                           ;colorclick.c: 13:     _delay((unsigned long)((3)*(64000000/4000.0)));
  1950   00445A  0E3F               	movlw	63
  1951   00445C  6E05               	movwf	??_color_click_init^0,c
  1952   00445E  0E55               	movlw	85
  1953   004460                     u4377:
  1954   004460  2EE8               	decfsz	wreg,f,c
  1955   004462  D7FE               	bra	u4377
  1956   004464  2E05               	decfsz	??_color_click_init^0,f,c
  1957   004466  D7FC               	bra	u4377
  1958   004468  F000               	nop	
  1959   00446A                     
  1960                           ;colorclick.c: 16:  color_writetoaddr(0x00, 0x03);
  1961   00446A  0E03               	movlw	3
  1962   00446C  6E03               	movwf	color_writetoaddr@value^0,c
  1963   00446E  0E00               	movlw	0
  1964   004470  ECB7  F022         	call	_color_writetoaddr
  1965   004474                     
  1966                           ;colorclick.c: 19:  color_writetoaddr(0x01, 0xD6);
  1967   004474  0ED6               	movlw	214
  1968   004476  6E03               	movwf	color_writetoaddr@value^0,c
  1969   004478  0E01               	movlw	1
  1970   00447A  ECB7  F022         	call	_color_writetoaddr
  1971   00447E                     
  1972                           ;colorclick.c: 21:     color_writetoaddr(0x00, 0x13);
  1973   00447E  0E13               	movlw	19
  1974   004480  6E03               	movwf	color_writetoaddr@value^0,c
  1975   004482  0E00               	movlw	0
  1976   004484  ECB7  F022         	call	_color_writetoaddr
  1977   004488  0012               	return		;funcret
  1978   00448A                     __end_of_color_click_init:
  1979                           	callstack 0
  1980                           
  1981 ;; *************** function _color_writetoaddr *****************
  1982 ;; Defined at:
  1983 ;;		line 24 in file "colorclick.c"
  1984 ;; Parameters:    Size  Location     Type
  1985 ;;  address         1    wreg     unsigned char 
  1986 ;;  value           1    2[COMRAM] unsigned char 
  1987 ;; Auto vars:     Size  Location     Type
  1988 ;;  address         1    3[COMRAM] unsigned char 
  1989 ;; Return value:  Size  Location     Type
  1990 ;;                  1    wreg      void 
  1991 ;; Registers used:
  1992 ;;		wreg, status,2, status,0, cstack
  1993 ;; Tracked objects:
  1994 ;;		On entry : 0/0
  1995 ;;		On exit  : 0/0
  1996 ;;		Unchanged: 0/0
  1997 ;; Data sizes:     COMRAM   BANK0   BANK1   BANK2   BANK3   BANK4   BANK5   BANK6   BANK7   BANK8   BANK9  BANK10  BANK1
      +1  BANK12  BANK13
  1998 ;;      Params:         1       0       0       0       0       0       0       0       0       0       0       0       
      +0       0       0
  1999 ;;      Locals:         1       0       0       0       0       0       0       0       0       0       0       0       
      +0       0       0
  2000 ;;      Temps:          0       0       0       0       0       0       0       0       0       0       0       0       
      +0       0       0
  2001 ;;      Totals:         2       0       0       0       0       0       0       0       0       0       0       0       
      +0       0       0
  2002 ;;Total ram usage:        2 bytes
  2003 ;; Hardware stack levels used: 1
  2004 ;; Hardware stack levels required when called: 2
  2005 ;; This function calls:
  2006 ;;		_I2C_2_Master_Start
  2007 ;;		_I2C_2_Master_Stop
  2008 ;;		_I2C_2_Master_Write
  2009 ;; This function is called by:
  2010 ;;		_color_click_init
  2011 ;; This function uses a non-reentrant model
  2012 ;;
  2013                           
  2014                           	psect	text10
  2015   00456E                     __ptext10:
  2016                           	callstack 0
  2017   00456E                     _color_writetoaddr:
  2018                           	callstack 27
  2019                           
  2020                           ;incstack = 0
  2021                           ;color_writetoaddr@address stored from wreg
  2022   00456E  6E04               	movwf	color_writetoaddr@address^0,c
  2023   004570                     
  2024                           ;colorclick.c: 25:     I2C_2_Master_Start();
  2025   004570  ECEF  F022         	call	_I2C_2_Master_Start	;wreg free
  2026                           
  2027                           ;colorclick.c: 26:     I2C_2_Master_Write(0x52 | 0x00);
  2028   004574  0E52               	movlw	82
  2029   004576  ECDF  F022         	call	_I2C_2_Master_Write
  2030                           
  2031                           ;colorclick.c: 27:     I2C_2_Master_Write(0x80 | address);
  2032   00457A  5004               	movf	color_writetoaddr@address^0,w,c
  2033   00457C  0980               	iorlw	128
  2034   00457E  ECDF  F022         	call	_I2C_2_Master_Write
  2035                           
  2036                           ;colorclick.c: 28:     I2C_2_Master_Write(value);
  2037   004582  5003               	movf	color_writetoaddr@value^0,w,c
  2038   004584  ECDF  F022         	call	_I2C_2_Master_Write
  2039                           
  2040                           ;colorclick.c: 29:     I2C_2_Master_Stop();
  2041   004588  ECEA  F022         	call	_I2C_2_Master_Stop	;wreg free
  2042   00458C  0012               	return		;funcret
  2043   00458E                     __end_of_color_writetoaddr:
  2044                           	callstack 0
  2045                           
  2046 ;; *************** function _I2C_2_Master_Write *****************
  2047 ;; Defined at:
  2048 ;;		line 45 in file "i2c.c"
  2049 ;; Parameters:    Size  Location     Type
  2050 ;;  data_byte       1    wreg     unsigned char 
  2051 ;; Auto vars:     Size  Location     Type
  2052 ;;  data_byte       1    1[COMRAM] unsigned char 
  2053 ;; Return value:  Size  Location     Type
  2054 ;;                  1    wreg      void 
  2055 ;; Registers used:
  2056 ;;		wreg, status,2, status,0, cstack
  2057 ;; Tracked objects:
  2058 ;;		On entry : 0/0
  2059 ;;		On exit  : 0/0
  2060 ;;		Unchanged: 0/0
  2061 ;; Data sizes:     COMRAM   BANK0   BANK1   BANK2   BANK3   BANK4   BANK5   BANK6   BANK7   BANK8   BANK9  BANK10  BANK1
      +1  BANK12  BANK13
  2062 ;;      Params:         0       0       0       0       0       0       0       0       0       0       0       0       
      +0       0       0
  2063 ;;      Locals:         1       0       0       0       0       0       0       0       0       0       0       0       
      +0       0       0
  2064 ;;      Temps:          0       0       0       0       0       0       0       0       0       0       0       0       
      +0       0       0
  2065 ;;      Totals:         1       0       0       0       0       0       0       0       0       0       0       0       
      +0       0       0
  2066 ;;Total ram usage:        1 bytes
  2067 ;; Hardware stack levels used: 1
  2068 ;; Hardware stack levels required when called: 1
  2069 ;; This function calls:
  2070 ;;		_I2C_2_Master_Idle
  2071 ;; This function is called by:
  2072 ;;		_color_writetoaddr
  2073 ;;		_color_read_Red
  2074 ;;		_color_read_Green
  2075 ;;		_color_read_Blue
  2076 ;;		_color_read_Clear
  2077 ;; This function uses a non-reentrant model
  2078 ;;
  2079                           
  2080                           	psect	text11
  2081   0045BE                     __ptext11:
  2082                           	callstack 0
  2083   0045BE                     _I2C_2_Master_Write:
  2084                           	callstack 27
  2085                           
  2086                           ;incstack = 0
  2087                           ;I2C_2_Master_Write@data_byte stored from wreg
  2088   0045BE  6E02               	movwf	I2C_2_Master_Write@data_byte^0,c
  2089   0045C0                     
  2090                           ;i2c.c: 45: void I2C_2_Master_Write(unsigned char data_byte);i2c.c: 46: {;i2c.c: 47:   I
      +                          2C_2_Master_Idle();
  2091   0045C0  EC92  F022         	call	_I2C_2_Master_Idle	;wreg free
  2092   0045C4                     
  2093                           ;i2c.c: 48:   SSP2BUF = data_byte;
  2094   0045C4  C002  FED5         	movff	I2C_2_Master_Write@data_byte,3797	;volatile
  2095   0045C8  0012               	return		;funcret
  2096   0045CA                     __end_of_I2C_2_Master_Write:
  2097                           	callstack 0
  2098                           
  2099 ;; *************** function _I2C_2_Master_Stop *****************
  2100 ;; Defined at:
  2101 ;;		line 39 in file "i2c.c"
  2102 ;; Parameters:    Size  Location     Type
  2103 ;;		None
  2104 ;; Auto vars:     Size  Location     Type
  2105 ;;		None
  2106 ;; Return value:  Size  Location     Type
  2107 ;;                  1    wreg      void 
  2108 ;; Registers used:
  2109 ;;		wreg, status,2, status,0, cstack
  2110 ;; Tracked objects:
  2111 ;;		On entry : 0/0
  2112 ;;		On exit  : 0/0
  2113 ;;		Unchanged: 0/0
  2114 ;; Data sizes:     COMRAM   BANK0   BANK1   BANK2   BANK3   BANK4   BANK5   BANK6   BANK7   BANK8   BANK9  BANK10  BANK1
      +1  BANK12  BANK13
  2115 ;;      Params:         0       0       0       0       0       0       0       0       0       0       0       0       
      +0       0       0
  2116 ;;      Locals:         0       0       0       0       0       0       0       0       0       0       0       0       
      +0       0       0
  2117 ;;      Temps:          0       0       0       0       0       0       0       0       0       0       0       0       
      +0       0       0
  2118 ;;      Totals:         0       0       0       0       0       0       0       0       0       0       0       0       
      +0       0       0
  2119 ;;Total ram usage:        0 bytes
  2120 ;; Hardware stack levels used: 1
  2121 ;; Hardware stack levels required when called: 1
  2122 ;; This function calls:
  2123 ;;		_I2C_2_Master_Idle
  2124 ;; This function is called by:
  2125 ;;		_color_writetoaddr
  2126 ;;		_color_read_Red
  2127 ;;		_color_read_Green
  2128 ;;		_color_read_Blue
  2129 ;;		_color_read_Clear
  2130 ;; This function uses a non-reentrant model
  2131 ;;
  2132                           
  2133                           	psect	text12
  2134   0045D4                     __ptext12:
  2135                           	callstack 0
  2136   0045D4                     _I2C_2_Master_Stop:
  2137                           	callstack 27
  2138   0045D4                     
  2139                           ;i2c.c: 41:   I2C_2_Master_Idle();
  2140   0045D4  EC92  F022         	call	_I2C_2_Master_Idle	;wreg free
  2141   0045D8                     
  2142                           ;i2c.c: 42:   SSP2CON2bits.PEN = 1;
  2143   0045D8  010E               	movlb	14	; () banked
  2144   0045DA  85DA               	bsf	218,2,b	;volatile
  2145   0045DC                     
  2146                           ; BSR set to: 14
  2147   0045DC  0012               	return		;funcret
  2148   0045DE                     __end_of_I2C_2_Master_Stop:
  2149                           	callstack 0
  2150                           
  2151 ;; *************** function _I2C_2_Master_Start *****************
  2152 ;; Defined at:
  2153 ;;		line 27 in file "i2c.c"
  2154 ;; Parameters:    Size  Location     Type
  2155 ;;		None
  2156 ;; Auto vars:     Size  Location     Type
  2157 ;;		None
  2158 ;; Return value:  Size  Location     Type
  2159 ;;                  1    wreg      void 
  2160 ;; Registers used:
  2161 ;;		wreg, status,2, status,0, cstack
  2162 ;; Tracked objects:
  2163 ;;		On entry : 0/0
  2164 ;;		On exit  : 0/0
  2165 ;;		Unchanged: 0/0
  2166 ;; Data sizes:     COMRAM   BANK0   BANK1   BANK2   BANK3   BANK4   BANK5   BANK6   BANK7   BANK8   BANK9  BANK10  BANK1
      +1  BANK12  BANK13
  2167 ;;      Params:         0       0       0       0       0       0       0       0       0       0       0       0       
      +0       0       0
  2168 ;;      Locals:         0       0       0       0       0       0       0       0       0       0       0       0       
      +0       0       0
  2169 ;;      Temps:          0       0       0       0       0       0       0       0       0       0       0       0       
      +0       0       0
  2170 ;;      Totals:         0       0       0       0       0       0       0       0       0       0       0       0       
      +0       0       0
  2171 ;;Total ram usage:        0 bytes
  2172 ;; Hardware stack levels used: 1
  2173 ;; Hardware stack levels required when called: 1
  2174 ;; This function calls:
  2175 ;;		_I2C_2_Master_Idle
  2176 ;; This function is called by:
  2177 ;;		_color_writetoaddr
  2178 ;;		_color_read_Red
  2179 ;;		_color_read_Green
  2180 ;;		_color_read_Blue
  2181 ;;		_color_read_Clear
  2182 ;; This function uses a non-reentrant model
  2183 ;;
  2184                           
  2185                           	psect	text13
  2186   0045DE                     __ptext13:
  2187                           	callstack 0
  2188   0045DE                     _I2C_2_Master_Start:
  2189                           	callstack 27
  2190   0045DE                     
  2191                           ;i2c.c: 29:   I2C_2_Master_Idle();
  2192   0045DE  EC92  F022         	call	_I2C_2_Master_Idle	;wreg free
  2193   0045E2                     
  2194                           ;i2c.c: 30:   SSP2CON2bits.SEN = 1;
  2195   0045E2  010E               	movlb	14	; () banked
  2196   0045E4  81DA               	bsf	218,0,b	;volatile
  2197   0045E6                     
  2198                           ; BSR set to: 14
  2199   0045E6  0012               	return		;funcret
  2200   0045E8                     __end_of_I2C_2_Master_Start:
  2201                           	callstack 0
  2202                           
  2203 ;; *************** function _I2C_2_Master_Idle *****************
  2204 ;; Defined at:
  2205 ;;		line 22 in file "i2c.c"
  2206 ;; Parameters:    Size  Location     Type
  2207 ;;		None
  2208 ;; Auto vars:     Size  Location     Type
  2209 ;;		None
  2210 ;; Return value:  Size  Location     Type
  2211 ;;                  1    wreg      void 
  2212 ;; Registers used:
  2213 ;;		wreg, status,2, status,0
  2214 ;; Tracked objects:
  2215 ;;		On entry : 0/0
  2216 ;;		On exit  : 0/0
  2217 ;;		Unchanged: 0/0
  2218 ;; Data sizes:     COMRAM   BANK0   BANK1   BANK2   BANK3   BANK4   BANK5   BANK6   BANK7   BANK8   BANK9  BANK10  BANK1
      +1  BANK12  BANK13
  2219 ;;      Params:         0       0       0       0       0       0       0       0       0       0       0       0       
      +0       0       0
  2220 ;;      Locals:         0       0       0       0       0       0       0       0       0       0       0       0       
      +0       0       0
  2221 ;;      Temps:          1       0       0       0       0       0       0       0       0       0       0       0       
      +0       0       0
  2222 ;;      Totals:         1       0       0       0       0       0       0       0       0       0       0       0       
      +0       0       0
  2223 ;;Total ram usage:        1 bytes
  2224 ;; Hardware stack levels used: 1
  2225 ;; This function calls:
  2226 ;;		Nothing
  2227 ;; This function is called by:
  2228 ;;		_I2C_2_Master_Start
  2229 ;;		_I2C_2_Master_RepStart
  2230 ;;		_I2C_2_Master_Stop
  2231 ;;		_I2C_2_Master_Write
  2232 ;;		_I2C_2_Master_Read
  2233 ;; This function uses a non-reentrant model
  2234 ;;
  2235                           
  2236                           	psect	text14
  2237   004524                     __ptext14:
  2238                           	callstack 0
  2239   004524                     _I2C_2_Master_Idle:
  2240                           	callstack 27
  2241   004524                     l109:
  2242   004524  010E               	movlb	14	; () banked
  2243   004526  B5D8               	btfsc	216,2,b	;volatile
  2244   004528  EF98  F022         	goto	u3891
  2245   00452C  EF9A  F022         	goto	u3890
  2246   004530                     u3891:
  2247   004530  EF92  F022         	goto	l109
  2248   004534                     u3890:
  2249   004534                     
  2250                           ; BSR set to: 14
  2251   004534  CEDA F001          	movff	3802,??_I2C_2_Master_Idle	;volatile
  2252   004538  0E1F               	movlw	31
  2253   00453A  1601               	andwf	??_I2C_2_Master_Idle^0,f,c
  2254   00453C  A4D8               	btfss	status,2,c
  2255   00453E  EFA3  F022         	goto	u3901
  2256   004542  EFA5  F022         	goto	u3900
  2257   004546                     u3901:
  2258   004546  EF92  F022         	goto	l109
  2259   00454A                     u3900:
  2260   00454A                     
  2261                           ; BSR set to: 14
  2262   00454A  0012               	return		;funcret
  2263   00454C                     __end_of_I2C_2_Master_Idle:
  2264                           	callstack 0
  2265                           
  2266 ;; *************** function _I2C_2_Master_Init *****************
  2267 ;; Defined at:
  2268 ;;		line 4 in file "i2c.c"
  2269 ;; Parameters:    Size  Location     Type
  2270 ;;		None
  2271 ;; Auto vars:     Size  Location     Type
  2272 ;;		None
  2273 ;; Return value:  Size  Location     Type
  2274 ;;                  1    wreg      void 
  2275 ;; Registers used:
  2276 ;;		wreg, status,2
  2277 ;; Tracked objects:
  2278 ;;		On entry : 0/0
  2279 ;;		On exit  : 0/0
  2280 ;;		Unchanged: 0/0
  2281 ;; Data sizes:     COMRAM   BANK0   BANK1   BANK2   BANK3   BANK4   BANK5   BANK6   BANK7   BANK8   BANK9  BANK10  BANK1
      +1  BANK12  BANK13
  2282 ;;      Params:         0       0       0       0       0       0       0       0       0       0       0       0       
      +0       0       0
  2283 ;;      Locals:         0       0       0       0       0       0       0       0       0       0       0       0       
      +0       0       0
  2284 ;;      Temps:          0       0       0       0       0       0       0       0       0       0       0       0       
      +0       0       0
  2285 ;;      Totals:         0       0       0       0       0       0       0       0       0       0       0       0       
      +0       0       0
  2286 ;;Total ram usage:        0 bytes
  2287 ;; Hardware stack levels used: 1
  2288 ;; This function calls:
  2289 ;;		Nothing
  2290 ;; This function is called by:
  2291 ;;		_color_click_init
  2292 ;;		_main
  2293 ;; This function uses a non-reentrant model
  2294 ;;
  2295                           
  2296                           	psect	text15
  2297   0044FA                     __ptext15:
  2298                           	callstack 0
  2299   0044FA                     _I2C_2_Master_Init:
  2300                           	callstack 29
  2301   0044FA                     
  2302                           ;i2c.c: 7:   SSP2CON1bits.SSPM= 0b1000;
  2303   0044FA  010E               	movlb	14	; () banked
  2304   0044FC  51D9               	movf	217,w,b	;volatile
  2305   0044FE  0BF0               	andlw	-16
  2306   004500  0908               	iorlw	8
  2307   004502  6FD9               	movwf	217,b	;volatile
  2308   004504                     
  2309                           ; BSR set to: 14
  2310                           ;i2c.c: 8:   SSP2CON1bits.SSPEN = 1;
  2311   004504  8BD9               	bsf	217,5,b	;volatile
  2312                           
  2313                           ;i2c.c: 9:   SSP2ADD = (64000000/(4*100000))-1;
  2314   004506  0E9F               	movlw	159
  2315   004508  6FD6               	movwf	214,b	;volatile
  2316   00450A                     
  2317                           ; BSR set to: 14
  2318                           ;i2c.c: 12:   TRISDbits.TRISD5 = 1;
  2319   00450A  8A84               	bsf	132,5,c	;volatile
  2320   00450C                     
  2321                           ; BSR set to: 14
  2322                           ;i2c.c: 13:   TRISDbits.TRISD6 = 1;
  2323   00450C  8C84               	bsf	132,6,c	;volatile
  2324   00450E                     
  2325                           ; BSR set to: 14
  2326                           ;i2c.c: 14:   ANSELDbits.ANSELD5=0;
  2327   00450E  9BA7               	bcf	167,5,b	;volatile
  2328   004510                     
  2329                           ; BSR set to: 14
  2330                           ;i2c.c: 15:   ANSELDbits.ANSELD6=0;
  2331   004510  9DA7               	bcf	167,6,b	;volatile
  2332                           
  2333                           ;i2c.c: 16:   SSP2DATPPS=0x1D;
  2334   004512  0E1D               	movlw	29
  2335   004514  6F1D               	movwf	29,b	;volatile
  2336                           
  2337                           ;i2c.c: 17:   SSP2CLKPPS=0x1E;
  2338   004516  0E1E               	movlw	30
  2339   004518  6F1C               	movwf	28,b	;volatile
  2340                           
  2341                           ;i2c.c: 18:   RD5PPS=0x1C;
  2342   00451A  0E1C               	movlw	28
  2343   00451C  6F6F               	movwf	111,b	;volatile
  2344                           
  2345                           ;i2c.c: 19:   RD6PPS=0x1B;
  2346   00451E  0E1B               	movlw	27
  2347   004520  6F70               	movwf	112,b	;volatile
  2348   004522                     
  2349                           ; BSR set to: 14
  2350   004522  0012               	return		;funcret
  2351   004524                     __end_of_I2C_2_Master_Init:
  2352                           	callstack 0
  2353                           
  2354 ;; *************** function _RGB2Hue *****************
  2355 ;; Defined at:
  2356 ;;		line 20 in file "colorfunctions.c"
  2357 ;; Parameters:    Size  Location     Type
  2358 ;;  cf              2   17[BANK0 ] PTR struct RGBC_rel
  2359 ;;		 -> colorf(20), 
  2360 ;; Auto vars:     Size  Location     Type
  2361 ;;  min             2   29[BANK0 ] int 
  2362 ;;  max             2   27[BANK0 ] int 
  2363 ;; Return value:  Size  Location     Type
  2364 ;;                  1    wreg      void 
  2365 ;; Registers used:
  2366 ;;		wreg, fsr2l, fsr2h, status,2, status,0, prodl, prodh, cstack
  2367 ;; Tracked objects:
  2368 ;;		On entry : 0/0
  2369 ;;		On exit  : 0/0
  2370 ;;		Unchanged: 0/0
  2371 ;; Data sizes:     COMRAM   BANK0   BANK1   BANK2   BANK3   BANK4   BANK5   BANK6   BANK7   BANK8   BANK9  BANK10  BANK1
      +1  BANK12  BANK13
  2372 ;;      Params:         0       2       0       0       0       0       0       0       0       0       0       0       
      +0       0       0
  2373 ;;      Locals:         0       8       0       0       0       0       0       0       0       0       0       0       
      +0       0       0
  2374 ;;      Temps:          0       4       0       0       0       0       0       0       0       0       0       0       
      +0       0       0
  2375 ;;      Totals:         0      14       0       0       0       0       0       0       0       0       0       0       
      +0       0       0
  2376 ;;Total ram usage:       14 bytes
  2377 ;; Hardware stack levels used: 1
  2378 ;; Hardware stack levels required when called: 2
  2379 ;; This function calls:
  2380 ;;		___fladd
  2381 ;;		___fldiv
  2382 ;;		___fleq
  2383 ;;		___flge
  2384 ;;		___flmul
  2385 ;;		___flsub
  2386 ;;		___fltol
  2387 ;;		___xxtofl
  2388 ;; This function is called by:
  2389 ;;		_main
  2390 ;; This function uses a non-reentrant model
  2391 ;;
  2392                           
  2393                           	psect	text16
  2394   001872                     __ptext16:
  2395                           	callstack 0
  2396   001872                     _RGB2Hue:
  2397                           	callstack 28
  2398   001872                     
  2399                           ;colorfunctions.c: 21:     if ((cf->Rf == cf->Gf)&&(cf->Rf == cf->Bf)){
  2400   001872  C071  FFD9         	movff	RGB2Hue@cf,fsr2l
  2401   001876  C072  FFDA         	movff	RGB2Hue@cf+1,fsr2h
  2402   00187A  CFDE F001          	movff	postinc2,___fleq@ff1
  2403   00187E  CFDE F002          	movff	postinc2,___fleq@ff1+1
  2404   001882  CFDE F003          	movff	postinc2,___fleq@ff1+2
  2405   001886  CFDE F004          	movff	postinc2,___fleq@ff1+3
  2406   00188A  0100               	movlb	0	; () banked
  2407   00188C  EE20 F004          	lfsr	2,4
  2408   001890  5171               	movf	RGB2Hue@cf& (0+255),w,b
  2409   001892  26D9               	addwf	fsr2l,f,c
  2410   001894  5172               	movf	(RGB2Hue@cf+1)& (0+255),w,b
  2411   001896  22DA               	addwfc	fsr2h,f,c
  2412   001898  CFDE F005          	movff	postinc2,___fleq@ff2
  2413   00189C  CFDE F006          	movff	postinc2,___fleq@ff2+1
  2414   0018A0  CFDE F007          	movff	postinc2,___fleq@ff2+2
  2415   0018A4  CFDE F008          	movff	postinc2,___fleq@ff2+3
  2416   0018A8  EC41  F01F         	call	___fleq	;wreg free
  2417   0018AC  A0D8               	btfss	status,0,c
  2418   0018AE  EF5B  F00C         	goto	u4251
  2419   0018B2  EF5D  F00C         	goto	u4250
  2420   0018B6                     u4251:
  2421   0018B6  EF92  F00C         	goto	l3844
  2422   0018BA                     u4250:
  2423   0018BA  C071  FFD9         	movff	RGB2Hue@cf,fsr2l
  2424   0018BE  C072  FFDA         	movff	RGB2Hue@cf+1,fsr2h
  2425   0018C2  CFDE F001          	movff	postinc2,___fleq@ff1
  2426   0018C6  CFDE F002          	movff	postinc2,___fleq@ff1+1
  2427   0018CA  CFDE F003          	movff	postinc2,___fleq@ff1+2
  2428   0018CE  CFDE F004          	movff	postinc2,___fleq@ff1+3
  2429   0018D2  0100               	movlb	0	; () banked
  2430   0018D4  EE20 F008          	lfsr	2,8
  2431   0018D8  5171               	movf	RGB2Hue@cf& (0+255),w,b
  2432   0018DA  26D9               	addwf	fsr2l,f,c
  2433   0018DC  5172               	movf	(RGB2Hue@cf+1)& (0+255),w,b
  2434   0018DE  22DA               	addwfc	fsr2h,f,c
  2435   0018E0  CFDE F005          	movff	postinc2,___fleq@ff2
  2436   0018E4  CFDE F006          	movff	postinc2,___fleq@ff2+1
  2437   0018E8  CFDE F007          	movff	postinc2,___fleq@ff2+2
  2438   0018EC  CFDE F008          	movff	postinc2,___fleq@ff2+3
  2439   0018F0  EC41  F01F         	call	___fleq	;wreg free
  2440   0018F4  A0D8               	btfss	status,0,c
  2441   0018F6  EF7F  F00C         	goto	u4261
  2442   0018FA  EF81  F00C         	goto	u4260
  2443   0018FE                     u4261:
  2444   0018FE  EF92  F00C         	goto	l3844
  2445   001902                     u4260:
  2446   001902                     
  2447                           ;colorfunctions.c: 22:         cf->h=0;
  2448   001902  0100               	movlb	0	; () banked
  2449   001904  EE20 F010          	lfsr	2,16
  2450   001908  5171               	movf	RGB2Hue@cf& (0+255),w,b
  2451   00190A  26D9               	addwf	fsr2l,f,c
  2452   00190C  5172               	movf	(RGB2Hue@cf+1)& (0+255),w,b
  2453   00190E  22DA               	addwfc	fsr2h,f,c
  2454   001910  0E00               	movlw	0
  2455   001912  6EDE               	movwf	postinc2,c
  2456   001914  0E00               	movlw	0
  2457   001916  6EDE               	movwf	postinc2,c
  2458   001918  0E00               	movlw	0
  2459   00191A  6EDE               	movwf	postinc2,c
  2460   00191C  0E00               	movlw	0
  2461   00191E  6EDD               	movwf	postdec2,c
  2462                           
  2463                           ;colorfunctions.c: 23:     } else{
  2464   001920  EFCE  F00F         	goto	l63
  2465   001924                     l3844:
  2466                           
  2467                           ;colorfunctions.c: 25:         signed int min=0;
  2468   001924  0E00               	movlw	0
  2469   001926  0100               	movlb	0	; () banked
  2470   001928  6F7E               	movwf	(RGB2Hue@min+1)& (0+255),b
  2471   00192A  0E00               	movlw	0
  2472   00192C  6F7D               	movwf	RGB2Hue@min& (0+255),b
  2473   00192E                     
  2474                           ; BSR set to: 0
  2475                           ;colorfunctions.c: 27:         if ((cf->Rf < cf->Gf)&(cf->Rf < cf->Bf)){
  2476   00192E  C071  FFD9         	movff	RGB2Hue@cf,fsr2l
  2477   001932  C072  FFDA         	movff	RGB2Hue@cf+1,fsr2h
  2478   001936  CFDE F057          	movff	postinc2,___flge@ff1
  2479   00193A  CFDE F058          	movff	postinc2,___flge@ff1+1
  2480   00193E  CFDE F059          	movff	postinc2,___flge@ff1+2
  2481   001942  CFDE F05A          	movff	postinc2,___flge@ff1+3
  2482   001946  EE20 F004          	lfsr	2,4
  2483   00194A  5171               	movf	RGB2Hue@cf& (0+255),w,b
  2484   00194C  26D9               	addwf	fsr2l,f,c
  2485   00194E  5172               	movf	(RGB2Hue@cf+1)& (0+255),w,b
  2486   001950  22DA               	addwfc	fsr2h,f,c
  2487   001952  CFDE F05B          	movff	postinc2,___flge@ff2
  2488   001956  CFDE F05C          	movff	postinc2,___flge@ff2+1
  2489   00195A  CFDE F05D          	movff	postinc2,___flge@ff2+2
  2490   00195E  CFDE F05E          	movff	postinc2,___flge@ff2+3
  2491   001962  EC9C  F01C         	call	___flge	;wreg free
  2492   001966  B0D8               	btfsc	status,0,c
  2493   001968  EFB8  F00C         	goto	u4271
  2494   00196C  EFBA  F00C         	goto	u4270
  2495   001970                     u4271:
  2496   001970  EFF2  F00C         	goto	l3852
  2497   001974                     u4270:
  2498   001974  C071  FFD9         	movff	RGB2Hue@cf,fsr2l
  2499   001978  C072  FFDA         	movff	RGB2Hue@cf+1,fsr2h
  2500   00197C  CFDE F057          	movff	postinc2,___flge@ff1
  2501   001980  CFDE F058          	movff	postinc2,___flge@ff1+1
  2502   001984  CFDE F059          	movff	postinc2,___flge@ff1+2
  2503   001988  CFDE F05A          	movff	postinc2,___flge@ff1+3
  2504   00198C  0100               	movlb	0	; () banked
  2505   00198E  EE20 F008          	lfsr	2,8
  2506   001992  5171               	movf	RGB2Hue@cf& (0+255),w,b
  2507   001994  26D9               	addwf	fsr2l,f,c
  2508   001996  5172               	movf	(RGB2Hue@cf+1)& (0+255),w,b
  2509   001998  22DA               	addwfc	fsr2h,f,c
  2510   00199A  CFDE F05B          	movff	postinc2,___flge@ff2
  2511   00199E  CFDE F05C          	movff	postinc2,___flge@ff2+1
  2512   0019A2  CFDE F05D          	movff	postinc2,___flge@ff2+2
  2513   0019A6  CFDE F05E          	movff	postinc2,___flge@ff2+3
  2514   0019AA  EC9C  F01C         	call	___flge	;wreg free
  2515   0019AE  B0D8               	btfsc	status,0,c
  2516   0019B0  EFDC  F00C         	goto	u4281
  2517   0019B4  EFDE  F00C         	goto	u4280
  2518   0019B8                     u4281:
  2519   0019B8  EFF2  F00C         	goto	l3852
  2520   0019BC                     u4280:
  2521   0019BC                     
  2522                           ;colorfunctions.c: 28:             min=cf->Rf;
  2523   0019BC  C071  FFD9         	movff	RGB2Hue@cf,fsr2l
  2524   0019C0  C072  FFDA         	movff	RGB2Hue@cf+1,fsr2h
  2525   0019C4  CFDE F001          	movff	postinc2,___fltol@f1
  2526   0019C8  CFDE F002          	movff	postinc2,___fltol@f1+1
  2527   0019CC  CFDE F003          	movff	postinc2,___fltol@f1+2
  2528   0019D0  CFDE F004          	movff	postinc2,___fltol@f1+3
  2529   0019D4  EC19  F01C         	call	___fltol	;wreg free
  2530   0019D8  C001  F07D         	movff	?___fltol,RGB2Hue@min
  2531   0019DC  C002  F07E         	movff	?___fltol+1,RGB2Hue@min+1
  2532                           
  2533                           ;colorfunctions.c: 29:         } else if((cf->Gf < cf->Rf)&(cf->Gf < cf->Bf)){
  2534   0019E0  EF68  F00D         	goto	l55
  2535   0019E4                     l3852:
  2536   0019E4  0100               	movlb	0	; () banked
  2537   0019E6  EE20 F004          	lfsr	2,4
  2538   0019EA  5171               	movf	RGB2Hue@cf& (0+255),w,b
  2539   0019EC  26D9               	addwf	fsr2l,f,c
  2540   0019EE  5172               	movf	(RGB2Hue@cf+1)& (0+255),w,b
  2541   0019F0  22DA               	addwfc	fsr2h,f,c
  2542   0019F2  CFDE F057          	movff	postinc2,___flge@ff1
  2543   0019F6  CFDE F058          	movff	postinc2,___flge@ff1+1
  2544   0019FA  CFDE F059          	movff	postinc2,___flge@ff1+2
  2545   0019FE  CFDE F05A          	movff	postinc2,___flge@ff1+3
  2546   001A02  C071  FFD9         	movff	RGB2Hue@cf,fsr2l
  2547   001A06  C072  FFDA         	movff	RGB2Hue@cf+1,fsr2h
  2548   001A0A  CFDE F05B          	movff	postinc2,___flge@ff2
  2549   001A0E  CFDE F05C          	movff	postinc2,___flge@ff2+1
  2550   001A12  CFDE F05D          	movff	postinc2,___flge@ff2+2
  2551   001A16  CFDE F05E          	movff	postinc2,___flge@ff2+3
  2552   001A1A  EC9C  F01C         	call	___flge	;wreg free
  2553   001A1E  B0D8               	btfsc	status,0,c
  2554   001A20  EF14  F00D         	goto	u4291
  2555   001A24  EF16  F00D         	goto	u4290
  2556   001A28                     u4291:
  2557   001A28  EF53  F00D         	goto	l3858
  2558   001A2C                     u4290:
  2559   001A2C  0100               	movlb	0	; () banked
  2560   001A2E  EE20 F004          	lfsr	2,4
  2561   001A32  5171               	movf	RGB2Hue@cf& (0+255),w,b
  2562   001A34  26D9               	addwf	fsr2l,f,c
  2563   001A36  5172               	movf	(RGB2Hue@cf+1)& (0+255),w,b
  2564   001A38  22DA               	addwfc	fsr2h,f,c
  2565   001A3A  CFDE F057          	movff	postinc2,___flge@ff1
  2566   001A3E  CFDE F058          	movff	postinc2,___flge@ff1+1
  2567   001A42  CFDE F059          	movff	postinc2,___flge@ff1+2
  2568   001A46  CFDE F05A          	movff	postinc2,___flge@ff1+3
  2569   001A4A  EE20 F008          	lfsr	2,8
  2570   001A4E  5171               	movf	RGB2Hue@cf& (0+255),w,b
  2571   001A50  26D9               	addwf	fsr2l,f,c
  2572   001A52  5172               	movf	(RGB2Hue@cf+1)& (0+255),w,b
  2573   001A54  22DA               	addwfc	fsr2h,f,c
  2574   001A56  CFDE F05B          	movff	postinc2,___flge@ff2
  2575   001A5A  CFDE F05C          	movff	postinc2,___flge@ff2+1
  2576   001A5E  CFDE F05D          	movff	postinc2,___flge@ff2+2
  2577   001A62  CFDE F05E          	movff	postinc2,___flge@ff2+3
  2578   001A66  EC9C  F01C         	call	___flge	;wreg free
  2579   001A6A  B0D8               	btfsc	status,0,c
  2580   001A6C  EF3A  F00D         	goto	u4301
  2581   001A70  EF3C  F00D         	goto	u4300
  2582   001A74                     u4301:
  2583   001A74  EF53  F00D         	goto	l3858
  2584   001A78                     u4300:
  2585   001A78                     
  2586                           ;colorfunctions.c: 30:             min=cf->Gf;
  2587   001A78  0100               	movlb	0	; () banked
  2588   001A7A  EE20 F004          	lfsr	2,4
  2589   001A7E  5171               	movf	RGB2Hue@cf& (0+255),w,b
  2590   001A80  26D9               	addwf	fsr2l,f,c
  2591   001A82  5172               	movf	(RGB2Hue@cf+1)& (0+255),w,b
  2592   001A84  22DA               	addwfc	fsr2h,f,c
  2593   001A86  CFDE F001          	movff	postinc2,___fltol@f1
  2594   001A8A  CFDE F002          	movff	postinc2,___fltol@f1+1
  2595   001A8E  CFDE F003          	movff	postinc2,___fltol@f1+2
  2596   001A92  CFDE F004          	movff	postinc2,___fltol@f1+3
  2597   001A96  EC19  F01C         	call	___fltol	;wreg free
  2598   001A9A  C001  F07D         	movff	?___fltol,RGB2Hue@min
  2599   001A9E  C002  F07E         	movff	?___fltol+1,RGB2Hue@min+1
  2600                           
  2601                           ;colorfunctions.c: 31:         } else{
  2602   001AA2  EF68  F00D         	goto	l55
  2603   001AA6                     l3858:
  2604                           
  2605                           ;colorfunctions.c: 32:             min=cf->Bf;
  2606   001AA6  0100               	movlb	0	; () banked
  2607   001AA8  EE20 F008          	lfsr	2,8
  2608   001AAC  5171               	movf	RGB2Hue@cf& (0+255),w,b
  2609   001AAE  26D9               	addwf	fsr2l,f,c
  2610   001AB0  5172               	movf	(RGB2Hue@cf+1)& (0+255),w,b
  2611   001AB2  22DA               	addwfc	fsr2h,f,c
  2612   001AB4  CFDE F001          	movff	postinc2,___fltol@f1
  2613   001AB8  CFDE F002          	movff	postinc2,___fltol@f1+1
  2614   001ABC  CFDE F003          	movff	postinc2,___fltol@f1+2
  2615   001AC0  CFDE F004          	movff	postinc2,___fltol@f1+3
  2616   001AC4  EC19  F01C         	call	___fltol	;wreg free
  2617   001AC8  C001  F07D         	movff	?___fltol,RGB2Hue@min
  2618   001ACC  C002  F07E         	movff	?___fltol+1,RGB2Hue@min+1
  2619   001AD0                     l55:
  2620                           
  2621                           ;colorfunctions.c: 35:         if ((cf->Rf > cf->Gf)&(cf->Rf > cf->Bf)){
  2622   001AD0  0100               	movlb	0	; () banked
  2623   001AD2  EE20 F004          	lfsr	2,4
  2624   001AD6  5171               	movf	RGB2Hue@cf& (0+255),w,b
  2625   001AD8  26D9               	addwf	fsr2l,f,c
  2626   001ADA  5172               	movf	(RGB2Hue@cf+1)& (0+255),w,b
  2627   001ADC  22DA               	addwfc	fsr2h,f,c
  2628   001ADE  CFDE F057          	movff	postinc2,___flge@ff1
  2629   001AE2  CFDE F058          	movff	postinc2,___flge@ff1+1
  2630   001AE6  CFDE F059          	movff	postinc2,___flge@ff1+2
  2631   001AEA  CFDE F05A          	movff	postinc2,___flge@ff1+3
  2632   001AEE  C071  FFD9         	movff	RGB2Hue@cf,fsr2l
  2633   001AF2  C072  FFDA         	movff	RGB2Hue@cf+1,fsr2h
  2634   001AF6  CFDE F05B          	movff	postinc2,___flge@ff2
  2635   001AFA  CFDE F05C          	movff	postinc2,___flge@ff2+1
  2636   001AFE  CFDE F05D          	movff	postinc2,___flge@ff2+2
  2637   001B02  CFDE F05E          	movff	postinc2,___flge@ff2+3
  2638   001B06  EC9C  F01C         	call	___flge	;wreg free
  2639   001B0A  B0D8               	btfsc	status,0,c
  2640   001B0C  EF8A  F00D         	goto	u4311
  2641   001B10  EF8C  F00D         	goto	u4310
  2642   001B14                     u4311:
  2643   001B14  EF29  F00E         	goto	l3866
  2644   001B18                     u4310:
  2645   001B18  0100               	movlb	0	; () banked
  2646   001B1A  EE20 F008          	lfsr	2,8
  2647   001B1E  5171               	movf	RGB2Hue@cf& (0+255),w,b
  2648   001B20  26D9               	addwf	fsr2l,f,c
  2649   001B22  5172               	movf	(RGB2Hue@cf+1)& (0+255),w,b
  2650   001B24  22DA               	addwfc	fsr2h,f,c
  2651   001B26  CFDE F057          	movff	postinc2,___flge@ff1
  2652   001B2A  CFDE F058          	movff	postinc2,___flge@ff1+1
  2653   001B2E  CFDE F059          	movff	postinc2,___flge@ff1+2
  2654   001B32  CFDE F05A          	movff	postinc2,___flge@ff1+3
  2655   001B36  C071  FFD9         	movff	RGB2Hue@cf,fsr2l
  2656   001B3A  C072  FFDA         	movff	RGB2Hue@cf+1,fsr2h
  2657   001B3E  CFDE F05B          	movff	postinc2,___flge@ff2
  2658   001B42  CFDE F05C          	movff	postinc2,___flge@ff2+1
  2659   001B46  CFDE F05D          	movff	postinc2,___flge@ff2+2
  2660   001B4A  CFDE F05E          	movff	postinc2,___flge@ff2+3
  2661   001B4E  EC9C  F01C         	call	___flge	;wreg free
  2662   001B52  B0D8               	btfsc	status,0,c
  2663   001B54  EFAE  F00D         	goto	u4321
  2664   001B58  EFB0  F00D         	goto	u4320
  2665   001B5C                     u4321:
  2666   001B5C  EF29  F00E         	goto	l3866
  2667   001B60                     u4320:
  2668   001B60                     
  2669                           ;colorfunctions.c: 36:             max=(cf->Rf);
  2670   001B60  C071  FFD9         	movff	RGB2Hue@cf,fsr2l
  2671   001B64  C072  FFDA         	movff	RGB2Hue@cf+1,fsr2h
  2672   001B68  CFDE F001          	movff	postinc2,___fltol@f1
  2673   001B6C  CFDE F002          	movff	postinc2,___fltol@f1+1
  2674   001B70  CFDE F003          	movff	postinc2,___fltol@f1+2
  2675   001B74  CFDE F004          	movff	postinc2,___fltol@f1+3
  2676   001B78  EC19  F01C         	call	___fltol	;wreg free
  2677   001B7C  C001  F07B         	movff	?___fltol,RGB2Hue@max
  2678   001B80  C002  F07C         	movff	?___fltol+1,RGB2Hue@max+1
  2679   001B84                     
  2680                           ;colorfunctions.c: 39:             (cf->h)=60*(((cf->Gf)-(cf->Bf))/(max-min));
  2681   001B84  0100               	movlb	0	; () banked
  2682   001B86  517D               	movf	RGB2Hue@min& (0+255),w,b
  2683   001B88  5D7B               	subwf	RGB2Hue@max& (0+255),w,b
  2684   001B8A  6F73               	movwf	??_RGB2Hue& (0+255),b
  2685   001B8C  517E               	movf	(RGB2Hue@min+1)& (0+255),w,b
  2686   001B8E  597C               	subwfb	(RGB2Hue@max+1)& (0+255),w,b
  2687   001B90  6F74               	movwf	(??_RGB2Hue+1)& (0+255),b
  2688   001B92  C073  F00C         	movff	??_RGB2Hue,___xxtofl@val
  2689   001B96  C074  F00D         	movff	??_RGB2Hue+1,___xxtofl@val+1
  2690   001B9A  0E00               	movlw	0
  2691   001B9C  BE0D               	btfsc	(___xxtofl@val+1)^0,7,c
  2692   001B9E  0EFF               	movlw	-1
  2693   001BA0  6E0E               	movwf	(___xxtofl@val+2)^0,c
  2694   001BA2  6E0F               	movwf	(___xxtofl@val+3)^0,c
  2695   001BA4  0E01               	movlw	1
  2696   001BA6  ECA1  F01A         	call	___xxtofl
  2697   001BAA  C00C  F036         	movff	?___xxtofl,___fldiv@a
  2698   001BAE  C00D  F037         	movff	?___xxtofl+1,___fldiv@a+1
  2699   001BB2  C00E  F038         	movff	?___xxtofl+2,___fldiv@a+2
  2700   001BB6  C00F  F039         	movff	?___xxtofl+3,___fldiv@a+3
  2701   001BBA  0100               	movlb	0	; () banked
  2702   001BBC  EE20 F008          	lfsr	2,8
  2703   001BC0  5171               	movf	RGB2Hue@cf& (0+255),w,b
  2704   001BC2  26D9               	addwf	fsr2l,f,c
  2705   001BC4  5172               	movf	(RGB2Hue@cf+1)& (0+255),w,b
  2706   001BC6  22DA               	addwfc	fsr2h,f,c
  2707   001BC8  CFDE F02E          	movff	postinc2,___flsub@a
  2708   001BCC  CFDE F02F          	movff	postinc2,___flsub@a+1
  2709   001BD0  CFDE F030          	movff	postinc2,___flsub@a+2
  2710   001BD4  CFDE F031          	movff	postinc2,___flsub@a+3
  2711   001BD8  EE20 F004          	lfsr	2,4
  2712   001BDC  5171               	movf	RGB2Hue@cf& (0+255),w,b
  2713   001BDE  26D9               	addwf	fsr2l,f,c
  2714   001BE0  5172               	movf	(RGB2Hue@cf+1)& (0+255),w,b
  2715   001BE2  22DA               	addwfc	fsr2h,f,c
  2716   001BE4  CFDE F02A          	movff	postinc2,___flsub@b
  2717   001BE8  CFDE F02B          	movff	postinc2,___flsub@b+1
  2718   001BEC  CFDE F02C          	movff	postinc2,___flsub@b+2
  2719   001BF0  CFDE F02D          	movff	postinc2,___flsub@b+3
  2720   001BF4  EC7F  F021         	call	___flsub	;wreg free
  2721   001BF8  C02A  F032         	movff	?___flsub,___fldiv@b
  2722   001BFC  C02B  F033         	movff	?___flsub+1,___fldiv@b+1
  2723   001C00  C02C  F034         	movff	?___flsub+2,___fldiv@b+2
  2724   001C04  C02D  F035         	movff	?___flsub+3,___fldiv@b+3
  2725   001C08  EC3F  F016         	call	___fldiv	;wreg free
  2726   001C0C  C032  F04B         	movff	?___fldiv,___flmul@b
  2727   001C10  C033  F04C         	movff	?___fldiv+1,___flmul@b+1
  2728   001C14  C034  F04D         	movff	?___fldiv+2,___flmul@b+2
  2729   001C18  C035  F04E         	movff	?___fldiv+3,___flmul@b+3
  2730   001C1C  0E00               	movlw	0
  2731   001C1E  6E4F               	movwf	___flmul@a^0,c
  2732   001C20  0E00               	movlw	0
  2733   001C22  6E50               	movwf	(___flmul@a+1)^0,c
  2734   001C24  0E70               	movlw	112
  2735   001C26  6E51               	movwf	(___flmul@a+2)^0,c
  2736   001C28  0E42               	movlw	66
  2737   001C2A  6E52               	movwf	(___flmul@a+3)^0,c
  2738   001C2C  EC2F  F012         	call	___flmul	;wreg free
  2739   001C30  0100               	movlb	0	; () banked
  2740   001C32  EE20 F010          	lfsr	2,16
  2741   001C36  5171               	movf	RGB2Hue@cf& (0+255),w,b
  2742   001C38  26D9               	addwf	fsr2l,f,c
  2743   001C3A  5172               	movf	(RGB2Hue@cf+1)& (0+255),w,b
  2744   001C3C  22DA               	addwfc	fsr2h,f,c
  2745   001C3E  C04B  FFDE         	movff	?___flmul,postinc2
  2746   001C42  C04C  FFDE         	movff	?___flmul+1,postinc2
  2747   001C46  C04D  FFDE         	movff	?___flmul+2,postinc2
  2748   001C4A  C04E  FFDE         	movff	?___flmul+3,postinc2
  2749                           
  2750                           ;colorfunctions.c: 40:         } else if((cf->Gf > cf->Rf)&(cf->Gf > cf->Bf)){
  2751   001C4E  EF99  F00F         	goto	l3878
  2752   001C52                     l3866:
  2753   001C52  C071  FFD9         	movff	RGB2Hue@cf,fsr2l
  2754   001C56  C072  FFDA         	movff	RGB2Hue@cf+1,fsr2h
  2755   001C5A  CFDE F057          	movff	postinc2,___flge@ff1
  2756   001C5E  CFDE F058          	movff	postinc2,___flge@ff1+1
  2757   001C62  CFDE F059          	movff	postinc2,___flge@ff1+2
  2758   001C66  CFDE F05A          	movff	postinc2,___flge@ff1+3
  2759   001C6A  0100               	movlb	0	; () banked
  2760   001C6C  EE20 F004          	lfsr	2,4
  2761   001C70  5171               	movf	RGB2Hue@cf& (0+255),w,b
  2762   001C72  26D9               	addwf	fsr2l,f,c
  2763   001C74  5172               	movf	(RGB2Hue@cf+1)& (0+255),w,b
  2764   001C76  22DA               	addwfc	fsr2h,f,c
  2765   001C78  CFDE F05B          	movff	postinc2,___flge@ff2
  2766   001C7C  CFDE F05C          	movff	postinc2,___flge@ff2+1
  2767   001C80  CFDE F05D          	movff	postinc2,___flge@ff2+2
  2768   001C84  CFDE F05E          	movff	postinc2,___flge@ff2+3
  2769   001C88  EC9C  F01C         	call	___flge	;wreg free
  2770   001C8C  B0D8               	btfsc	status,0,c
  2771   001C8E  EF4B  F00E         	goto	u4331
  2772   001C92  EF4D  F00E         	goto	u4330
  2773   001C96                     u4331:
  2774   001C96  EF07  F00F         	goto	l3874
  2775   001C9A                     u4330:
  2776   001C9A  0100               	movlb	0	; () banked
  2777   001C9C  EE20 F008          	lfsr	2,8
  2778   001CA0  5171               	movf	RGB2Hue@cf& (0+255),w,b
  2779   001CA2  26D9               	addwf	fsr2l,f,c
  2780   001CA4  5172               	movf	(RGB2Hue@cf+1)& (0+255),w,b
  2781   001CA6  22DA               	addwfc	fsr2h,f,c
  2782   001CA8  CFDE F057          	movff	postinc2,___flge@ff1
  2783   001CAC  CFDE F058          	movff	postinc2,___flge@ff1+1
  2784   001CB0  CFDE F059          	movff	postinc2,___flge@ff1+2
  2785   001CB4  CFDE F05A          	movff	postinc2,___flge@ff1+3
  2786   001CB8  EE20 F004          	lfsr	2,4
  2787   001CBC  5171               	movf	RGB2Hue@cf& (0+255),w,b
  2788   001CBE  26D9               	addwf	fsr2l,f,c
  2789   001CC0  5172               	movf	(RGB2Hue@cf+1)& (0+255),w,b
  2790   001CC2  22DA               	addwfc	fsr2h,f,c
  2791   001CC4  CFDE F05B          	movff	postinc2,___flge@ff2
  2792   001CC8  CFDE F05C          	movff	postinc2,___flge@ff2+1
  2793   001CCC  CFDE F05D          	movff	postinc2,___flge@ff2+2
  2794   001CD0  CFDE F05E          	movff	postinc2,___flge@ff2+3
  2795   001CD4  EC9C  F01C         	call	___flge	;wreg free
  2796   001CD8  B0D8               	btfsc	status,0,c
  2797   001CDA  EF71  F00E         	goto	u4341
  2798   001CDE  EF73  F00E         	goto	u4340
  2799   001CE2                     u4341:
  2800   001CE2  EF07  F00F         	goto	l3874
  2801   001CE6                     u4340:
  2802   001CE6                     
  2803                           ;colorfunctions.c: 41:             max=cf->Gf;
  2804   001CE6  0100               	movlb	0	; () banked
  2805   001CE8  EE20 F004          	lfsr	2,4
  2806   001CEC  5171               	movf	RGB2Hue@cf& (0+255),w,b
  2807   001CEE  26D9               	addwf	fsr2l,f,c
  2808   001CF0  5172               	movf	(RGB2Hue@cf+1)& (0+255),w,b
  2809   001CF2  22DA               	addwfc	fsr2h,f,c
  2810   001CF4  CFDE F001          	movff	postinc2,___fltol@f1
  2811   001CF8  CFDE F002          	movff	postinc2,___fltol@f1+1
  2812   001CFC  CFDE F003          	movff	postinc2,___fltol@f1+2
  2813   001D00  CFDE F004          	movff	postinc2,___fltol@f1+3
  2814   001D04  EC19  F01C         	call	___fltol	;wreg free
  2815   001D08  C001  F07B         	movff	?___fltol,RGB2Hue@max
  2816   001D0C  C002  F07C         	movff	?___fltol+1,RGB2Hue@max+1
  2817                           
  2818                           ;colorfunctions.c: 42:             (cf->h)=60*(2+(((cf->Bf)-(cf->Rf))/(max-min)));
  2819   001D10  0100               	movlb	0	; () banked
  2820   001D12  517D               	movf	RGB2Hue@min& (0+255),w,b
  2821   001D14  5D7B               	subwf	RGB2Hue@max& (0+255),w,b
  2822   001D16  6F73               	movwf	??_RGB2Hue& (0+255),b
  2823   001D18  517E               	movf	(RGB2Hue@min+1)& (0+255),w,b
  2824   001D1A  597C               	subwfb	(RGB2Hue@max+1)& (0+255),w,b
  2825   001D1C  6F74               	movwf	(??_RGB2Hue+1)& (0+255),b
  2826   001D1E  C073  F00C         	movff	??_RGB2Hue,___xxtofl@val
  2827   001D22  C074  F00D         	movff	??_RGB2Hue+1,___xxtofl@val+1
  2828   001D26  0E00               	movlw	0
  2829   001D28  BE0D               	btfsc	(___xxtofl@val+1)^0,7,c
  2830   001D2A  0EFF               	movlw	-1
  2831   001D2C  6E0E               	movwf	(___xxtofl@val+2)^0,c
  2832   001D2E  6E0F               	movwf	(___xxtofl@val+3)^0,c
  2833   001D30  0E01               	movlw	1
  2834   001D32  ECA1  F01A         	call	___xxtofl
  2835   001D36  C00C  F036         	movff	?___xxtofl,___fldiv@a
  2836   001D3A  C00D  F037         	movff	?___xxtofl+1,___fldiv@a+1
  2837   001D3E  C00E  F038         	movff	?___xxtofl+2,___fldiv@a+2
  2838   001D42  C00F  F039         	movff	?___xxtofl+3,___fldiv@a+3
  2839   001D46  C071  FFD9         	movff	RGB2Hue@cf,fsr2l
  2840   001D4A  C072  FFDA         	movff	RGB2Hue@cf+1,fsr2h
  2841   001D4E  CFDE F02E          	movff	postinc2,___flsub@a
  2842   001D52  CFDE F02F          	movff	postinc2,___flsub@a+1
  2843   001D56  CFDE F030          	movff	postinc2,___flsub@a+2
  2844   001D5A  CFDE F031          	movff	postinc2,___flsub@a+3
  2845   001D5E  0100               	movlb	0	; () banked
  2846   001D60  EE20 F008          	lfsr	2,8
  2847   001D64  5171               	movf	RGB2Hue@cf& (0+255),w,b
  2848   001D66  26D9               	addwf	fsr2l,f,c
  2849   001D68  5172               	movf	(RGB2Hue@cf+1)& (0+255),w,b
  2850   001D6A  22DA               	addwfc	fsr2h,f,c
  2851   001D6C  CFDE F02A          	movff	postinc2,___flsub@b
  2852   001D70  CFDE F02B          	movff	postinc2,___flsub@b+1
  2853   001D74  CFDE F02C          	movff	postinc2,___flsub@b+2
  2854   001D78  CFDE F02D          	movff	postinc2,___flsub@b+3
  2855   001D7C  EC7F  F021         	call	___flsub	;wreg free
  2856   001D80  C02A  F032         	movff	?___flsub,___fldiv@b
  2857   001D84  C02B  F033         	movff	?___flsub+1,___fldiv@b+1
  2858   001D88  C02C  F034         	movff	?___flsub+2,___fldiv@b+2
  2859   001D8C  C02D  F035         	movff	?___flsub+3,___fldiv@b+3
  2860   001D90  EC3F  F016         	call	___fldiv	;wreg free
  2861   001D94  C032  F077         	movff	?___fldiv,_RGB2Hue$1724
  2862   001D98  C033  F078         	movff	?___fldiv+1,_RGB2Hue$1724+1
  2863   001D9C  C034  F079         	movff	?___fldiv+2,_RGB2Hue$1724+2
  2864   001DA0  C035  F07A         	movff	?___fldiv+3,_RGB2Hue$1724+3
  2865   001DA4                     
  2866                           ;colorfunctions.c: 42:             (cf->h)=60*(2+(((cf->Bf)-(cf->Rf))/(max-min)));
  2867   001DA4  0E00               	movlw	0
  2868   001DA6  6E1E               	movwf	___fladd@a^0,c
  2869   001DA8  0E00               	movlw	0
  2870   001DAA  6E1F               	movwf	(___fladd@a+1)^0,c
  2871   001DAC  0E00               	movlw	0
  2872   001DAE  6E20               	movwf	(___fladd@a+2)^0,c
  2873   001DB0  0E40               	movlw	64
  2874   001DB2  6E21               	movwf	(___fladd@a+3)^0,c
  2875   001DB4  C077  F01A         	movff	_RGB2Hue$1724,___fladd@b
  2876   001DB8  C078  F01B         	movff	_RGB2Hue$1724+1,___fladd@b+1
  2877   001DBC  C079  F01C         	movff	_RGB2Hue$1724+2,___fladd@b+2
  2878   001DC0  C07A  F01D         	movff	_RGB2Hue$1724+3,___fladd@b+3
  2879   001DC4  ECCF  F00F         	call	___fladd	;wreg free
  2880   001DC8  C01A  F04B         	movff	?___fladd,___flmul@b
  2881   001DCC  C01B  F04C         	movff	?___fladd+1,___flmul@b+1
  2882   001DD0  C01C  F04D         	movff	?___fladd+2,___flmul@b+2
  2883   001DD4  C01D  F04E         	movff	?___fladd+3,___flmul@b+3
  2884   001DD8  0E00               	movlw	0
  2885   001DDA  6E4F               	movwf	___flmul@a^0,c
  2886   001DDC  0E00               	movlw	0
  2887   001DDE  6E50               	movwf	(___flmul@a+1)^0,c
  2888   001DE0  0E70               	movlw	112
  2889   001DE2  6E51               	movwf	(___flmul@a+2)^0,c
  2890   001DE4  0E42               	movlw	66
  2891   001DE6  6E52               	movwf	(___flmul@a+3)^0,c
  2892   001DE8  EC2F  F012         	call	___flmul	;wreg free
  2893   001DEC  0100               	movlb	0	; () banked
  2894   001DEE  EE20 F010          	lfsr	2,16
  2895   001DF2  5171               	movf	RGB2Hue@cf& (0+255),w,b
  2896   001DF4  26D9               	addwf	fsr2l,f,c
  2897   001DF6  5172               	movf	(RGB2Hue@cf+1)& (0+255),w,b
  2898   001DF8  22DA               	addwfc	fsr2h,f,c
  2899   001DFA  C04B  FFDE         	movff	?___flmul,postinc2
  2900   001DFE  C04C  FFDE         	movff	?___flmul+1,postinc2
  2901   001E02  C04D  FFDE         	movff	?___flmul+2,postinc2
  2902   001E06  C04E  FFDE         	movff	?___flmul+3,postinc2
  2903                           
  2904                           ;colorfunctions.c: 43:         }else{
  2905   001E0A  EF99  F00F         	goto	l3878
  2906   001E0E                     l3874:
  2907                           
  2908                           ;colorfunctions.c: 44:             max=cf->Bf;
  2909   001E0E  0100               	movlb	0	; () banked
  2910   001E10  EE20 F008          	lfsr	2,8
  2911   001E14  5171               	movf	RGB2Hue@cf& (0+255),w,b
  2912   001E16  26D9               	addwf	fsr2l,f,c
  2913   001E18  5172               	movf	(RGB2Hue@cf+1)& (0+255),w,b
  2914   001E1A  22DA               	addwfc	fsr2h,f,c
  2915   001E1C  CFDE F001          	movff	postinc2,___fltol@f1
  2916   001E20  CFDE F002          	movff	postinc2,___fltol@f1+1
  2917   001E24  CFDE F003          	movff	postinc2,___fltol@f1+2
  2918   001E28  CFDE F004          	movff	postinc2,___fltol@f1+3
  2919   001E2C  EC19  F01C         	call	___fltol	;wreg free
  2920   001E30  C001  F07B         	movff	?___fltol,RGB2Hue@max
  2921   001E34  C002  F07C         	movff	?___fltol+1,RGB2Hue@max+1
  2922                           
  2923                           ;colorfunctions.c: 45:             (cf->h)=60*(4+(((cf->Rf)-(cf->Gf))/(max-min)));
  2924   001E38  0100               	movlb	0	; () banked
  2925   001E3A  517D               	movf	RGB2Hue@min& (0+255),w,b
  2926   001E3C  5D7B               	subwf	RGB2Hue@max& (0+255),w,b
  2927   001E3E  6F73               	movwf	??_RGB2Hue& (0+255),b
  2928   001E40  517E               	movf	(RGB2Hue@min+1)& (0+255),w,b
  2929   001E42  597C               	subwfb	(RGB2Hue@max+1)& (0+255),w,b
  2930   001E44  6F74               	movwf	(??_RGB2Hue+1)& (0+255),b
  2931   001E46  C073  F00C         	movff	??_RGB2Hue,___xxtofl@val
  2932   001E4A  C074  F00D         	movff	??_RGB2Hue+1,___xxtofl@val+1
  2933   001E4E  0E00               	movlw	0
  2934   001E50  BE0D               	btfsc	(___xxtofl@val+1)^0,7,c
  2935   001E52  0EFF               	movlw	-1
  2936   001E54  6E0E               	movwf	(___xxtofl@val+2)^0,c
  2937   001E56  6E0F               	movwf	(___xxtofl@val+3)^0,c
  2938   001E58  0E01               	movlw	1
  2939   001E5A  ECA1  F01A         	call	___xxtofl
  2940   001E5E  C00C  F036         	movff	?___xxtofl,___fldiv@a
  2941   001E62  C00D  F037         	movff	?___xxtofl+1,___fldiv@a+1
  2942   001E66  C00E  F038         	movff	?___xxtofl+2,___fldiv@a+2
  2943   001E6A  C00F  F039         	movff	?___xxtofl+3,___fldiv@a+3
  2944   001E6E  0100               	movlb	0	; () banked
  2945   001E70  EE20 F004          	lfsr	2,4
  2946   001E74  5171               	movf	RGB2Hue@cf& (0+255),w,b
  2947   001E76  26D9               	addwf	fsr2l,f,c
  2948   001E78  5172               	movf	(RGB2Hue@cf+1)& (0+255),w,b
  2949   001E7A  22DA               	addwfc	fsr2h,f,c
  2950   001E7C  CFDE F02E          	movff	postinc2,___flsub@a
  2951   001E80  CFDE F02F          	movff	postinc2,___flsub@a+1
  2952   001E84  CFDE F030          	movff	postinc2,___flsub@a+2
  2953   001E88  CFDE F031          	movff	postinc2,___flsub@a+3
  2954   001E8C  C071  FFD9         	movff	RGB2Hue@cf,fsr2l
  2955   001E90  C072  FFDA         	movff	RGB2Hue@cf+1,fsr2h
  2956   001E94  CFDE F02A          	movff	postinc2,___flsub@b
  2957   001E98  CFDE F02B          	movff	postinc2,___flsub@b+1
  2958   001E9C  CFDE F02C          	movff	postinc2,___flsub@b+2
  2959   001EA0  CFDE F02D          	movff	postinc2,___flsub@b+3
  2960   001EA4  EC7F  F021         	call	___flsub	;wreg free
  2961   001EA8  C02A  F032         	movff	?___flsub,___fldiv@b
  2962   001EAC  C02B  F033         	movff	?___flsub+1,___fldiv@b+1
  2963   001EB0  C02C  F034         	movff	?___flsub+2,___fldiv@b+2
  2964   001EB4  C02D  F035         	movff	?___flsub+3,___fldiv@b+3
  2965   001EB8  EC3F  F016         	call	___fldiv	;wreg free
  2966   001EBC  C032  F077         	movff	?___fldiv,_RGB2Hue$1724
  2967   001EC0  C033  F078         	movff	?___fldiv+1,_RGB2Hue$1724+1
  2968   001EC4  C034  F079         	movff	?___fldiv+2,_RGB2Hue$1724+2
  2969   001EC8  C035  F07A         	movff	?___fldiv+3,_RGB2Hue$1724+3
  2970   001ECC                     
  2971                           ;colorfunctions.c: 45:             (cf->h)=60*(4+(((cf->Rf)-(cf->Gf))/(max-min)));
  2972   001ECC  0E00               	movlw	0
  2973   001ECE  6E1E               	movwf	___fladd@a^0,c
  2974   001ED0  0E00               	movlw	0
  2975   001ED2  6E1F               	movwf	(___fladd@a+1)^0,c
  2976   001ED4  0E80               	movlw	128
  2977   001ED6  6E20               	movwf	(___fladd@a+2)^0,c
  2978   001ED8  0E40               	movlw	64
  2979   001EDA  6E21               	movwf	(___fladd@a+3)^0,c
  2980   001EDC  C077  F01A         	movff	_RGB2Hue$1724,___fladd@b
  2981   001EE0  C078  F01B         	movff	_RGB2Hue$1724+1,___fladd@b+1
  2982   001EE4  C079  F01C         	movff	_RGB2Hue$1724+2,___fladd@b+2
  2983   001EE8  C07A  F01D         	movff	_RGB2Hue$1724+3,___fladd@b+3
  2984   001EEC  ECCF  F00F         	call	___fladd	;wreg free
  2985   001EF0  C01A  F04B         	movff	?___fladd,___flmul@b
  2986   001EF4  C01B  F04C         	movff	?___fladd+1,___flmul@b+1
  2987   001EF8  C01C  F04D         	movff	?___fladd+2,___flmul@b+2
  2988   001EFC  C01D  F04E         	movff	?___fladd+3,___flmul@b+3
  2989   001F00  0E00               	movlw	0
  2990   001F02  6E4F               	movwf	___flmul@a^0,c
  2991   001F04  0E00               	movlw	0
  2992   001F06  6E50               	movwf	(___flmul@a+1)^0,c
  2993   001F08  0E70               	movlw	112
  2994   001F0A  6E51               	movwf	(___flmul@a+2)^0,c
  2995   001F0C  0E42               	movlw	66
  2996   001F0E  6E52               	movwf	(___flmul@a+3)^0,c
  2997   001F10  EC2F  F012         	call	___flmul	;wreg free
  2998   001F14  0100               	movlb	0	; () banked
  2999   001F16  EE20 F010          	lfsr	2,16
  3000   001F1A  5171               	movf	RGB2Hue@cf& (0+255),w,b
  3001   001F1C  26D9               	addwf	fsr2l,f,c
  3002   001F1E  5172               	movf	(RGB2Hue@cf+1)& (0+255),w,b
  3003   001F20  22DA               	addwfc	fsr2h,f,c
  3004   001F22  C04B  FFDE         	movff	?___flmul,postinc2
  3005   001F26  C04C  FFDE         	movff	?___flmul+1,postinc2
  3006   001F2A  C04D  FFDE         	movff	?___flmul+2,postinc2
  3007   001F2E  C04E  FFDE         	movff	?___flmul+3,postinc2
  3008   001F32                     l3878:
  3009                           
  3010                           ; BSR set to: 0
  3011                           ;colorfunctions.c: 47:         if (cf->h < 0){
  3012   001F32  EE20 F010          	lfsr	2,16
  3013   001F36  5171               	movf	RGB2Hue@cf& (0+255),w,b
  3014   001F38  26D9               	addwf	fsr2l,f,c
  3015   001F3A  5172               	movf	(RGB2Hue@cf+1)& (0+255),w,b
  3016   001F3C  22DA               	addwfc	fsr2h,f,c
  3017   001F3E  0E03               	movlw	3
  3018   001F40  BEDB               	btfsc	plusw2,7,c
  3019   001F42  EFA7  F00F         	goto	u4350
  3020   001F46  EFA5  F00F         	goto	u4351
  3021   001F4A                     u4351:
  3022   001F4A  EFCE  F00F         	goto	l63
  3023   001F4E                     u4350:
  3024   001F4E                     
  3025                           ; BSR set to: 0
  3026                           ;colorfunctions.c: 48:             cf->h= cf->h +360;
  3027   001F4E  EE20 F010          	lfsr	2,16
  3028   001F52  5171               	movf	RGB2Hue@cf& (0+255),w,b
  3029   001F54  26D9               	addwf	fsr2l,f,c
  3030   001F56  5172               	movf	(RGB2Hue@cf+1)& (0+255),w,b
  3031   001F58  22DA               	addwfc	fsr2h,f,c
  3032   001F5A  CFDE F01A          	movff	postinc2,___fladd@b
  3033   001F5E  CFDE F01B          	movff	postinc2,___fladd@b+1
  3034   001F62  CFDE F01C          	movff	postinc2,___fladd@b+2
  3035   001F66  CFDE F01D          	movff	postinc2,___fladd@b+3
  3036   001F6A  0E00               	movlw	0
  3037   001F6C  6E1E               	movwf	___fladd@a^0,c
  3038   001F6E  0E00               	movlw	0
  3039   001F70  6E1F               	movwf	(___fladd@a+1)^0,c
  3040   001F72  0EB4               	movlw	180
  3041   001F74  6E20               	movwf	(___fladd@a+2)^0,c
  3042   001F76  0E43               	movlw	67
  3043   001F78  6E21               	movwf	(___fladd@a+3)^0,c
  3044   001F7A  ECCF  F00F         	call	___fladd	;wreg free
  3045   001F7E  0100               	movlb	0	; () banked
  3046   001F80  EE20 F010          	lfsr	2,16
  3047   001F84  5171               	movf	RGB2Hue@cf& (0+255),w,b
  3048   001F86  26D9               	addwf	fsr2l,f,c
  3049   001F88  5172               	movf	(RGB2Hue@cf+1)& (0+255),w,b
  3050   001F8A  22DA               	addwfc	fsr2h,f,c
  3051   001F8C  C01A  FFDE         	movff	?___fladd,postinc2
  3052   001F90  C01B  FFDE         	movff	?___fladd+1,postinc2
  3053   001F94  C01C  FFDE         	movff	?___fladd+2,postinc2
  3054   001F98  C01D  FFDE         	movff	?___fladd+3,postinc2
  3055   001F9C                     l63:
  3056                           
  3057                           ; BSR set to: 0
  3058   001F9C  0012               	return		;funcret
  3059   001F9E                     __end_of_RGB2Hue:
  3060                           	callstack 0
  3061                           
  3062 ;; *************** function ___xxtofl *****************
  3063 ;; Defined at:
  3064 ;;		line 10 in file "C:\Program Files\Microchip\xc8\v2.40\pic\sources\c99\common\xxtofl.c"
  3065 ;; Parameters:    Size  Location     Type
  3066 ;;  sign            1    wreg     unsigned char 
  3067 ;;  val             4   11[COMRAM] long 
  3068 ;; Auto vars:     Size  Location     Type
  3069 ;;  sign            1   19[COMRAM] unsigned char 
  3070 ;;  arg             4   21[COMRAM] unsigned long 
  3071 ;;  exp             1   20[COMRAM] unsigned char 
  3072 ;; Return value:  Size  Location     Type
  3073 ;;                  4   11[COMRAM] unsigned char 
  3074 ;; Registers used:
  3075 ;;		wreg, status,2, status,0
  3076 ;; Tracked objects:
  3077 ;;		On entry : 0/0
  3078 ;;		On exit  : 0/0
  3079 ;;		Unchanged: 0/0
  3080 ;; Data sizes:     COMRAM   BANK0   BANK1   BANK2   BANK3   BANK4   BANK5   BANK6   BANK7   BANK8   BANK9  BANK10  BANK1
      +1  BANK12  BANK13
  3081 ;;      Params:         4       0       0       0       0       0       0       0       0       0       0       0       
      +0       0       0
  3082 ;;      Locals:         6       0       0       0       0       0       0       0       0       0       0       0       
      +0       0       0
  3083 ;;      Temps:          4       0       0       0       0       0       0       0       0       0       0       0       
      +0       0       0
  3084 ;;      Totals:        14       0       0       0       0       0       0       0       0       0       0       0       
      +0       0       0
  3085 ;;Total ram usage:       14 bytes
  3086 ;; Hardware stack levels used: 1
  3087 ;; This function calls:
  3088 ;;		Nothing
  3089 ;; This function is called by:
  3090 ;;		_colour_read_all
  3091 ;;		_RGB2Hue
  3092 ;; This function uses a non-reentrant model
  3093 ;;
  3094                           
  3095                           	psect	text17
  3096   003542                     __ptext17:
  3097                           	callstack 0
  3098   003542                     ___xxtofl:
  3099                           	callstack 29
  3100                           
  3101                           ; BSR set to: 0
  3102                           ;incstack = 0
  3103                           ;___xxtofl@sign stored from wreg
  3104   003542  6E14               	movwf	___xxtofl@sign^0,c
  3105   003544  5014               	movf	___xxtofl@sign^0,w,c
  3106   003546  B4D8               	btfsc	status,2,c
  3107   003548  EFA8  F01A         	goto	u4151
  3108   00354C  EFAA  F01A         	goto	u4150
  3109   003550                     u4151:
  3110   003550  EFCC  F01A         	goto	l881
  3111   003554                     u4150:
  3112   003554  BE0F               	btfsc	(___xxtofl@val+3)^0,7,c
  3113   003556  EFB1  F01A         	goto	u4160
  3114   00355A  EFAF  F01A         	goto	u4161
  3115   00355E                     u4161:
  3116   00355E  EFCC  F01A         	goto	l881
  3117   003562                     u4160:
  3118   003562  C00C  F010         	movff	___xxtofl@val,??___xxtofl
  3119   003566  C00D  F011         	movff	___xxtofl@val+1,??___xxtofl+1
  3120   00356A  C00E  F012         	movff	___xxtofl@val+2,??___xxtofl+2
  3121   00356E  C00F  F013         	movff	___xxtofl@val+3,??___xxtofl+3
  3122   003572  1E10               	comf	??___xxtofl^0,f,c
  3123   003574  1E11               	comf	(??___xxtofl+1)^0,f,c
  3124   003576  1E12               	comf	(??___xxtofl+2)^0,f,c
  3125   003578  1E13               	comf	(??___xxtofl+3)^0,f,c
  3126   00357A  2A10               	incf	??___xxtofl^0,f,c
  3127   00357C  0E00               	movlw	0
  3128   00357E  2211               	addwfc	(??___xxtofl+1)^0,f,c
  3129   003580  2212               	addwfc	(??___xxtofl+2)^0,f,c
  3130   003582  2213               	addwfc	(??___xxtofl+3)^0,f,c
  3131   003584  C010  F016         	movff	??___xxtofl,___xxtofl@arg
  3132   003588  C011  F017         	movff	??___xxtofl+1,___xxtofl@arg+1
  3133   00358C  C012  F018         	movff	??___xxtofl+2,___xxtofl@arg+2
  3134   003590  C013  F019         	movff	??___xxtofl+3,___xxtofl@arg+3
  3135   003594  EFD4  F01A         	goto	l3778
  3136   003598                     l881:
  3137   003598  C00C  F016         	movff	___xxtofl@val,___xxtofl@arg
  3138   00359C  C00D  F017         	movff	___xxtofl@val+1,___xxtofl@arg+1
  3139   0035A0  C00E  F018         	movff	___xxtofl@val+2,___xxtofl@arg+2
  3140   0035A4  C00F  F019         	movff	___xxtofl@val+3,___xxtofl@arg+3
  3141   0035A8                     l3778:
  3142   0035A8  500C               	movf	___xxtofl@val^0,w,c
  3143   0035AA  100D               	iorwf	(___xxtofl@val+1)^0,w,c
  3144   0035AC  100E               	iorwf	(___xxtofl@val+2)^0,w,c
  3145   0035AE  100F               	iorwf	(___xxtofl@val+3)^0,w,c
  3146   0035B0  A4D8               	btfss	status,2,c
  3147   0035B2  EFDD  F01A         	goto	u4171
  3148   0035B6  EFDF  F01A         	goto	u4170
  3149   0035BA                     u4171:
  3150   0035BA  EFE9  F01A         	goto	l3784
  3151   0035BE                     u4170:
  3152   0035BE  0E00               	movlw	0
  3153   0035C0  6E0C               	movwf	?___xxtofl^0,c
  3154   0035C2  0E00               	movlw	0
  3155   0035C4  6E0D               	movwf	(?___xxtofl+1)^0,c
  3156   0035C6  0E00               	movlw	0
  3157   0035C8  6E0E               	movwf	(?___xxtofl+2)^0,c
  3158   0035CA  0E00               	movlw	0
  3159   0035CC  6E0F               	movwf	(?___xxtofl+3)^0,c
  3160   0035CE  EF7A  F01B         	goto	l884
  3161   0035D2                     l3784:
  3162   0035D2  0E96               	movlw	150
  3163   0035D4  6E15               	movwf	___xxtofl@exp^0,c
  3164   0035D6  EFF3  F01A         	goto	l3788
  3165   0035DA                     l3786:
  3166   0035DA  2A15               	incf	___xxtofl@exp^0,f,c
  3167   0035DC  90D8               	bcf	status,0,c
  3168   0035DE  3219               	rrcf	(___xxtofl@arg+3)^0,f,c
  3169   0035E0  3218               	rrcf	(___xxtofl@arg+2)^0,f,c
  3170   0035E2  3217               	rrcf	(___xxtofl@arg+1)^0,f,c
  3171   0035E4  3216               	rrcf	___xxtofl@arg^0,f,c
  3172   0035E6                     l3788:
  3173   0035E6  0E00               	movlw	0
  3174   0035E8  1416               	andwf	___xxtofl@arg^0,w,c
  3175   0035EA  6E10               	movwf	??___xxtofl^0,c
  3176   0035EC  0E00               	movlw	0
  3177   0035EE  1417               	andwf	(___xxtofl@arg+1)^0,w,c
  3178   0035F0  6E11               	movwf	(??___xxtofl+1)^0,c
  3179   0035F2  0E00               	movlw	0
  3180   0035F4  1418               	andwf	(___xxtofl@arg+2)^0,w,c
  3181   0035F6  6E12               	movwf	(??___xxtofl+2)^0,c
  3182   0035F8  0EFE               	movlw	254
  3183   0035FA  1419               	andwf	(___xxtofl@arg+3)^0,w,c
  3184   0035FC  6E13               	movwf	(??___xxtofl+3)^0,c
  3185   0035FE  5010               	movf	??___xxtofl^0,w,c
  3186   003600  1011               	iorwf	(??___xxtofl+1)^0,w,c
  3187   003602  1012               	iorwf	(??___xxtofl+2)^0,w,c
  3188   003604  1013               	iorwf	(??___xxtofl+3)^0,w,c
  3189   003606  A4D8               	btfss	status,2,c
  3190   003608  EF08  F01B         	goto	u4181
  3191   00360C  EF0A  F01B         	goto	u4180
  3192   003610                     u4181:
  3193   003610  EFED  F01A         	goto	l3786
  3194   003614                     u4180:
  3195   003614  EF18  F01B         	goto	l888
  3196   003618                     l3790:
  3197   003618  2A15               	incf	___xxtofl@exp^0,f,c
  3198   00361A  0E01               	movlw	1
  3199   00361C  2616               	addwf	___xxtofl@arg^0,f,c
  3200   00361E  0E00               	movlw	0
  3201   003620  2217               	addwfc	(___xxtofl@arg+1)^0,f,c
  3202   003622  2218               	addwfc	(___xxtofl@arg+2)^0,f,c
  3203   003624  2219               	addwfc	(___xxtofl@arg+3)^0,f,c
  3204   003626  90D8               	bcf	status,0,c
  3205   003628  3219               	rrcf	(___xxtofl@arg+3)^0,f,c
  3206   00362A  3218               	rrcf	(___xxtofl@arg+2)^0,f,c
  3207   00362C  3217               	rrcf	(___xxtofl@arg+1)^0,f,c
  3208   00362E  3216               	rrcf	___xxtofl@arg^0,f,c
  3209   003630                     l888:
  3210   003630  0E00               	movlw	0
  3211   003632  1416               	andwf	___xxtofl@arg^0,w,c
  3212   003634  6E10               	movwf	??___xxtofl^0,c
  3213   003636  0E00               	movlw	0
  3214   003638  1417               	andwf	(___xxtofl@arg+1)^0,w,c
  3215   00363A  6E11               	movwf	(??___xxtofl+1)^0,c
  3216   00363C  0E00               	movlw	0
  3217   00363E  1418               	andwf	(___xxtofl@arg+2)^0,w,c
  3218   003640  6E12               	movwf	(??___xxtofl+2)^0,c
  3219   003642  0EFF               	movlw	255
  3220   003644  1419               	andwf	(___xxtofl@arg+3)^0,w,c
  3221   003646  6E13               	movwf	(??___xxtofl+3)^0,c
  3222   003648  5010               	movf	??___xxtofl^0,w,c
  3223   00364A  1011               	iorwf	(??___xxtofl+1)^0,w,c
  3224   00364C  1012               	iorwf	(??___xxtofl+2)^0,w,c
  3225   00364E  1013               	iorwf	(??___xxtofl+3)^0,w,c
  3226   003650  A4D8               	btfss	status,2,c
  3227   003652  EF2D  F01B         	goto	u4191
  3228   003656  EF2F  F01B         	goto	u4190
  3229   00365A                     u4191:
  3230   00365A  EF0C  F01B         	goto	l3790
  3231   00365E                     u4190:
  3232   00365E  EF37  F01B         	goto	l3798
  3233   003662                     l3796:
  3234   003662  0615               	decf	___xxtofl@exp^0,f,c
  3235   003664  90D8               	bcf	status,0,c
  3236   003666  3616               	rlcf	___xxtofl@arg^0,f,c
  3237   003668  3617               	rlcf	(___xxtofl@arg+1)^0,f,c
  3238   00366A  3618               	rlcf	(___xxtofl@arg+2)^0,f,c
  3239   00366C  3619               	rlcf	(___xxtofl@arg+3)^0,f,c
  3240   00366E                     l3798:
  3241   00366E  BE18               	btfsc	(___xxtofl@arg+2)^0,7,c
  3242   003670  EF3C  F01B         	goto	u4201
  3243   003674  EF3E  F01B         	goto	u4200
  3244   003678                     u4201:
  3245   003678  EF46  F01B         	goto	l895
  3246   00367C                     u4200:
  3247   00367C  0E02               	movlw	2
  3248   00367E  6015               	cpfslt	___xxtofl@exp^0,c
  3249   003680  EF44  F01B         	goto	u4211
  3250   003684  EF46  F01B         	goto	u4210
  3251   003688                     u4211:
  3252   003688  EF31  F01B         	goto	l3796
  3253   00368C                     u4210:
  3254   00368C                     l895:
  3255   00368C  B015               	btfsc	___xxtofl@exp^0,0,c
  3256   00368E  EF4B  F01B         	goto	u4221
  3257   003692  EF4D  F01B         	goto	u4220
  3258   003696                     u4221:
  3259   003696  EF4E  F01B         	goto	l3804
  3260   00369A                     u4220:
  3261   00369A  9E18               	bcf	(___xxtofl@arg+2)^0,7,c
  3262   00369C                     l3804:
  3263   00369C  90D8               	bcf	status,0,c
  3264   00369E  3215               	rrcf	___xxtofl@exp^0,f,c
  3265   0036A0  C015  F010         	movff	___xxtofl@exp,??___xxtofl
  3266   0036A4  6A11               	clrf	(??___xxtofl+1)^0,c
  3267   0036A6  6A12               	clrf	(??___xxtofl+2)^0,c
  3268   0036A8  6A13               	clrf	(??___xxtofl+3)^0,c
  3269   0036AA  C010  F013         	movff	??___xxtofl,??___xxtofl+3
  3270   0036AE  6A12               	clrf	(??___xxtofl+2)^0,c
  3271   0036B0  6A11               	clrf	(??___xxtofl+1)^0,c
  3272   0036B2  6A10               	clrf	??___xxtofl^0,c
  3273   0036B4  5010               	movf	??___xxtofl^0,w,c
  3274   0036B6  1216               	iorwf	___xxtofl@arg^0,f,c
  3275   0036B8  5011               	movf	(??___xxtofl+1)^0,w,c
  3276   0036BA  1217               	iorwf	(___xxtofl@arg+1)^0,f,c
  3277   0036BC  5012               	movf	(??___xxtofl+2)^0,w,c
  3278   0036BE  1218               	iorwf	(___xxtofl@arg+2)^0,f,c
  3279   0036C0  5013               	movf	(??___xxtofl+3)^0,w,c
  3280   0036C2  1219               	iorwf	(___xxtofl@arg+3)^0,f,c
  3281   0036C4  5014               	movf	___xxtofl@sign^0,w,c
  3282   0036C6  B4D8               	btfsc	status,2,c
  3283   0036C8  EF68  F01B         	goto	u4231
  3284   0036CC  EF6A  F01B         	goto	u4230
  3285   0036D0                     u4231:
  3286   0036D0  EF72  F01B         	goto	l3814
  3287   0036D4                     u4230:
  3288   0036D4  BE0F               	btfsc	(___xxtofl@val+3)^0,7,c
  3289   0036D6  EF71  F01B         	goto	u4240
  3290   0036DA  EF6F  F01B         	goto	u4241
  3291   0036DE                     u4241:
  3292   0036DE  EF72  F01B         	goto	l3814
  3293   0036E2                     u4240:
  3294   0036E2  8E19               	bsf	(___xxtofl@arg+3)^0,7,c
  3295   0036E4                     l3814:
  3296   0036E4  C016  F00C         	movff	___xxtofl@arg,?___xxtofl
  3297   0036E8  C017  F00D         	movff	___xxtofl@arg+1,?___xxtofl+1
  3298   0036EC  C018  F00E         	movff	___xxtofl@arg+2,?___xxtofl+2
  3299   0036F0  C019  F00F         	movff	___xxtofl@arg+3,?___xxtofl+3
  3300   0036F4                     l884:
  3301   0036F4  0012               	return		;funcret
  3302   0036F6                     __end_of___xxtofl:
  3303                           	callstack 0
  3304                           
  3305 ;; *************** function _Color2String *****************
  3306 ;; Defined at:
  3307 ;;		line 39 in file "serial.c"
  3308 ;; Parameters:    Size  Location     Type
  3309 ;;  buf             2  134[BANK0 ] PTR unsigned char 
  3310 ;;		 -> main@data(80), 
  3311 ;;  cf              2  136[BANK0 ] PTR struct RGBC_rel
  3312 ;;		 -> colorf(20), 
  3313 ;; Auto vars:     Size  Location     Type
  3314 ;;  colourname      2  138[BANK0 ] PTR unsigned char 
  3315 ;;		 -> STR_16(10), STR_15(11), STR_14(7), STR_13(7), 
  3316 ;;		 -> STR_12(5), STR_11(9), STR_10(4), STR_9(1), 
  3317 ;; Return value:  Size  Location     Type
  3318 ;;                  1    wreg      void 
  3319 ;; Registers used:
  3320 ;;		wreg, fsr1l, fsr1h, fsr2l, fsr2h, status,2, status,0, tblptrl, tblptrh, tblptru, prodl, prodh, cstack
  3321 ;; Tracked objects:
  3322 ;;		On entry : 0/0
  3323 ;;		On exit  : 0/0
  3324 ;;		Unchanged: 0/0
  3325 ;; Data sizes:     COMRAM   BANK0   BANK1   BANK2   BANK3   BANK4   BANK5   BANK6   BANK7   BANK8   BANK9  BANK10  BANK1
      +1  BANK12  BANK13
  3326 ;;      Params:         0       4       0       0       0       0       0       0       0       0       0       0       
      +0       0       0
  3327 ;;      Locals:         0       2       0       0       0       0       0       0       0       0       0       0       
      +0       0       0
  3328 ;;      Temps:          0       0       0       0       0       0       0       0       0       0       0       0       
      +0       0       0
  3329 ;;      Totals:         0       6       0       0       0       0       0       0       0       0       0       0       
      +0       0       0
  3330 ;;Total ram usage:        6 bytes
  3331 ;; Hardware stack levels used: 1
  3332 ;; Hardware stack levels required when called: 8
  3333 ;; This function calls:
  3334 ;;		_Hue2Colour
  3335 ;;		_sendStringSerial4
  3336 ;;		_sprintf
  3337 ;; This function is called by:
  3338 ;;		_main
  3339 ;; This function uses a non-reentrant model
  3340 ;;
  3341                           
  3342                           	psect	text18
  3343   003DD6                     __ptext18:
  3344                           	callstack 0
  3345   003DD6                     _Color2String:
  3346                           	callstack 22
  3347   003DD6                     
  3348                           ;serial.c: 42:     char* colourname = Hue2Colour(cf);
  3349   003DD6  C0E8  F071         	movff	Color2String@cf,Hue2Colour@cf
  3350   003DDA  C0E9  F072         	movff	Color2String@cf+1,Hue2Colour@cf+1
  3351   003DDE  EC45  F014         	call	_Hue2Colour	;wreg free
  3352   003DE2  C071  F0EA         	movff	?_Hue2Colour,Color2String@colourname
  3353   003DE6  C072  F0EB         	movff	?_Hue2Colour+1,Color2String@colourname+1
  3354   003DEA                     
  3355                           ;serial.c: 43:     sprintf(buf,"Colour is %s Red %f Green,%f Blue,%f Hue %f \r",colourna
      +                          me,cf->Rf,
  3356   003DEA  C0E6  F0C3         	movff	Color2String@buf,sprintf@s
  3357   003DEE  C0E7  F0C4         	movff	Color2String@buf+1,sprintf@s+1
  3358   003DF2  0E01               	movlw	low STR_33
  3359   003DF4  0100               	movlb	0	; () banked
  3360   003DF6  6FC5               	movwf	sprintf@fmt& (0+255),b
  3361   003DF8  0E0E               	movlw	high STR_33
  3362   003DFA  6FC6               	movwf	(sprintf@fmt+1)& (0+255),b
  3363   003DFC  C0EA  F0C7         	movff	Color2String@colourname,?_sprintf+4
  3364   003E00  C0EB  F0C8         	movff	Color2String@colourname+1,?_sprintf+5
  3365   003E04  C0E8  FFD9         	movff	Color2String@cf,fsr2l
  3366   003E08  C0E9  FFDA         	movff	Color2String@cf+1,fsr2h
  3367   003E0C  CFDE F0C9          	movff	postinc2,?_sprintf+6
  3368   003E10  CFDE F0CA          	movff	postinc2,?_sprintf+7
  3369   003E14  CFDE F0CB          	movff	postinc2,?_sprintf+8
  3370   003E18  CFDE F0CC          	movff	postinc2,?_sprintf+9
  3371   003E1C  EE20 F004          	lfsr	2,4
  3372   003E20  51E8               	movf	Color2String@cf& (0+255),w,b
  3373   003E22  26D9               	addwf	fsr2l,f,c
  3374   003E24  51E9               	movf	(Color2String@cf+1)& (0+255),w,b
  3375   003E26  22DA               	addwfc	fsr2h,f,c
  3376   003E28  CFDE F0CD          	movff	postinc2,?_sprintf+10
  3377   003E2C  CFDE F0CE          	movff	postinc2,?_sprintf+11
  3378   003E30  CFDE F0CF          	movff	postinc2,?_sprintf+12
  3379   003E34  CFDE F0D0          	movff	postinc2,?_sprintf+13
  3380   003E38  EE20 F008          	lfsr	2,8
  3381   003E3C  51E8               	movf	Color2String@cf& (0+255),w,b
  3382   003E3E  26D9               	addwf	fsr2l,f,c
  3383   003E40  51E9               	movf	(Color2String@cf+1)& (0+255),w,b
  3384   003E42  22DA               	addwfc	fsr2h,f,c
  3385   003E44  CFDE F0D1          	movff	postinc2,?_sprintf+14
  3386   003E48  CFDE F0D2          	movff	postinc2,?_sprintf+15
  3387   003E4C  CFDE F0D3          	movff	postinc2,?_sprintf+16
  3388   003E50  CFDE F0D4          	movff	postinc2,?_sprintf+17
  3389   003E54  EE20 F010          	lfsr	2,16
  3390   003E58  51E8               	movf	Color2String@cf& (0+255),w,b
  3391   003E5A  26D9               	addwf	fsr2l,f,c
  3392   003E5C  51E9               	movf	(Color2String@cf+1)& (0+255),w,b
  3393   003E5E  22DA               	addwfc	fsr2h,f,c
  3394   003E60  CFDE F0D5          	movff	postinc2,?_sprintf+18
  3395   003E64  CFDE F0D6          	movff	postinc2,?_sprintf+19
  3396   003E68  CFDE F0D7          	movff	postinc2,?_sprintf+20
  3397   003E6C  CFDE F0D8          	movff	postinc2,?_sprintf+21
  3398   003E70  EC66  F020         	call	_sprintf	;wreg free
  3399   003E74                     
  3400                           ;serial.c: 45:     sendStringSerial4(buf);
  3401   003E74  C0E6  F002         	movff	Color2String@buf,sendStringSerial4@string
  3402   003E78  C0E7  F003         	movff	Color2String@buf+1,sendStringSerial4@string+1
  3403   003E7C  EC61  F022         	call	_sendStringSerial4	;wreg free
  3404   003E80  0012               	return		;funcret
  3405   003E82                     __end_of_Color2String:
  3406                           	callstack 0
  3407                           
  3408 ;; *************** function _sprintf *****************
  3409 ;; Defined at:
  3410 ;;		line 9 in file "C:\Program Files\Microchip\xc8\v2.40\pic\sources\c99\common\nf_sprintf.c"
  3411 ;; Parameters:    Size  Location     Type
  3412 ;;  s               2   99[BANK0 ] PTR unsigned char 
  3413 ;;		 -> main@data(80), 
  3414 ;;  fmt             2  101[BANK0 ] PTR const unsigned char 
  3415 ;;		 -> STR_33(46), 
  3416 ;; Auto vars:     Size  Location     Type
  3417 ;;  f              11  123[BANK0 ] struct _IO_FILE
  3418 ;;  ap              2  121[BANK0 ] PTR void [1]
  3419 ;;		 -> ?_sprintf(2), 
  3420 ;;  ret             2    0        int 
  3421 ;; Return value:  Size  Location     Type
  3422 ;;                  2   99[BANK0 ] int 
  3423 ;; Registers used:
  3424 ;;		wreg, fsr1l, fsr1h, fsr2l, fsr2h, status,2, status,0, tblptrl, tblptrh, tblptru, prodl, prodh, cstack
  3425 ;; Tracked objects:
  3426 ;;		On entry : 0/0
  3427 ;;		On exit  : 0/0
  3428 ;;		Unchanged: 0/0
  3429 ;; Data sizes:     COMRAM   BANK0   BANK1   BANK2   BANK3   BANK4   BANK5   BANK6   BANK7   BANK8   BANK9  BANK10  BANK1
      +1  BANK12  BANK13
  3430 ;;      Params:         0      22       0       0       0       0       0       0       0       0       0       0       
      +0       0       0
  3431 ;;      Locals:         0      13       0       0       0       0       0       0       0       0       0       0       
      +0       0       0
  3432 ;;      Temps:          0       0       0       0       0       0       0       0       0       0       0       0       
      +0       0       0
  3433 ;;      Totals:         0      35       0       0       0       0       0       0       0       0       0       0       
      +0       0       0
  3434 ;;Total ram usage:       35 bytes
  3435 ;; Hardware stack levels used: 1
  3436 ;; Hardware stack levels required when called: 7
  3437 ;; This function calls:
  3438 ;;		_vfprintf
  3439 ;; This function is called by:
  3440 ;;		_Color2String
  3441 ;; This function uses a non-reentrant model
  3442 ;;
  3443                           
  3444                           	psect	text19
  3445   0040CC                     __ptext19:
  3446                           	callstack 0
  3447   0040CC                     _sprintf:
  3448                           	callstack 22
  3449   0040CC  0EC7               	movlw	low (?_sprintf+4)
  3450   0040CE  0100               	movlb	0	; () banked
  3451   0040D0  6FD9               	movwf	sprintf@ap& (0+255),b
  3452   0040D2  0E00               	movlw	high (?_sprintf+4)
  3453   0040D4  6FDA               	movwf	(sprintf@ap+1)& (0+255),b
  3454   0040D6  C0C3  F0DB         	movff	sprintf@s,sprintf@f
  3455   0040DA  C0C4  F0DC         	movff	sprintf@s+1,sprintf@f+1
  3456   0040DE                     
  3457                           ; BSR set to: 0
  3458   0040DE  0E00               	movlw	0
  3459   0040E0  6FDF               	movwf	(sprintf@f+4)& (0+255),b
  3460   0040E2  0E00               	movlw	0
  3461   0040E4  6FDE               	movwf	(sprintf@f+3)& (0+255),b
  3462   0040E6                     
  3463                           ; BSR set to: 0
  3464   0040E6  0E00               	movlw	0
  3465   0040E8  6FE5               	movwf	(sprintf@f+10)& (0+255),b
  3466   0040EA  0E00               	movlw	0
  3467   0040EC  6FE4               	movwf	(sprintf@f+9)& (0+255),b
  3468   0040EE                     
  3469                           ; BSR set to: 0
  3470   0040EE  0EDB               	movlw	low sprintf@f
  3471   0040F0  6FBB               	movwf	vfprintf@fp& (0+255),b
  3472   0040F2  0E00               	movlw	high sprintf@f
  3473   0040F4  6FBC               	movwf	(vfprintf@fp+1)& (0+255),b
  3474   0040F6  C0C5  F0BD         	movff	sprintf@fmt,vfprintf@fmt
  3475   0040FA  C0C6  F0BE         	movff	sprintf@fmt+1,vfprintf@fmt+1
  3476   0040FE  0ED9               	movlw	low sprintf@ap
  3477   004100  6FBF               	movwf	vfprintf@ap& (0+255),b
  3478   004102  0E00               	movlw	high sprintf@ap
  3479   004104  6FC0               	movwf	(vfprintf@ap+1)& (0+255),b
  3480   004106  EC3B  F020         	call	_vfprintf	;wreg free
  3481   00410A  0100               	movlb	0	; () banked
  3482   00410C  51DE               	movf	(sprintf@f+3)& (0+255),w,b
  3483   00410E  25C3               	addwf	sprintf@s& (0+255),w,b
  3484   004110  6ED9               	movwf	fsr2l,c
  3485   004112  51DF               	movf	(sprintf@f+4)& (0+255),w,b
  3486   004114  21C4               	addwfc	(sprintf@s+1)& (0+255),w,b
  3487   004116  6EDA               	movwf	fsr2h,c
  3488   004118  0E00               	movlw	0
  3489   00411A  6EDF               	movwf	indf2,c
  3490   00411C                     
  3491                           ; BSR set to: 0
  3492   00411C  0012               	return		;funcret
  3493   00411E                     __end_of_sprintf:
  3494                           	callstack 0
  3495                           
  3496 ;; *************** function _vfprintf *****************
  3497 ;; Defined at:
  3498 ;;		line 1520 in file "C:\Program Files\Microchip\xc8\v2.40\pic\sources\c99\common\doprnt.c"
  3499 ;; Parameters:    Size  Location     Type
  3500 ;;  fp              2   91[BANK0 ] PTR struct _IO_FILE
  3501 ;;		 -> sprintf@f(11), 
  3502 ;;  fmt             2   93[BANK0 ] PTR const unsigned char 
  3503 ;;		 -> STR_33(46), 
  3504 ;;  ap              2   95[BANK0 ] PTR PTR void 
  3505 ;;		 -> sprintf@ap(2), 
  3506 ;; Auto vars:     Size  Location     Type
  3507 ;;  cfmt            2   97[BANK0 ] PTR unsigned char 
  3508 ;;		 -> STR_33(46), 
  3509 ;; Return value:  Size  Location     Type
  3510 ;;                  2   91[BANK0 ] int 
  3511 ;; Registers used:
  3512 ;;		wreg, fsr1l, fsr1h, fsr2l, fsr2h, status,2, status,0, tblptrl, tblptrh, tblptru, prodl, prodh, cstack
  3513 ;; Tracked objects:
  3514 ;;		On entry : 0/0
  3515 ;;		On exit  : 0/0
  3516 ;;		Unchanged: 0/0
  3517 ;; Data sizes:     COMRAM   BANK0   BANK1   BANK2   BANK3   BANK4   BANK5   BANK6   BANK7   BANK8   BANK9  BANK10  BANK1
      +1  BANK12  BANK13
  3518 ;;      Params:         0       6       0       0       0       0       0       0       0       0       0       0       
      +0       0       0
  3519 ;;      Locals:         0       2       0       0       0       0       0       0       0       0       0       0       
      +0       0       0
  3520 ;;      Temps:          0       0       0       0       0       0       0       0       0       0       0       0       
      +0       0       0
  3521 ;;      Totals:         0       8       0       0       0       0       0       0       0       0       0       0       
      +0       0       0
  3522 ;;Total ram usage:        8 bytes
  3523 ;; Hardware stack levels used: 1
  3524 ;; Hardware stack levels required when called: 6
  3525 ;; This function calls:
  3526 ;;		_vfpfcnvrt
  3527 ;; This function is called by:
  3528 ;;		_sprintf
  3529 ;; This function uses a non-reentrant model
  3530 ;;
  3531                           
  3532                           	psect	text20
  3533   004076                     __ptext20:
  3534                           	callstack 0
  3535   004076                     _vfprintf:
  3536                           	callstack 22
  3537   004076                     
  3538                           ;C:\Program Files\Microchip\xc8\v2.40\pic\sources\c99\common\doprnt.c: 1520: int vfprint
      +                          f(FILE *fp, const char *fmt, va_list ap);C:\Program Files\Microchip\xc8\v2.40\pic\source
      +                          s\c99\common\doprnt.c: 1521: {;C:\Program Files\Microchip\xc8\v2.40\pic\sources\c99\comm
      +                          on\doprnt.c: 1523:     char *cfmt;;C:\Program Files\Microchip\xc8\v2.40\pic\sources\c99\
      +                          common\doprnt.c: 1525:     cfmt = (char *)fmt;
  3539   004076  C0BD  F0C1         	movff	vfprintf@fmt,vfprintf@cfmt
  3540   00407A  C0BE  F0C2         	movff	vfprintf@fmt+1,vfprintf@cfmt+1
  3541                           
  3542                           ;C:\Program Files\Microchip\xc8\v2.40\pic\sources\c99\common\doprnt.c: 1529:     while (
      +                          *cfmt) {
  3543   00407E  EF50  F020         	goto	l3660
  3544   004082                     l3658:
  3545                           
  3546                           ;C:\Program Files\Microchip\xc8\v2.40\pic\sources\c99\common\doprnt.c: 1533:    vfpfcnvr
      +                          t(fp, &cfmt, ap);
  3547   004082  C0BB  F0A6         	movff	vfprintf@fp,vfpfcnvrt@fp
  3548   004086  C0BC  F0A7         	movff	vfprintf@fp+1,vfpfcnvrt@fp+1
  3549   00408A  0EC1               	movlw	low vfprintf@cfmt
  3550   00408C  0100               	movlb	0	; () banked
  3551   00408E  6FA8               	movwf	vfpfcnvrt@fmt& (0+255),b
  3552   004090  0E00               	movlw	high vfprintf@cfmt
  3553   004092  6FA9               	movwf	(vfpfcnvrt@fmt+1)& (0+255),b
  3554   004094  C0BF  F0AA         	movff	vfprintf@ap,vfpfcnvrt@ap
  3555   004098  C0C0  F0AB         	movff	vfprintf@ap+1,vfpfcnvrt@ap+1
  3556   00409C  EC0C  F018         	call	_vfpfcnvrt	;wreg free
  3557   0040A0                     l3660:
  3558                           
  3559                           ;C:\Program Files\Microchip\xc8\v2.40\pic\sources\c99\common\doprnt.c: 1529:     while (
      +                          *cfmt) {
  3560   0040A0  C0C1  FFF6         	movff	vfprintf@cfmt,tblptrl
  3561   0040A4  C0C2  FFF7         	movff	vfprintf@cfmt+1,tblptrh
  3562   0040A8                     	if	0	;tblptru may be non-zero
  3563   0040A8                     	endif
  3564   0040A8                     	if	1	;Program memory is > 0xFFFF, there are 3 active tblptr bytes
  3565   0040A8  0E00               	movlw	low (__mediumconst shr (0+16))
  3566   0040AA  6EF8               	movwf	tblptru,c
  3567   0040AC                     	endif
  3568   0040AC  0008               	tblrd		*
  3569   0040AE  50F5               	movf	tablat,w,c
  3570   0040B0  0900               	iorlw	0
  3571   0040B2  A4D8               	btfss	status,2,c
  3572   0040B4  EF5E  F020         	goto	u3991
  3573   0040B8  EF60  F020         	goto	u3990
  3574   0040BC                     u3991:
  3575   0040BC  EF41  F020         	goto	l3658
  3576   0040C0                     u3990:
  3577   0040C0                     
  3578                           ;C:\Program Files\Microchip\xc8\v2.40\pic\sources\c99\common\doprnt.c: 1538:  return 0;
  3579   0040C0  0E00               	movlw	0
  3580   0040C2  0100               	movlb	0	; () banked
  3581   0040C4  6FBC               	movwf	(?_vfprintf+1)& (0+255),b
  3582   0040C6  0E00               	movlw	0
  3583   0040C8  6FBB               	movwf	?_vfprintf& (0+255),b
  3584   0040CA                     
  3585                           ; BSR set to: 0
  3586   0040CA  0012               	return		;funcret
  3587   0040CC                     __end_of_vfprintf:
  3588                           	callstack 0
  3589                           
  3590 ;; *************** function _vfpfcnvrt *****************
  3591 ;; Defined at:
  3592 ;;		line 1007 in file "C:\Program Files\Microchip\xc8\v2.40\pic\sources\c99\common\doprnt.c"
  3593 ;; Parameters:    Size  Location     Type
  3594 ;;  fp              2   70[BANK0 ] PTR struct _IO_FILE
  3595 ;;		 -> sprintf@f(11), 
  3596 ;;  fmt             2   72[BANK0 ] PTR PTR unsigned char 
  3597 ;;		 -> vfprintf@cfmt(2), 
  3598 ;;  ap              2   74[BANK0 ] PTR PTR void 
  3599 ;;		 -> sprintf@ap(2), 
  3600 ;; Auto vars:     Size  Location     Type
  3601 ;;  convarg         8   78[BANK0 ] struct .
  3602 ;;  cp              2   89[BANK0 ] PTR unsigned char 
  3603 ;;		 -> STR_33(46), 
  3604 ;;  i               2    0        int 
  3605 ;;  done            2    0        int 
  3606 ;;  c               1   88[BANK0 ] unsigned char 
  3607 ;; Return value:  Size  Location     Type
  3608 ;;                  1    wreg      void 
  3609 ;; Registers used:
  3610 ;;		wreg, fsr1l, fsr1h, fsr2l, fsr2h, status,2, status,0, tblptrl, tblptrh, tblptru, prodl, prodh, cstack
  3611 ;; Tracked objects:
  3612 ;;		On entry : 0/0
  3613 ;;		On exit  : 0/0
  3614 ;;		Unchanged: 0/0
  3615 ;; Data sizes:     COMRAM   BANK0   BANK1   BANK2   BANK3   BANK4   BANK5   BANK6   BANK7   BANK8   BANK9  BANK10  BANK1
      +1  BANK12  BANK13
  3616 ;;      Params:         0       6       0       0       0       0       0       0       0       0       0       0       
      +0       0       0
  3617 ;;      Locals:         0      13       0       0       0       0       0       0       0       0       0       0       
      +0       0       0
  3618 ;;      Temps:          0       2       0       0       0       0       0       0       0       0       0       0       
      +0       0       0
  3619 ;;      Totals:         0      21       0       0       0       0       0       0       0       0       0       0       
      +0       0       0
  3620 ;;Total ram usage:       21 bytes
  3621 ;; Hardware stack levels used: 1
  3622 ;; Hardware stack levels required when called: 5
  3623 ;; This function calls:
  3624 ;;		_efgtoa
  3625 ;;		_fputc
  3626 ;;		_stoa
  3627 ;;		_strncmp
  3628 ;; This function is called by:
  3629 ;;		_vfprintf
  3630 ;; This function uses a non-reentrant model
  3631 ;;
  3632                           
  3633                           	psect	text21
  3634   003018                     __ptext21:
  3635                           	callstack 0
  3636   003018                     _vfpfcnvrt:
  3637                           	callstack 22
  3638   003018                     
  3639                           ;C:\Program Files\Microchip\xc8\v2.40\pic\sources\c99\common\doprnt.c: 1007: vfpfcnvrt(F
      +                          ILE *fp, char *fmt[], va_list ap);C:\Program Files\Microchip\xc8\v2.40\pic\sources\c99\c
      +                          ommon\doprnt.c: 1008: {;C:\Program Files\Microchip\xc8\v2.40\pic\sources\c99\common\dopr
      +                          nt.c: 1009:     char c, *cp;;C:\Program Files\Microchip\xc8\v2.40\pic\sources\c99\common
      +                          \doprnt.c: 1010:     int done, i;;C:\Program Files\Microchip\xc8\v2.40\pic\sources\c99\c
      +                          ommon\doprnt.c: 1016:  } convarg;;C:\Program Files\Microchip\xc8\v2.40\pic\sources\c99\c
      +                          ommon\doprnt.c: 1019:     if ((*fmt)[0] == '%') {
  3640   003018  C0A8  FFD9         	movff	vfpfcnvrt@fmt,fsr2l
  3641   00301C  C0A9  FFDA         	movff	vfpfcnvrt@fmt+1,fsr2h
  3642   003020  CFDE FFF6          	movff	postinc2,tblptrl
  3643   003024  CFDD FFF7          	movff	postdec2,tblptrh
  3644   003028                     	if	0	;tblptru may be non-zero
  3645   003028                     	endif
  3646   003028                     	if	1	;Program memory is > 0xFFFF, there are 3 active tblptr bytes
  3647   003028  0E00               	movlw	low (__mediumconst shr (0+16))
  3648   00302A  6EF8               	movwf	tblptru,c
  3649   00302C                     	endif
  3650   00302C  0008               	tblrd		*
  3651   00302E  50F5               	movf	tablat,w,c
  3652   003030  0A25               	xorlw	37
  3653   003032  A4D8               	btfss	status,2,c
  3654   003034  EF1E  F018         	goto	u3911
  3655   003038  EF20  F018         	goto	u3910
  3656   00303C                     u3911:
  3657   00303C  EF81  F019         	goto	l3598
  3658   003040                     u3910:
  3659   003040                     
  3660                           ;C:\Program Files\Microchip\xc8\v2.40\pic\sources\c99\common\doprnt.c: 1020:         ++*
      +                          fmt;
  3661   003040  C0A8  FFD9         	movff	vfpfcnvrt@fmt,fsr2l
  3662   003044  C0A9  FFDA         	movff	vfpfcnvrt@fmt+1,fsr2h
  3663   003048  2ADE               	incf	postinc2,f,c
  3664   00304A  0E00               	movlw	0
  3665   00304C  22DD               	addwfc	postdec2,f,c
  3666   00304E                     
  3667                           ;C:\Program Files\Microchip\xc8\v2.40\pic\sources\c99\common\doprnt.c: 1022:         fla
      +                          gs = width = 0;
  3668   00304E  0E00               	movlw	0
  3669   003050  0100               	movlb	0	; () banked
  3670   003052  6FF7               	movwf	(_width+1)& (0+255),b
  3671   003054  0E00               	movlw	0
  3672   003056  6FF6               	movwf	_width& (0+255),b
  3673   003058  C0F6  F0FA         	movff	_width,_flags
  3674   00305C                     
  3675                           ; BSR set to: 0
  3676                           ;C:\Program Files\Microchip\xc8\v2.40\pic\sources\c99\common\doprnt.c: 1023:         pre
      +                          c = -1;
  3677   00305C  69F8               	setf	_prec& (0+255),b
  3678   00305E  69F9               	setf	(_prec+1)& (0+255),b
  3679   003060                     
  3680                           ; BSR set to: 0
  3681                           ;C:\Program Files\Microchip\xc8\v2.40\pic\sources\c99\common\doprnt.c: 1383:         if 
      +                          (*fmt[0] == 's' || !strncmp(*fmt, "lls", ((sizeof("lls")/sizeof("lls"[0]))-1))) {
  3682   003060  C0A8  FFD9         	movff	vfpfcnvrt@fmt,fsr2l
  3683   003064  C0A9  FFDA         	movff	vfpfcnvrt@fmt+1,fsr2h
  3684   003068  CFDE FFF6          	movff	postinc2,tblptrl
  3685   00306C  CFDD FFF7          	movff	postdec2,tblptrh
  3686   003070                     	if	0	;tblptru may be non-zero
  3687   003070                     	endif
  3688   003070                     	if	1	;Program memory is > 0xFFFF, there are 3 active tblptr bytes
  3689   003070  0E00               	movlw	low (__mediumconst shr (0+16))
  3690   003072  6EF8               	movwf	tblptru,c
  3691   003074                     	endif
  3692   003074  0008               	tblrd		*
  3693   003076  50F5               	movf	tablat,w,c
  3694   003078  0A73               	xorlw	115
  3695   00307A  B4D8               	btfsc	status,2,c
  3696   00307C  EF42  F018         	goto	u3921
  3697   003080  EF44  F018         	goto	u3920
  3698   003084                     u3921:
  3699   003084  EF5F  F018         	goto	l3548
  3700   003088                     u3920:
  3701   003088                     
  3702                           ; BSR set to: 0
  3703   003088  C0A8  FFD9         	movff	vfpfcnvrt@fmt,fsr2l
  3704   00308C  C0A9  FFDA         	movff	vfpfcnvrt@fmt+1,fsr2h
  3705   003090  CFDE F001          	movff	postinc2,strncmp@_l
  3706   003094  CFDD F002          	movff	postdec2,strncmp@_l+1
  3707   003098  0E6E               	movlw	low STR_40
  3708   00309A  6E03               	movwf	strncmp@_r^0,c
  3709   00309C  0E0E               	movlw	high STR_40
  3710   00309E  6E04               	movwf	(strncmp@_r+1)^0,c
  3711   0030A0  0E00               	movlw	0
  3712   0030A2  6E06               	movwf	(strncmp@n+1)^0,c
  3713   0030A4  0E03               	movlw	3
  3714   0030A6  6E05               	movwf	strncmp@n^0,c
  3715   0030A8  EC9E  F01D         	call	_strncmp	;wreg free
  3716   0030AC  5001               	movf	?_strncmp^0,w,c
  3717   0030AE  1002               	iorwf	(?_strncmp+1)^0,w,c
  3718   0030B0  A4D8               	btfss	status,2,c
  3719   0030B2  EF5D  F018         	goto	u3931
  3720   0030B6  EF5F  F018         	goto	u3930
  3721   0030BA                     u3931:
  3722   0030BA  EFA3  F018         	goto	l3560
  3723   0030BE                     u3930:
  3724   0030BE                     l3548:
  3725                           
  3726                           ;C:\Program Files\Microchip\xc8\v2.40\pic\sources\c99\common\doprnt.c: 1385:    *fmt += 
      +                          *fmt[0] == 's' ? 1 : ((sizeof("lls")/sizeof("lls"[0]))-1);
  3727   0030BE  C0A8  FFD9         	movff	vfpfcnvrt@fmt,fsr2l
  3728   0030C2  C0A9  FFDA         	movff	vfpfcnvrt@fmt+1,fsr2h
  3729   0030C6  CFDE FFF6          	movff	postinc2,tblptrl
  3730   0030CA  CFDD FFF7          	movff	postdec2,tblptrh
  3731   0030CE                     	if	0	;tblptru may be non-zero
  3732   0030CE                     	endif
  3733   0030CE                     	if	1	;Program memory is > 0xFFFF, there are 3 active tblptr bytes
  3734   0030CE  0E00               	movlw	low (__mediumconst shr (0+16))
  3735   0030D0  6EF8               	movwf	tblptru,c
  3736   0030D2                     	endif
  3737   0030D2  0008               	tblrd		*
  3738   0030D4  50F5               	movf	tablat,w,c
  3739   0030D6  0A73               	xorlw	115
  3740   0030D8  B4D8               	btfsc	status,2,c
  3741   0030DA  EF71  F018         	goto	u3941
  3742   0030DE  EF73  F018         	goto	u3940
  3743   0030E2                     u3941:
  3744   0030E2  EF7A  F018         	goto	l3552
  3745   0030E6                     u3940:
  3746   0030E6  0E00               	movlw	0
  3747   0030E8  0100               	movlb	0	; () banked
  3748   0030EA  6FB7               	movwf	(_vfpfcnvrt$1422+1)& (0+255),b
  3749   0030EC  0E03               	movlw	3
  3750   0030EE  6FB6               	movwf	_vfpfcnvrt$1422& (0+255),b
  3751   0030F0  EF7F  F018         	goto	l3554
  3752   0030F4                     l3552:
  3753   0030F4  0E00               	movlw	0
  3754   0030F6  0100               	movlb	0	; () banked
  3755   0030F8  6FB7               	movwf	(_vfpfcnvrt$1422+1)& (0+255),b
  3756   0030FA  0E01               	movlw	1
  3757   0030FC  6FB6               	movwf	_vfpfcnvrt$1422& (0+255),b
  3758   0030FE                     l3554:
  3759                           
  3760                           ; BSR set to: 0
  3761   0030FE  C0A8  FFD9         	movff	vfpfcnvrt@fmt,fsr2l
  3762   003102  C0A9  FFDA         	movff	vfpfcnvrt@fmt+1,fsr2h
  3763   003106  51B6               	movf	_vfpfcnvrt$1422& (0+255),w,b
  3764   003108  26DE               	addwf	postinc2,f,c
  3765   00310A  51B7               	movf	(_vfpfcnvrt$1422+1)& (0+255),w,b
  3766   00310C  22DD               	addwfc	postdec2,f,c
  3767   00310E                     
  3768                           ; BSR set to: 0
  3769                           ;C:\Program Files\Microchip\xc8\v2.40\pic\sources\c99\common\doprnt.c: 1386:            
      +                           return (void) stoa(fp, (*(char * *)__va_arg(*(char * **)ap, (char *)0)));;	Return value
      +                           of _vfpfcnvrt is never used
  3770   00310E  C0A6  F00A         	movff	vfpfcnvrt@fp,stoa@fp
  3771   003112  C0A7  F00B         	movff	vfpfcnvrt@fp+1,stoa@fp+1
  3772   003116  C0AA  FFD9         	movff	vfpfcnvrt@ap,fsr2l
  3773   00311A  C0AB  FFDA         	movff	vfpfcnvrt@ap+1,fsr2h
  3774   00311E  CFDF F0AC          	movff	indf2,??_vfpfcnvrt
  3775   003122  0E02               	movlw	2
  3776   003124  26DE               	addwf	postinc2,f,c
  3777   003126  CFDF F0AD          	movff	indf2,??_vfpfcnvrt+1
  3778   00312A  0E00               	movlw	0
  3779   00312C  22DD               	addwfc	postdec2,f,c
  3780   00312E  C0AC  FFD9         	movff	??_vfpfcnvrt,fsr2l
  3781   003132  C0AD  FFDA         	movff	??_vfpfcnvrt+1,fsr2h
  3782   003136  CFDE F00C          	movff	postinc2,stoa@s
  3783   00313A  CFDD F00D          	movff	postdec2,stoa@s+1
  3784   00313E  EC7B  F01B         	call	_stoa	;wreg free
  3785   003142  EF97  F019         	goto	l1023
  3786   003146                     l3560:
  3787                           
  3788                           ;C:\Program Files\Microchip\xc8\v2.40\pic\sources\c99\common\doprnt.c: 1392:   cp = *fmt
      +                          ;
  3789   003146  C0A8  FFD9         	movff	vfpfcnvrt@fmt,fsr2l
  3790   00314A  C0A9  FFDA         	movff	vfpfcnvrt@fmt+1,fsr2h
  3791   00314E  CFDE F0B9          	movff	postinc2,vfpfcnvrt@cp
  3792   003152  CFDD F0BA          	movff	postdec2,vfpfcnvrt@cp+1
  3793   003156                     
  3794                           ;C:\Program Files\Microchip\xc8\v2.40\pic\sources\c99\common\doprnt.c: 1393:   c = *cp;
  3795   003156  C0B9  FFF6         	movff	vfpfcnvrt@cp,tblptrl
  3796   00315A  C0BA  FFF7         	movff	vfpfcnvrt@cp+1,tblptrh
  3797   00315E                     	if	0	;tblptru may be non-zero
  3798   00315E                     	endif
  3799   00315E                     	if	1	;Program memory is > 0xFFFF, there are 3 active tblptr bytes
  3800   00315E  0E00               	movlw	low (__mediumconst shr (0+16))
  3801   003160  6EF8               	movwf	tblptru,c
  3802   003162                     	endif
  3803   003162  0008               	tblrd		*
  3804   003164  CFF5 F0B8          	movff	tablat,vfpfcnvrt@c
  3805                           
  3806                           ;C:\Program Files\Microchip\xc8\v2.40\pic\sources\c99\common\doprnt.c: 1394:   switch(c)
      +                           {
  3807   003168  EFC2  F018         	goto	l3572
  3808   00316C                     l3564:
  3809                           
  3810                           ; BSR set to: 0
  3811                           ;C:\Program Files\Microchip\xc8\v2.40\pic\sources\c99\common\doprnt.c: 1398:     cp++;
  3812   00316C  4BB9               	infsnz	vfpfcnvrt@cp& (0+255),f,b
  3813   00316E  2BBA               	incf	(vfpfcnvrt@cp+1)& (0+255),f,b
  3814                           
  3815                           ;C:\Program Files\Microchip\xc8\v2.40\pic\sources\c99\common\doprnt.c: 1399:     break;
  3816   003170  EFDC  F018         	goto	l3574
  3817   003174                     l3566:
  3818                           
  3819                           ; BSR set to: 0
  3820                           ;C:\Program Files\Microchip\xc8\v2.40\pic\sources\c99\common\doprnt.c: 1424:     c = 'l'
      +                          ;
  3821   003174  0E6C               	movlw	108
  3822   003176  6FB8               	movwf	vfpfcnvrt@c& (0+255),b
  3823                           
  3824                           ;C:\Program Files\Microchip\xc8\v2.40\pic\sources\c99\common\doprnt.c: 1425:     break;
  3825   003178  EFDC  F018         	goto	l3574
  3826   00317C                     l3568:
  3827                           
  3828                           ; BSR set to: 0
  3829                           ;C:\Program Files\Microchip\xc8\v2.40\pic\sources\c99\common\doprnt.c: 1427:     c = 0;
  3830   00317C  0E00               	movlw	0
  3831   00317E  6FB8               	movwf	vfpfcnvrt@c& (0+255),b
  3832                           
  3833                           ;C:\Program Files\Microchip\xc8\v2.40\pic\sources\c99\common\doprnt.c: 1428:     break;
  3834   003180  EFDC  F018         	goto	l3574
  3835   003184                     l3572:
  3836   003184  0100               	movlb	0	; () banked
  3837   003186  51B8               	movf	vfpfcnvrt@c& (0+255),w,b
  3838   003188  6FAC               	movwf	??_vfpfcnvrt& (0+255),b
  3839   00318A  6BAD               	clrf	(??_vfpfcnvrt+1)& (0+255),b
  3840                           
  3841                           ; Switch on 2 bytes has been partitioned into a top level switch of size 1, and 1 sub-sw
      +                          itches
  3842                           ; Switch size 1, requested type "simple"
  3843                           ; Number of cases is 1, Range of values is 0 to 0
  3844                           ; switch strategies available:
  3845                           ; Name         Instructions Cycles
  3846                           ; simple_byte            4     3 (average)
  3847                           ;	Chosen strategy is simple_byte
  3848   00318C  51AD               	movf	(??_vfpfcnvrt+1)& (0+255),w,b
  3849   00318E  0A00               	xorlw	0	; case 0
  3850   003190  B4D8               	btfsc	status,2,c
  3851   003192  EFCD  F018         	goto	l4018
  3852   003196  EFBE  F018         	goto	l3568
  3853   00319A                     l4018:
  3854                           
  3855                           ; BSR set to: 0
  3856                           ; Switch size 1, requested type "simple"
  3857                           ; Number of cases is 3, Range of values is 76 to 108
  3858                           ; switch strategies available:
  3859                           ; Name         Instructions Cycles
  3860                           ; simple_byte           10     6 (average)
  3861                           ;	Chosen strategy is simple_byte
  3862   00319A  51AC               	movf	??_vfpfcnvrt& (0+255),w,b
  3863   00319C  0A4C               	xorlw	76	; case 76
  3864   00319E  B4D8               	btfsc	status,2,c
  3865   0031A0  EFB6  F018         	goto	l3564
  3866   0031A4  0A2A               	xorlw	42	; case 102
  3867   0031A6  B4D8               	btfsc	status,2,c
  3868   0031A8  EFBA  F018         	goto	l3566
  3869   0031AC  0A0A               	xorlw	10	; case 108
  3870   0031AE  B4D8               	btfsc	status,2,c
  3871   0031B0  EFB6  F018         	goto	l3564
  3872   0031B4  EFBE  F018         	goto	l3568
  3873   0031B8                     l3574:
  3874                           
  3875                           ; BSR set to: 0
  3876   0031B8  C0B9  FFF6         	movff	vfpfcnvrt@cp,tblptrl
  3877   0031BC  C0BA  FFF7         	movff	vfpfcnvrt@cp+1,tblptrh
  3878   0031C0                     	if	0	;tblptru may be non-zero
  3879   0031C0                     	endif
  3880   0031C0                     	if	1	;Program memory is > 0xFFFF, there are 3 active tblptr bytes
  3881   0031C0  0E00               	movlw	low (__mediumconst shr (0+16))
  3882   0031C2  6EF8               	movwf	tblptru,c
  3883   0031C4                     	endif
  3884   0031C4  0008               	tblrd		*
  3885   0031C6  50F5               	movf	tablat,w,c
  3886   0031C8  0A66               	xorlw	102
  3887   0031CA  A4D8               	btfss	status,2,c
  3888   0031CC  EFEA  F018         	goto	u3951
  3889   0031D0  EFEC  F018         	goto	u3950
  3890   0031D4                     u3951:
  3891   0031D4  EF78  F019         	goto	l3594
  3892   0031D8                     u3950:
  3893   0031D8  EF22  F019         	goto	l3582
  3894   0031DC                     l3576:
  3895                           
  3896                           ; BSR set to: 0
  3897                           ;C:\Program Files\Microchip\xc8\v2.40\pic\sources\c99\common\doprnt.c: 1459:      convar
      +                          g.f = (long double)(*(double *)__va_arg(*(double **)ap, (double)0));
  3898   0031DC  C0AA  FFD9         	movff	vfpfcnvrt@ap,fsr2l
  3899   0031E0  C0AB  FFDA         	movff	vfpfcnvrt@ap+1,fsr2h
  3900   0031E4  CFDF F0AC          	movff	indf2,??_vfpfcnvrt
  3901   0031E8  0E04               	movlw	4
  3902   0031EA  26DE               	addwf	postinc2,f,c
  3903   0031EC  CFDF F0AD          	movff	indf2,??_vfpfcnvrt+1
  3904   0031F0  0E00               	movlw	0
  3905   0031F2  22DD               	addwfc	postdec2,f,c
  3906   0031F4  C0AC  FFD9         	movff	??_vfpfcnvrt,fsr2l
  3907   0031F8  C0AD  FFDA         	movff	??_vfpfcnvrt+1,fsr2h
  3908   0031FC  CFDE F0AE          	movff	postinc2,vfpfcnvrt@convarg
  3909   003200  CFDE F0AF          	movff	postinc2,vfpfcnvrt@convarg+1
  3910   003204  CFDE F0B0          	movff	postinc2,vfpfcnvrt@convarg+2
  3911   003208  CFDE F0B1          	movff	postinc2,vfpfcnvrt@convarg+3
  3912                           
  3913                           ;C:\Program Files\Microchip\xc8\v2.40\pic\sources\c99\common\doprnt.c: 1460:      break;
  3914   00320C  EF37  F019         	goto	l3584
  3915   003210                     l3578:
  3916                           
  3917                           ; BSR set to: 0
  3918                           ;C:\Program Files\Microchip\xc8\v2.40\pic\sources\c99\common\doprnt.c: 1462:      convar
      +                          g.f = (long double)(*(long double *)__va_arg(*(long double **)ap, (long double)0));
  3919   003210  C0AA  FFD9         	movff	vfpfcnvrt@ap,fsr2l
  3920   003214  C0AB  FFDA         	movff	vfpfcnvrt@ap+1,fsr2h
  3921   003218  CFDF F0AC          	movff	indf2,??_vfpfcnvrt
  3922   00321C  0E04               	movlw	4
  3923   00321E  26DE               	addwf	postinc2,f,c
  3924   003220  CFDF F0AD          	movff	indf2,??_vfpfcnvrt+1
  3925   003224  0E00               	movlw	0
  3926   003226  22DD               	addwfc	postdec2,f,c
  3927   003228  C0AC  FFD9         	movff	??_vfpfcnvrt,fsr2l
  3928   00322C  C0AD  FFDA         	movff	??_vfpfcnvrt+1,fsr2h
  3929   003230  CFDE F0AE          	movff	postinc2,vfpfcnvrt@convarg
  3930   003234  CFDE F0AF          	movff	postinc2,vfpfcnvrt@convarg+1
  3931   003238  CFDE F0B0          	movff	postinc2,vfpfcnvrt@convarg+2
  3932   00323C  CFDE F0B1          	movff	postinc2,vfpfcnvrt@convarg+3
  3933                           
  3934                           ;C:\Program Files\Microchip\xc8\v2.40\pic\sources\c99\common\doprnt.c: 1463:      break;
  3935   003240  EF37  F019         	goto	l3584
  3936   003244                     l3582:
  3937                           
  3938                           ; BSR set to: 0
  3939   003244  51B8               	movf	vfpfcnvrt@c& (0+255),w,b
  3940   003246  6FAC               	movwf	??_vfpfcnvrt& (0+255),b
  3941   003248  6BAD               	clrf	(??_vfpfcnvrt+1)& (0+255),b
  3942                           
  3943                           ; Switch on 2 bytes has been partitioned into a top level switch of size 1, and 1 sub-sw
      +                          itches
  3944                           ; Switch size 1, requested type "simple"
  3945                           ; Number of cases is 1, Range of values is 0 to 0
  3946                           ; switch strategies available:
  3947                           ; Name         Instructions Cycles
  3948                           ; simple_byte            4     3 (average)
  3949                           ;	Chosen strategy is simple_byte
  3950   00324A  51AD               	movf	(??_vfpfcnvrt+1)& (0+255),w,b
  3951   00324C  0A00               	xorlw	0	; case 0
  3952   00324E  B4D8               	btfsc	status,2,c
  3953   003250  EF2C  F019         	goto	l4020
  3954   003254  EF37  F019         	goto	l3584
  3955   003258                     l4020:
  3956                           
  3957                           ; BSR set to: 0
  3958                           ; Switch size 1, requested type "simple"
  3959                           ; Number of cases is 2, Range of values is 76 to 108
  3960                           ; switch strategies available:
  3961                           ; Name         Instructions Cycles
  3962                           ; simple_byte            7     4 (average)
  3963                           ;	Chosen strategy is simple_byte
  3964   003258  51AC               	movf	??_vfpfcnvrt& (0+255),w,b
  3965   00325A  0A4C               	xorlw	76	; case 76
  3966   00325C  B4D8               	btfsc	status,2,c
  3967   00325E  EF08  F019         	goto	l3578
  3968   003262  0A20               	xorlw	32	; case 108
  3969   003264  B4D8               	btfsc	status,2,c
  3970   003266  EFEE  F018         	goto	l3576
  3971   00326A  EF37  F019         	goto	l3584
  3972   00326E                     l3584:
  3973                           
  3974                           ; BSR set to: 0
  3975                           ;C:\Program Files\Microchip\xc8\v2.40\pic\sources\c99\common\doprnt.c: 1465:    *fmt = c
      +                          p+1;
  3976   00326E  0E01               	movlw	1
  3977   003270  25B9               	addwf	vfpfcnvrt@cp& (0+255),w,b
  3978   003272  6FAC               	movwf	??_vfpfcnvrt& (0+255),b
  3979   003274  0E00               	movlw	0
  3980   003276  21BA               	addwfc	(vfpfcnvrt@cp+1)& (0+255),w,b
  3981   003278  6FAD               	movwf	(??_vfpfcnvrt+1)& (0+255),b
  3982   00327A  C0A8  FFD9         	movff	vfpfcnvrt@fmt,fsr2l
  3983   00327E  C0A9  FFDA         	movff	vfpfcnvrt@fmt+1,fsr2h
  3984   003282  C0AC  FFDE         	movff	??_vfpfcnvrt,postinc2
  3985   003286  C0AD  FFDD         	movff	??_vfpfcnvrt+1,postdec2
  3986                           
  3987                           ;C:\Program Files\Microchip\xc8\v2.40\pic\sources\c99\common\doprnt.c: 1466:    switch (
      +                          *cp) {
  3988   00328A  EF60  F019         	goto	l3592
  3989   00328E                     l3586:
  3990                           
  3991                           ; BSR set to: 0
  3992                           ;C:\Program Files\Microchip\xc8\v2.40\pic\sources\c99\common\doprnt.c: 1493:      return
      +                           (void) efgtoa(fp, convarg.f, *cp);;	Return value of _vfpfcnvrt is never used
  3993   00328E  C0A6  F071         	movff	vfpfcnvrt@fp,efgtoa@fp
  3994   003292  C0A7  F072         	movff	vfpfcnvrt@fp+1,efgtoa@fp+1
  3995   003296  C0AE  F073         	movff	vfpfcnvrt@convarg,efgtoa@f
  3996   00329A  C0AF  F074         	movff	vfpfcnvrt@convarg+1,efgtoa@f+1
  3997   00329E  C0B0  F075         	movff	vfpfcnvrt@convarg+2,efgtoa@f+2
  3998   0032A2  C0B1  F076         	movff	vfpfcnvrt@convarg+3,efgtoa@f+3
  3999   0032A6  C0B9  FFF6         	movff	vfpfcnvrt@cp,tblptrl
  4000   0032AA  C0BA  FFF7         	movff	vfpfcnvrt@cp+1,tblptrh
  4001   0032AE                     	if	0	;tblptru may be non-zero
  4002   0032AE                     	endif
  4003   0032AE                     	if	1	;Program memory is > 0xFFFF, there are 3 active tblptr bytes
  4004   0032AE  0E00               	movlw	low (__mediumconst shr (0+16))
  4005   0032B0  6EF8               	movwf	tblptru,c
  4006   0032B2                     	endif
  4007   0032B2  0008               	tblrd		*
  4008   0032B4  CFF5 F077          	movff	tablat,efgtoa@c
  4009   0032B8  EC3C  F007         	call	_efgtoa	;wreg free
  4010   0032BC  EF97  F019         	goto	l1023
  4011   0032C0                     l3592:
  4012                           
  4013                           ; BSR set to: 0
  4014   0032C0  C0B9  FFF6         	movff	vfpfcnvrt@cp,tblptrl
  4015   0032C4  C0BA  FFF7         	movff	vfpfcnvrt@cp+1,tblptrh
  4016   0032C8                     	if	0	;tblptru may be non-zero
  4017   0032C8                     	endif
  4018   0032C8                     	if	1	;Program memory is > 0xFFFF, there are 3 active tblptr bytes
  4019   0032C8  0E00               	movlw	low (__mediumconst shr (0+16))
  4020   0032CA  6EF8               	movwf	tblptru,c
  4021   0032CC                     	endif
  4022   0032CC  0008               	tblrd		*
  4023   0032CE  50F5               	movf	tablat,w,c
  4024   0032D0  6FAC               	movwf	??_vfpfcnvrt& (0+255),b
  4025   0032D2  6BAD               	clrf	(??_vfpfcnvrt+1)& (0+255),b
  4026                           
  4027                           ; Switch on 2 bytes has been partitioned into a top level switch of size 1, and 1 sub-sw
      +                          itches
  4028                           ; Switch size 1, requested type "simple"
  4029                           ; Number of cases is 1, Range of values is 0 to 0
  4030                           ; switch strategies available:
  4031                           ; Name         Instructions Cycles
  4032                           ; simple_byte            4     3 (average)
  4033                           ;	Chosen strategy is simple_byte
  4034   0032D4  51AD               	movf	(??_vfpfcnvrt+1)& (0+255),w,b
  4035   0032D6  0A00               	xorlw	0	; case 0
  4036   0032D8  B4D8               	btfsc	status,2,c
  4037   0032DA  EF71  F019         	goto	l4022
  4038   0032DE  EF78  F019         	goto	l3594
  4039   0032E2                     l4022:
  4040                           
  4041                           ; BSR set to: 0
  4042                           ; Switch size 1, requested type "simple"
  4043                           ; Number of cases is 1, Range of values is 102 to 102
  4044                           ; switch strategies available:
  4045                           ; Name         Instructions Cycles
  4046                           ; simple_byte            4     3 (average)
  4047                           ;	Chosen strategy is simple_byte
  4048   0032E2  51AC               	movf	??_vfpfcnvrt& (0+255),w,b
  4049   0032E4  0A66               	xorlw	102	; case 102
  4050   0032E6  B4D8               	btfsc	status,2,c
  4051   0032E8  EF47  F019         	goto	l3586
  4052   0032EC  EF78  F019         	goto	l3594
  4053   0032F0                     l3594:
  4054                           
  4055                           ;C:\Program Files\Microchip\xc8\v2.40\pic\sources\c99\common\doprnt.c: 1509:         ++*
      +                          fmt;
  4056   0032F0  C0A8  FFD9         	movff	vfpfcnvrt@fmt,fsr2l
  4057   0032F4  C0A9  FFDA         	movff	vfpfcnvrt@fmt+1,fsr2h
  4058   0032F8  2ADE               	incf	postinc2,f,c
  4059   0032FA  0E00               	movlw	0
  4060   0032FC  22DD               	addwfc	postdec2,f,c
  4061   0032FE  EF97  F019         	goto	l1023
  4062   003302                     l3598:
  4063                           
  4064                           ;C:\Program Files\Microchip\xc8\v2.40\pic\sources\c99\common\doprnt.c: 1514:     fputc((
      +                          int)(*fmt)[0], fp);
  4065   003302  C0A8  FFD9         	movff	vfpfcnvrt@fmt,fsr2l
  4066   003306  C0A9  FFDA         	movff	vfpfcnvrt@fmt+1,fsr2h
  4067   00330A  CFDE FFF6          	movff	postinc2,tblptrl
  4068   00330E  CFDD FFF7          	movff	postdec2,tblptrh
  4069   003312                     	if	0	;tblptru may be non-zero
  4070   003312                     	endif
  4071   003312                     	if	1	;Program memory is > 0xFFFF, there are 3 active tblptr bytes
  4072   003312  0E00               	movlw	low (__mediumconst shr (0+16))
  4073   003314  6EF8               	movwf	tblptru,c
  4074   003316                     	endif
  4075   003316  0008               	tblrd		*
  4076   003318  50F5               	movf	tablat,w,c
  4077   00331A  6E01               	movwf	fputc@c^0,c
  4078   00331C  6A02               	clrf	(fputc@c+1)^0,c
  4079   00331E  C0A6  F003         	movff	vfpfcnvrt@fp,fputc@fp
  4080   003322  C0A7  F004         	movff	vfpfcnvrt@fp+1,fputc@fp+1
  4081   003326  EC86  F01E         	call	_fputc	;wreg free
  4082   00332A  EF78  F019         	goto	l3594
  4083   00332E                     l1023:
  4084   00332E  0012               	return		;funcret
  4085   003330                     __end_of_vfpfcnvrt:
  4086                           	callstack 0
  4087                           
  4088 ;; *************** function _strncmp *****************
  4089 ;; Defined at:
  4090 ;;		line 3 in file "C:\Program Files\Microchip\xc8\v2.40\pic\sources\c99\common\strncmp.c"
  4091 ;; Parameters:    Size  Location     Type
  4092 ;;  _l              2    0[COMRAM] PTR const unsigned char 
  4093 ;;		 -> STR_33(46), 
  4094 ;;  _r              2    2[COMRAM] PTR const unsigned char 
  4095 ;;		 -> STR_42(4), 
  4096 ;;  n               2    4[COMRAM] unsigned int 
  4097 ;; Auto vars:     Size  Location     Type
  4098 ;;  r               2    9[COMRAM] PTR const unsigned char 
  4099 ;;		 -> STR_42(4), 
  4100 ;;  l               2    7[COMRAM] PTR const unsigned char 
  4101 ;;		 -> STR_33(46), 
  4102 ;; Return value:  Size  Location     Type
  4103 ;;                  2    0[COMRAM] int 
  4104 ;; Registers used:
  4105 ;;		wreg, status,2, status,0, tblptrl, tblptrh, tblptru
  4106 ;; Tracked objects:
  4107 ;;		On entry : 0/0
  4108 ;;		On exit  : 0/0
  4109 ;;		Unchanged: 0/0
  4110 ;; Data sizes:     COMRAM   BANK0   BANK1   BANK2   BANK3   BANK4   BANK5   BANK6   BANK7   BANK8   BANK9  BANK10  BANK1
      +1  BANK12  BANK13
  4111 ;;      Params:         6       0       0       0       0       0       0       0       0       0       0       0       
      +0       0       0
  4112 ;;      Locals:         4       0       0       0       0       0       0       0       0       0       0       0       
      +0       0       0
  4113 ;;      Temps:          1       0       0       0       0       0       0       0       0       0       0       0       
      +0       0       0
  4114 ;;      Totals:        11       0       0       0       0       0       0       0       0       0       0       0       
      +0       0       0
  4115 ;;Total ram usage:       11 bytes
  4116 ;; Hardware stack levels used: 1
  4117 ;; This function calls:
  4118 ;;		Nothing
  4119 ;; This function is called by:
  4120 ;;		_vfpfcnvrt
  4121 ;; This function uses a non-reentrant model
  4122 ;;
  4123                           
  4124                           	psect	text22
  4125   003B3C                     __ptext22:
  4126                           	callstack 0
  4127   003B3C                     _strncmp:
  4128                           	callstack 26
  4129   003B3C  C001  F008         	movff	strncmp@_l,strncmp@l
  4130   003B40  C002  F009         	movff	strncmp@_l+1,strncmp@l+1
  4131   003B44  C003  F00A         	movff	strncmp@_r,strncmp@r
  4132   003B48  C004  F00B         	movff	strncmp@_r+1,strncmp@r+1
  4133   003B4C  0605               	decf	strncmp@n^0,f,c
  4134   003B4E  A0D8               	btfss	status,0,c
  4135   003B50  0606               	decf	(strncmp@n+1)^0,f,c
  4136   003B52  2805               	incf	strncmp@n^0,w,c
  4137   003B54  E106               	bnz	u3841
  4138   003B56  2806               	incf	(strncmp@n+1)^0,w,c
  4139   003B58  A4D8               	btfss	status,2,c
  4140   003B5A  EFB1  F01D         	goto	u3841
  4141   003B5E  EFB3  F01D         	goto	u3840
  4142   003B62                     u3841:
  4143   003B62  EFC0  F01D         	goto	l3520
  4144   003B66                     u3840:
  4145   003B66  0E00               	movlw	0
  4146   003B68  6E02               	movwf	(?_strncmp+1)^0,c
  4147   003B6A  0E00               	movlw	0
  4148   003B6C  6E01               	movwf	?_strncmp^0,c
  4149   003B6E  EF18  F01E         	goto	l1121
  4150   003B72                     l3518:
  4151   003B72  4A08               	infsnz	strncmp@l^0,f,c
  4152   003B74  2A09               	incf	(strncmp@l+1)^0,f,c
  4153   003B76  4A0A               	infsnz	strncmp@r^0,f,c
  4154   003B78  2A0B               	incf	(strncmp@r+1)^0,f,c
  4155   003B7A  0605               	decf	strncmp@n^0,f,c
  4156   003B7C  A0D8               	btfss	status,0,c
  4157   003B7E  0606               	decf	(strncmp@n+1)^0,f,c
  4158   003B80                     l3520:
  4159   003B80  C008  FFF6         	movff	strncmp@l,tblptrl
  4160   003B84  C009  FFF7         	movff	strncmp@l+1,tblptrh
  4161   003B88                     	if	0	;tblptru may be non-zero
  4162   003B88                     	endif
  4163   003B88                     	if	1	;Program memory is > 0xFFFF, there are 3 active tblptr bytes
  4164   003B88  0E00               	movlw	low (__mediumconst shr (0+16))
  4165   003B8A  6EF8               	movwf	tblptru,c
  4166   003B8C                     	endif
  4167   003B8C  0008               	tblrd		*
  4168   003B8E  50F5               	movf	tablat,w,c
  4169   003B90  0900               	iorlw	0
  4170   003B92  B4D8               	btfsc	status,2,c
  4171   003B94  EFCE  F01D         	goto	u3851
  4172   003B98  EFD0  F01D         	goto	u3850
  4173   003B9C                     u3851:
  4174   003B9C  EF02  F01E         	goto	l3528
  4175   003BA0                     u3850:
  4176   003BA0  C00A  FFF6         	movff	strncmp@r,tblptrl
  4177   003BA4  C00B  FFF7         	movff	strncmp@r+1,tblptrh
  4178   003BA8                     	if	0	;tblptru may be non-zero
  4179   003BA8                     	endif
  4180   003BA8                     	if	1	;Program memory is > 0xFFFF, there are 3 active tblptr bytes
  4181   003BA8  0E00               	movlw	low (__mediumconst shr (0+16))
  4182   003BAA  6EF8               	movwf	tblptru,c
  4183   003BAC                     	endif
  4184   003BAC  0008               	tblrd		*
  4185   003BAE  50F5               	movf	tablat,w,c
  4186   003BB0  0900               	iorlw	0
  4187   003BB2  B4D8               	btfsc	status,2,c
  4188   003BB4  EFDE  F01D         	goto	u3861
  4189   003BB8  EFE0  F01D         	goto	u3860
  4190   003BBC                     u3861:
  4191   003BBC  EF02  F01E         	goto	l3528
  4192   003BC0                     u3860:
  4193   003BC0  5005               	movf	strncmp@n^0,w,c
  4194   003BC2  1006               	iorwf	(strncmp@n+1)^0,w,c
  4195   003BC4  B4D8               	btfsc	status,2,c
  4196   003BC6  EFE7  F01D         	goto	u3871
  4197   003BCA  EFE9  F01D         	goto	u3870
  4198   003BCE                     u3871:
  4199   003BCE  EF02  F01E         	goto	l3528
  4200   003BD2                     u3870:
  4201   003BD2  C008  FFF6         	movff	strncmp@l,tblptrl
  4202   003BD6  C009  FFF7         	movff	strncmp@l+1,tblptrh
  4203   003BDA                     	if	0	;tblptru may be non-zero
  4204   003BDA                     	endif
  4205   003BDA                     	if	1	;Program memory is > 0xFFFF, there are 3 active tblptr bytes
  4206   003BDA  0E00               	movlw	low (__mediumconst shr (0+16))
  4207   003BDC  6EF8               	movwf	tblptru,c
  4208   003BDE                     	endif
  4209   003BDE  0008               	tblrd		*
  4210   003BE0  CFF5 F007          	movff	tablat,??_strncmp
  4211   003BE4  C00A  FFF6         	movff	strncmp@r,tblptrl
  4212   003BE8  C00B  FFF7         	movff	strncmp@r+1,tblptrh
  4213   003BEC                     	if	0	;tblptru may be non-zero
  4214   003BEC                     	endif
  4215   003BEC                     	if	1	;Program memory is > 0xFFFF, there are 3 active tblptr bytes
  4216   003BEC  0E00               	movlw	low (__mediumconst shr (0+16))
  4217   003BEE  6EF8               	movwf	tblptru,c
  4218   003BF0                     	endif
  4219   003BF0  0008               	tblrd		*
  4220   003BF2  50F5               	movf	tablat,w,c
  4221   003BF4  1807               	xorwf	??_strncmp^0,w,c
  4222   003BF6  B4D8               	btfsc	status,2,c
  4223   003BF8  EF00  F01E         	goto	u3881
  4224   003BFC  EF02  F01E         	goto	u3880
  4225   003C00                     u3881:
  4226   003C00  EFB9  F01D         	goto	l3518
  4227   003C04                     u3880:
  4228   003C04                     l3528:
  4229   003C04  C008  FFF6         	movff	strncmp@l,tblptrl
  4230   003C08  C009  FFF7         	movff	strncmp@l+1,tblptrh
  4231   003C0C                     	if	0	;tblptru may be non-zero
  4232   003C0C                     	endif
  4233   003C0C                     	if	1	;Program memory is > 0xFFFF, there are 3 active tblptr bytes
  4234   003C0C  0E00               	movlw	low (__mediumconst shr (0+16))
  4235   003C0E  6EF8               	movwf	tblptru,c
  4236   003C10                     	endif
  4237   003C10  0008               	tblrd		*
  4238   003C12  CFF5 F007          	movff	tablat,??_strncmp
  4239   003C16  C00A  FFF6         	movff	strncmp@r,tblptrl
  4240   003C1A  C00B  FFF7         	movff	strncmp@r+1,tblptrh
  4241   003C1E                     	if	0	;tblptru may be non-zero
  4242   003C1E                     	endif
  4243   003C1E                     	if	1	;Program memory is > 0xFFFF, there are 3 active tblptr bytes
  4244   003C1E  0E00               	movlw	low (__mediumconst shr (0+16))
  4245   003C20  6EF8               	movwf	tblptru,c
  4246   003C22                     	endif
  4247   003C22  0008               	tblrd		*
  4248   003C24  50F5               	movf	tablat,w,c
  4249   003C26  5C07               	subwf	??_strncmp^0,w,c
  4250   003C28  6E01               	movwf	?_strncmp^0,c
  4251   003C2A  6A02               	clrf	(?_strncmp+1)^0,c
  4252   003C2C  A0D8               	btfss	status,0,c
  4253   003C2E  0602               	decf	(?_strncmp+1)^0,f,c
  4254   003C30                     l1121:
  4255   003C30  0012               	return		;funcret
  4256   003C32                     __end_of_strncmp:
  4257                           	callstack 0
  4258                           
  4259 ;; *************** function _stoa *****************
  4260 ;; Defined at:
  4261 ;;		line 839 in file "C:\Program Files\Microchip\xc8\v2.40\pic\sources\c99\common\doprnt.c"
  4262 ;; Parameters:    Size  Location     Type
  4263 ;;  fp              2    9[COMRAM] PTR struct _IO_FILE
  4264 ;;		 -> sprintf@f(11), 
  4265 ;;  s               2   11[COMRAM] PTR unsigned char 
  4266 ;;		 -> colorf.Bf(4), colorf.Gf(4), colorf.Rf(4), ?_sprintf(2), 
  4267 ;;		 -> colorf(20), STR_16(10), STR_15(11), STR_14(7), 
  4268 ;;		 -> STR_13(7), STR_12(5), STR_11(9), STR_10(4), 
  4269 ;;		 -> STR_9(1), 
  4270 ;; Auto vars:     Size  Location     Type
  4271 ;;  nuls            7   14[COMRAM] unsigned char [7]
  4272 ;;  p               2   29[COMRAM] int 
  4273 ;;  l               2   27[COMRAM] int 
  4274 ;;  cp              2   25[COMRAM] PTR unsigned char 
  4275 ;;		 -> colorf.Bf(4), colorf.Gf(4), colorf.Rf(4), stoa@nuls(7), 
  4276 ;;		 -> ?_sprintf(2), colorf(20), STR_16(10), STR_15(11), 
  4277 ;;		 -> STR_14(7), STR_13(7), STR_12(5), STR_11(9), 
  4278 ;;		 -> STR_10(4), STR_9(1), 
  4279 ;;  i               2   23[COMRAM] int 
  4280 ;;  w               2   21[COMRAM] int 
  4281 ;; Return value:  Size  Location     Type
  4282 ;;                  1    wreg      void 
  4283 ;; Registers used:
  4284 ;;		wreg, fsr1l, fsr1h, fsr2l, fsr2h, status,2, status,0, tblptrl, tblptrh, tblptru, cstack
  4285 ;; Tracked objects:
  4286 ;;		On entry : 0/0
  4287 ;;		On exit  : 0/0
  4288 ;;		Unchanged: 0/0
  4289 ;; Data sizes:     COMRAM   BANK0   BANK1   BANK2   BANK3   BANK4   BANK5   BANK6   BANK7   BANK8   BANK9  BANK10  BANK1
      +1  BANK12  BANK13
  4290 ;;      Params:         4       0       0       0       0       0       0       0       0       0       0       0       
      +0       0       0
  4291 ;;      Locals:        17       0       0       0       0       0       0       0       0       0       0       0       
      +0       0       0
  4292 ;;      Temps:          1       0       0       0       0       0       0       0       0       0       0       0       
      +0       0       0
  4293 ;;      Totals:        22       0       0       0       0       0       0       0       0       0       0       0       
      +0       0       0
  4294 ;;Total ram usage:       22 bytes
  4295 ;; Hardware stack levels used: 1
  4296 ;; Hardware stack levels required when called: 2
  4297 ;; This function calls:
  4298 ;;		_fputc
  4299 ;;		_strlen
  4300 ;; This function is called by:
  4301 ;;		_vfpfcnvrt
  4302 ;; This function uses a non-reentrant model
  4303 ;;
  4304                           
  4305                           	psect	text23
  4306   0036F6                     __ptext23:
  4307                           	callstack 0
  4308   0036F6                     _stoa:
  4309                           	callstack 24
  4310   0036F6                     
  4311                           ;C:\Program Files\Microchip\xc8\v2.40\pic\sources\c99\common\doprnt.c: 839: static void 
      +                          stoa(FILE *fp, char *s);C:\Program Files\Microchip\xc8\v2.40\pic\sources\c99\common\dopr
      +                          nt.c: 840: {;C:\Program Files\Microchip\xc8\v2.40\pic\sources\c99\common\doprnt.c: 841: 
      +                              char *cp, nuls[] = "(null)";
  4312   0036F6  EE21  F0C4         	lfsr	2,stoa@F1167
  4313   0036FA  EE10  F00F         	lfsr	1,stoa@nuls
  4314   0036FE  0E06               	movlw	6
  4315   003700                     u3771:
  4316   003700  CFDB FFE3          	movff	plusw2,plusw1
  4317   003704  06E8               	decf	wreg,f,c
  4318   003706  E2FC               	bc	u3771
  4319   003708                     
  4320                           ;C:\Program Files\Microchip\xc8\v2.40\pic\sources\c99\common\doprnt.c: 842:     int i, l
      +                          , p, w;;C:\Program Files\Microchip\xc8\v2.40\pic\sources\c99\common\doprnt.c: 845:     c
      +                          p = s;
  4321   003708  C00C  F01A         	movff	stoa@s,stoa@cp
  4322   00370C  C00D  F01B         	movff	stoa@s+1,stoa@cp+1
  4323   003710                     
  4324                           ;C:\Program Files\Microchip\xc8\v2.40\pic\sources\c99\common\doprnt.c: 846:     if (!cp)
      +                           {
  4325   003710  501A               	movf	stoa@cp^0,w,c
  4326   003712  101B               	iorwf	(stoa@cp+1)^0,w,c
  4327   003714  A4D8               	btfss	status,2,c
  4328   003716  EF8F  F01B         	goto	u3781
  4329   00371A  EF91  F01B         	goto	u3780
  4330   00371E                     u3781:
  4331   00371E  EF95  F01B         	goto	l3488
  4332   003722                     u3780:
  4333   003722                     
  4334                           ;C:\Program Files\Microchip\xc8\v2.40\pic\sources\c99\common\doprnt.c: 847:         cp =
      +                           nuls;
  4335   003722  0E0F               	movlw	low stoa@nuls
  4336   003724  6E1A               	movwf	stoa@cp^0,c
  4337   003726  0E00               	movlw	high stoa@nuls
  4338   003728  6E1B               	movwf	(stoa@cp+1)^0,c
  4339   00372A                     l3488:
  4340                           
  4341                           ;C:\Program Files\Microchip\xc8\v2.40\pic\sources\c99\common\doprnt.c: 851:     l = (int
      +                          )strlen(cp);
  4342   00372A  C01A  F001         	movff	stoa@cp,strlen@s
  4343   00372E  C01B  F002         	movff	stoa@cp+1,strlen@s+1
  4344   003732  EC2F  F021         	call	_strlen	;wreg free
  4345   003736  C001  F01C         	movff	?_strlen,stoa@l
  4346   00373A  C002  F01D         	movff	?_strlen+1,stoa@l+1
  4347   00373E                     
  4348                           ;C:\Program Files\Microchip\xc8\v2.40\pic\sources\c99\common\doprnt.c: 852:     p = prec
      +                          ;
  4349   00373E  C0F8  F01E         	movff	_prec,stoa@p
  4350   003742  C0F9  F01F         	movff	_prec+1,stoa@p+1
  4351   003746                     
  4352                           ;C:\Program Files\Microchip\xc8\v2.40\pic\sources\c99\common\doprnt.c: 853:     l = (!(p
      +                           < 0) && (p < l)) ? p : l;
  4353   003746  BE1F               	btfsc	(stoa@p+1)^0,7,c
  4354   003748  EFA8  F01B         	goto	u3791
  4355   00374C  EFAA  F01B         	goto	u3790
  4356   003750                     u3791:
  4357   003750  EFBF  F01B         	goto	l1003
  4358   003754                     u3790:
  4359   003754  501C               	movf	stoa@l^0,w,c
  4360   003756  5C1E               	subwf	stoa@p^0,w,c
  4361   003758  501F               	movf	(stoa@p+1)^0,w,c
  4362   00375A  0A80               	xorlw	128
  4363   00375C  6E0E               	movwf	??_stoa^0,c
  4364   00375E  501D               	movf	(stoa@l+1)^0,w,c
  4365   003760  0A80               	xorlw	128
  4366   003762  580E               	subwfb	??_stoa^0,w,c
  4367   003764  A0D8               	btfss	status,0,c
  4368   003766  EFB7  F01B         	goto	u3801
  4369   00376A  EFB9  F01B         	goto	u3800
  4370   00376E                     u3801:
  4371   00376E  EFBB  F01B         	goto	l1001
  4372   003772                     u3800:
  4373   003772  EFBF  F01B         	goto	l1003
  4374   003776                     l1001:
  4375   003776  C01E  F01C         	movff	stoa@p,stoa@l
  4376   00377A  C01F  F01D         	movff	stoa@p+1,stoa@l+1
  4377   00377E                     l1003:
  4378                           
  4379                           ;C:\Program Files\Microchip\xc8\v2.40\pic\sources\c99\common\doprnt.c: 854:     p = l;
  4380   00377E  C01C  F01E         	movff	stoa@l,stoa@p
  4381   003782  C01D  F01F         	movff	stoa@l+1,stoa@p+1
  4382                           
  4383                           ;C:\Program Files\Microchip\xc8\v2.40\pic\sources\c99\common\doprnt.c: 855:     w = widt
      +                          h;
  4384   003786  C0F6  F016         	movff	_width,stoa@w
  4385   00378A  C0F7  F017         	movff	_width+1,stoa@w+1
  4386                           
  4387                           ;C:\Program Files\Microchip\xc8\v2.40\pic\sources\c99\common\doprnt.c: 861:         whil
      +                          e (l < w) {
  4388   00378E  EFD5  F01B         	goto	l3500
  4389   003792                     l3496:
  4390                           
  4391                           ;C:\Program Files\Microchip\xc8\v2.40\pic\sources\c99\common\doprnt.c: 862:             
      +                          fputc(' ', fp);
  4392   003792  0E00               	movlw	0
  4393   003794  6E02               	movwf	(fputc@c+1)^0,c
  4394   003796  0E20               	movlw	32
  4395   003798  6E01               	movwf	fputc@c^0,c
  4396   00379A  C00A  F003         	movff	stoa@fp,fputc@fp
  4397   00379E  C00B  F004         	movff	stoa@fp+1,fputc@fp+1
  4398   0037A2  EC86  F01E         	call	_fputc	;wreg free
  4399   0037A6                     
  4400                           ;C:\Program Files\Microchip\xc8\v2.40\pic\sources\c99\common\doprnt.c: 863:             
      +                          ++l;
  4401   0037A6  4A1C               	infsnz	stoa@l^0,f,c
  4402   0037A8  2A1D               	incf	(stoa@l+1)^0,f,c
  4403   0037AA                     l3500:
  4404                           
  4405                           ;C:\Program Files\Microchip\xc8\v2.40\pic\sources\c99\common\doprnt.c: 861:         whil
      +                          e (l < w) {
  4406   0037AA  5016               	movf	stoa@w^0,w,c
  4407   0037AC  5C1C               	subwf	stoa@l^0,w,c
  4408   0037AE  501D               	movf	(stoa@l+1)^0,w,c
  4409   0037B0  0A80               	xorlw	128
  4410   0037B2  6E0E               	movwf	??_stoa^0,c
  4411   0037B4  5017               	movf	(stoa@w+1)^0,w,c
  4412   0037B6  0A80               	xorlw	128
  4413   0037B8  580E               	subwfb	??_stoa^0,w,c
  4414   0037BA  A0D8               	btfss	status,0,c
  4415   0037BC  EFE2  F01B         	goto	u3811
  4416   0037C0  EFE4  F01B         	goto	u3810
  4417   0037C4                     u3811:
  4418   0037C4  EFC9  F01B         	goto	l3496
  4419   0037C8                     u3810:
  4420   0037C8                     
  4421                           ;C:\Program Files\Microchip\xc8\v2.40\pic\sources\c99\common\doprnt.c: 870:     i = 0;
  4422   0037C8  0E00               	movlw	0
  4423   0037CA  6E19               	movwf	(stoa@i+1)^0,c
  4424   0037CC  0E00               	movlw	0
  4425   0037CE  6E18               	movwf	stoa@i^0,c
  4426                           
  4427                           ;C:\Program Files\Microchip\xc8\v2.40\pic\sources\c99\common\doprnt.c: 871:     while (i
      +                           < p) {
  4428   0037D0  EF09  F01C         	goto	l3510
  4429   0037D4                     l3504:
  4430                           
  4431                           ;C:\Program Files\Microchip\xc8\v2.40\pic\sources\c99\common\doprnt.c: 872:         fput
      +                          c(*cp, fp);
  4432   0037D4  C01A  FFF6         	movff	stoa@cp,tblptrl
  4433   0037D8  C01B  FFF7         	movff	stoa@cp+1,tblptrh
  4434   0037DC  0E00               	movlw	low (__smallconst shr (0+16))
  4435   0037DE  6EF8               	movwf	tblptru,c
  4436   0037E0  0E0D               	movlw	(high __ramtop+-1)
  4437   0037E2  64F7               	cpfsgt	tblptrh,c
  4438   0037E4  D003               	bra	u3827
  4439   0037E6  0008               	tblrd		*
  4440   0037E8  50F5               	movf	tablat,w,c
  4441   0037EA  D005               	bra	u3820
  4442   0037EC                     u3827:
  4443   0037EC  CFF6 FFE1          	movff	tblptrl,fsr1l
  4444   0037F0  CFF7 FFE2          	movff	tblptrh,fsr1h
  4445   0037F4  50E7               	movf	indf1,w,c
  4446   0037F6                     u3820:
  4447   0037F6  6E0E               	movwf	??_stoa^0,c
  4448   0037F8  500E               	movf	??_stoa^0,w,c
  4449   0037FA  6E01               	movwf	fputc@c^0,c
  4450   0037FC  6A02               	clrf	(fputc@c+1)^0,c
  4451   0037FE  C00A  F003         	movff	stoa@fp,fputc@fp
  4452   003802  C00B  F004         	movff	stoa@fp+1,fputc@fp+1
  4453   003806  EC86  F01E         	call	_fputc	;wreg free
  4454   00380A                     
  4455                           ;C:\Program Files\Microchip\xc8\v2.40\pic\sources\c99\common\doprnt.c: 873:         ++cp
      +                          ;
  4456   00380A  4A1A               	infsnz	stoa@cp^0,f,c
  4457   00380C  2A1B               	incf	(stoa@cp+1)^0,f,c
  4458   00380E                     
  4459                           ;C:\Program Files\Microchip\xc8\v2.40\pic\sources\c99\common\doprnt.c: 874:         ++i;
  4460   00380E  4A18               	infsnz	stoa@i^0,f,c
  4461   003810  2A19               	incf	(stoa@i+1)^0,f,c
  4462   003812                     l3510:
  4463                           
  4464                           ;C:\Program Files\Microchip\xc8\v2.40\pic\sources\c99\common\doprnt.c: 871:     while (i
      +                           < p) {
  4465   003812  501E               	movf	stoa@p^0,w,c
  4466   003814  5C18               	subwf	stoa@i^0,w,c
  4467   003816  5019               	movf	(stoa@i+1)^0,w,c
  4468   003818  0A80               	xorlw	128
  4469   00381A  6E0E               	movwf	??_stoa^0,c
  4470   00381C  501F               	movf	(stoa@p+1)^0,w,c
  4471   00381E  0A80               	xorlw	128
  4472   003820  580E               	subwfb	??_stoa^0,w,c
  4473   003822  A0D8               	btfss	status,0,c
  4474   003824  EF16  F01C         	goto	u3831
  4475   003828  EF18  F01C         	goto	u3830
  4476   00382C                     u3831:
  4477   00382C  EFEA  F01B         	goto	l3504
  4478   003830                     u3830:
  4479   003830  0012               	return		;funcret
  4480   003832                     __end_of_stoa:
  4481                           	callstack 0
  4482                           
  4483 ;; *************** function _strlen *****************
  4484 ;; Defined at:
  4485 ;;		line 5 in file "C:\Program Files\Microchip\xc8\v2.40\pic\sources\c99\common\strlen.c"
  4486 ;; Parameters:    Size  Location     Type
  4487 ;;  s               2    0[COMRAM] PTR const unsigned char 
  4488 ;;		 -> colorf.Bf(4), colorf.Gf(4), colorf.Rf(4), stoa@nuls(7), 
  4489 ;;		 -> ?_sprintf(2), colorf(20), STR_16(10), STR_15(11), 
  4490 ;;		 -> STR_14(7), STR_13(7), STR_12(5), STR_11(9), 
  4491 ;;		 -> STR_10(4), STR_9(1), 
  4492 ;; Auto vars:     Size  Location     Type
  4493 ;;  a               2    2[COMRAM] PTR const unsigned char 
  4494 ;;		 -> colorf.Bf(4), colorf.Gf(4), colorf.Rf(4), stoa@nuls(7), 
  4495 ;;		 -> ?_sprintf(2), colorf(20), STR_16(10), STR_15(11), 
  4496 ;;		 -> STR_14(7), STR_13(7), STR_12(5), STR_11(9), 
  4497 ;;		 -> STR_10(4), STR_9(1), 
  4498 ;; Return value:  Size  Location     Type
  4499 ;;                  2    0[COMRAM] unsigned int 
  4500 ;; Registers used:
  4501 ;;		wreg, fsr1l, fsr1h, status,2, status,0, tblptrl, tblptrh, tblptru
  4502 ;; Tracked objects:
  4503 ;;		On entry : 0/0
  4504 ;;		On exit  : 0/0
  4505 ;;		Unchanged: 0/0
  4506 ;; Data sizes:     COMRAM   BANK0   BANK1   BANK2   BANK3   BANK4   BANK5   BANK6   BANK7   BANK8   BANK9  BANK10  BANK1
      +1  BANK12  BANK13
  4507 ;;      Params:         2       0       0       0       0       0       0       0       0       0       0       0       
      +0       0       0
  4508 ;;      Locals:         2       0       0       0       0       0       0       0       0       0       0       0       
      +0       0       0
  4509 ;;      Temps:          0       0       0       0       0       0       0       0       0       0       0       0       
      +0       0       0
  4510 ;;      Totals:         4       0       0       0       0       0       0       0       0       0       0       0       
      +0       0       0
  4511 ;;Total ram usage:        4 bytes
  4512 ;; Hardware stack levels used: 1
  4513 ;; This function calls:
  4514 ;;		Nothing
  4515 ;; This function is called by:
  4516 ;;		_stoa
  4517 ;; This function uses a non-reentrant model
  4518 ;;
  4519                           
  4520                           	psect	text24
  4521   00425E                     __ptext24:
  4522                           	callstack 0
  4523   00425E                     _strlen:
  4524                           	callstack 25
  4525   00425E  C001  F003         	movff	strlen@s,strlen@a
  4526   004262  C002  F004         	movff	strlen@s+1,strlen@a+1
  4527   004266  EF37  F021         	goto	l3252
  4528   00426A                     l3250:
  4529   00426A  4A01               	infsnz	strlen@s^0,f,c
  4530   00426C  2A02               	incf	(strlen@s+1)^0,f,c
  4531   00426E                     l3252:
  4532   00426E  C001  FFF6         	movff	strlen@s,tblptrl
  4533   004272  C002  FFF7         	movff	strlen@s+1,tblptrh
  4534   004276  0E00               	movlw	low (__smallconst shr (0+16))
  4535   004278  6EF8               	movwf	tblptru,c
  4536   00427A  0E0D               	movlw	(high __ramtop+-1)
  4537   00427C  64F7               	cpfsgt	tblptrh,c
  4538   00427E  D003               	bra	u3437
  4539   004280  0008               	tblrd		*
  4540   004282  50F5               	movf	tablat,w,c
  4541   004284  D005               	bra	u3430
  4542   004286                     u3437:
  4543   004286  CFF6 FFE1          	movff	tblptrl,fsr1l
  4544   00428A  CFF7 FFE2          	movff	tblptrh,fsr1h
  4545   00428E  50E7               	movf	indf1,w,c
  4546   004290                     u3430:
  4547   004290  0900               	iorlw	0
  4548   004292  A4D8               	btfss	status,2,c
  4549   004294  EF4E  F021         	goto	u3441
  4550   004298  EF50  F021         	goto	u3440
  4551   00429C                     u3441:
  4552   00429C  EF35  F021         	goto	l3250
  4553   0042A0                     u3440:
  4554   0042A0  5003               	movf	strlen@a^0,w,c
  4555   0042A2  5C01               	subwf	strlen@s^0,w,c
  4556   0042A4  6E01               	movwf	?_strlen^0,c
  4557   0042A6  5004               	movf	(strlen@a+1)^0,w,c
  4558   0042A8  5802               	subwfb	(strlen@s+1)^0,w,c
  4559   0042AA  6E02               	movwf	(?_strlen+1)^0,c
  4560   0042AC  0012               	return		;funcret
  4561   0042AE                     __end_of_strlen:
  4562                           	callstack 0
  4563                           
  4564 ;; *************** function _efgtoa *****************
  4565 ;; Defined at:
  4566 ;;		line 506 in file "C:\Program Files\Microchip\xc8\v2.40\pic\sources\c99\common\doprnt.c"
  4567 ;; Parameters:    Size  Location     Type
  4568 ;;  fp              2   17[BANK0 ] PTR struct _IO_FILE
  4569 ;;		 -> sprintf@f(11), 
  4570 ;;  f               4   19[BANK0 ] PTR struct _IO_FILE
  4571 ;;  c               1   23[BANK0 ] unsigned char 
  4572 ;; Auto vars:     Size  Location     Type
  4573 ;;  u               4   66[BANK0 ] struct flui
  4574 ;;  g               4   62[BANK0 ] struct flui
  4575 ;;  l               4   55[BANK0 ] struct flui
  4576 ;;  h               4   51[BANK0 ] struct flui
  4577 ;;  ou              4   45[BANK0 ] struct flui
  4578 ;;  n               2   60[BANK0 ] int 
  4579 ;;  i               2   49[BANK0 ] int 
  4580 ;;  w               2   43[BANK0 ] int 
  4581 ;;  e               2   41[BANK0 ] int 
  4582 ;;  m               2   39[BANK0 ] int 
  4583 ;;  d               2   37[BANK0 ] int 
  4584 ;;  t               2   30[BANK0 ] int 
  4585 ;;  p               2   28[BANK0 ] int 
  4586 ;;  ne              2   26[BANK0 ] int 
  4587 ;;  sign            1   59[BANK0 ] unsigned char 
  4588 ;;  nmode           1   36[BANK0 ] unsigned char 
  4589 ;;  mode            1   35[BANK0 ] unsigned char 
  4590 ;;  pp              1   34[BANK0 ] unsigned char 
  4591 ;;  esign           1    0        unsigned char 
  4592 ;; Return value:  Size  Location     Type
  4593 ;;                  1    wreg      void 
  4594 ;; Registers used:
  4595 ;;		wreg, fsr1l, fsr1h, fsr2l, fsr2h, status,2, status,0, tblptrl, tblptrh, tblptru, prodl, prodh, cstack
  4596 ;; Tracked objects:
  4597 ;;		On entry : 0/0
  4598 ;;		On exit  : 0/0
  4599 ;;		Unchanged: 0/0
  4600 ;; Data sizes:     COMRAM   BANK0   BANK1   BANK2   BANK3   BANK4   BANK5   BANK6   BANK7   BANK8   BANK9  BANK10  BANK1
      +1  BANK12  BANK13
  4601 ;;      Params:         0       7       0       0       0       0       0       0       0       0       0       0       
      +0       0       0
  4602 ;;      Locals:         0      44       0       0       0       0       0       0       0       0       0       0       
      +0       0       0
  4603 ;;      Temps:          0       2       0       0       0       0       0       0       0       0       0       0       
      +0       0       0
  4604 ;;      Totals:         0      53       0       0       0       0       0       0       0       0       0       0       
      +0       0       0
  4605 ;;Total ram usage:       53 bytes
  4606 ;; Hardware stack levels used: 1
  4607 ;; Hardware stack levels required when called: 4
  4608 ;; This function calls:
  4609 ;;		___fladd
  4610 ;;		___fldiv
  4611 ;;		___fleq
  4612 ;;		___flge
  4613 ;;		___flmul
  4614 ;;		___flneg
  4615 ;;		___flsub
  4616 ;;		___fltol
  4617 ;;		___fpclassifyf
  4618 ;;		_floorf
  4619 ;;		_labs
  4620 ;;		_memcpy
  4621 ;;		_pad
  4622 ;;		_strcpy
  4623 ;; This function is called by:
  4624 ;;		_vfpfcnvrt
  4625 ;; This function uses a non-reentrant model
  4626 ;;
  4627                           
  4628                           	psect	text25
  4629   000E78                     __ptext25:
  4630                           	callstack 0
  4631   000E78                     _efgtoa:
  4632                           	callstack 22
  4633   000E78                     
  4634                           ;C:\Program Files\Microchip\xc8\v2.40\pic\sources\c99\common\doprnt.c: 506: static void 
      +                          efgtoa(FILE *fp, long double f, char c);C:\Program Files\Microchip\xc8\v2.40\pic\sources
      +                          \c99\common\doprnt.c: 507: {;C:\Program Files\Microchip\xc8\v2.40\pic\sources\c99\common
      +                          \doprnt.c: 508:     char mode, nmode, pp, sign, esign;;C:\Program Files\Microchip\xc8\v2
      +                          .40\pic\sources\c99\common\doprnt.c: 509:     int d, e, i, m, n, ne, p, t, w;;C:\Program
      +                           Files\Microchip\xc8\v2.40\pic\sources\c99\common\doprnt.c: 510:     long double h, l;
  4635   000E78  0E00               	movlw	0
  4636   000E7A  0100               	movlb	0	; () banked
  4637   000E7C  6F9B               	movwf	efgtoa@sign& (0+255),b
  4638   000E7E                     
  4639                           ; BSR set to: 0
  4640                           ;C:\Program Files\Microchip\xc8\v2.40\pic\sources\c99\common\doprnt.c: 515:     g.f = f;
  4641   000E7E  C073  F09E         	movff	efgtoa@f,efgtoa@g
  4642   000E82  C074  F09F         	movff	efgtoa@f+1,efgtoa@g+1
  4643   000E86  C075  F0A0         	movff	efgtoa@f+2,efgtoa@g+2
  4644   000E8A  C076  F0A1         	movff	efgtoa@f+3,efgtoa@g+3
  4645   000E8E                     
  4646                           ; BSR set to: 0
  4647                           ;C:\Program Files\Microchip\xc8\v2.40\pic\sources\c99\common\doprnt.c: 516:     if (g.f 
      +                          < 0.0) {
  4648   000E8E  BFA1               	btfsc	(efgtoa@g+3)& (0+255),7,b
  4649   000E90  EF4E  F007         	goto	u3450
  4650   000E94  EF4C  F007         	goto	u3451
  4651   000E98                     u3451:
  4652   000E98  EF62  F007         	goto	l3268
  4653   000E9C                     u3450:
  4654   000E9C                     
  4655                           ; BSR set to: 0
  4656                           ;C:\Program Files\Microchip\xc8\v2.40\pic\sources\c99\common\doprnt.c: 517:         sign
      +                           = 1;
  4657   000E9C  0E01               	movlw	1
  4658   000E9E  6F9B               	movwf	efgtoa@sign& (0+255),b
  4659   000EA0                     
  4660                           ; BSR set to: 0
  4661                           ;C:\Program Files\Microchip\xc8\v2.40\pic\sources\c99\common\doprnt.c: 518:         g.f 
      +                          = -g.f;
  4662   000EA0  C09E  F001         	movff	efgtoa@g,___flneg@f1
  4663   000EA4  C09F  F002         	movff	efgtoa@g+1,___flneg@f1+1
  4664   000EA8  C0A0  F003         	movff	efgtoa@g+2,___flneg@f1+2
  4665   000EAC  C0A1  F004         	movff	efgtoa@g+3,___flneg@f1+3
  4666   000EB0  EC45  F022         	call	___flneg	;wreg free
  4667   000EB4  C001  F09E         	movff	?___flneg,efgtoa@g
  4668   000EB8  C002  F09F         	movff	?___flneg+1,efgtoa@g+1
  4669   000EBC  C003  F0A0         	movff	?___flneg+2,efgtoa@g+2
  4670   000EC0  C004  F0A1         	movff	?___flneg+3,efgtoa@g+3
  4671   000EC4                     l3268:
  4672                           
  4673                           ;C:\Program Files\Microchip\xc8\v2.40\pic\sources\c99\common\doprnt.c: 522:     n = 0;
  4674   000EC4  0E00               	movlw	0
  4675   000EC6  0100               	movlb	0	; () banked
  4676   000EC8  6F9D               	movwf	(efgtoa@n+1)& (0+255),b
  4677   000ECA  0E00               	movlw	0
  4678   000ECC  6F9C               	movwf	efgtoa@n& (0+255),b
  4679   000ECE                     
  4680                           ; BSR set to: 0
  4681                           ;C:\Program Files\Microchip\xc8\v2.40\pic\sources\c99\common\doprnt.c: 523:     w = widt
      +                          h;
  4682   000ECE  C0F6  F08B         	movff	_width,efgtoa@w
  4683   000ED2  C0F7  F08C         	movff	_width+1,efgtoa@w+1
  4684   000ED6                     
  4685                           ; BSR set to: 0
  4686                           ;C:\Program Files\Microchip\xc8\v2.40\pic\sources\c99\common\doprnt.c: 524:     if (sign
  4687   000ED6  519B               	movf	efgtoa@sign& (0+255),w,b
  4688   000ED8  B4D8               	btfsc	status,2,c
  4689   000EDA  EF71  F007         	goto	u3461
  4690   000EDE  EF73  F007         	goto	u3460
  4691   000EE2                     u3461:
  4692   000EE2  EF87  F007         	goto	l3282
  4693   000EE6                     u3460:
  4694   000EE6                     
  4695                           ; BSR set to: 0
  4696                           ;C:\Program Files\Microchip\xc8\v2.40\pic\sources\c99\common\doprnt.c: 528:    ) {;C:\Pr
      +                          ogram Files\Microchip\xc8\v2.40\pic\sources\c99\common\doprnt.c: 529:   sign = sign ? '-
      +                          ' : '+';
  4697   000EE6  519B               	movf	efgtoa@sign& (0+255),w,b
  4698   000EE8  A4D8               	btfss	status,2,c
  4699   000EEA  EF79  F007         	goto	u3471
  4700   000EEE  EF7B  F007         	goto	u3470
  4701   000EF2                     u3471:
  4702   000EF2  EF81  F007         	goto	l3278
  4703   000EF6                     u3470:
  4704   000EF6                     
  4705                           ; BSR set to: 0
  4706   000EF6  0E00               	movlw	0
  4707   000EF8  6F81               	movwf	(_efgtoa$1389+1)& (0+255),b
  4708   000EFA  0E2B               	movlw	43
  4709   000EFC  6F80               	movwf	_efgtoa$1389& (0+255),b
  4710   000EFE  EF85  F007         	goto	l3280
  4711   000F02                     l3278:
  4712                           
  4713                           ; BSR set to: 0
  4714   000F02  0E00               	movlw	0
  4715   000F04  6F81               	movwf	(_efgtoa$1389+1)& (0+255),b
  4716   000F06  0E2D               	movlw	45
  4717   000F08  6F80               	movwf	_efgtoa$1389& (0+255),b
  4718   000F0A                     l3280:
  4719                           
  4720                           ; BSR set to: 0
  4721   000F0A  C080  F09B         	movff	_efgtoa$1389,efgtoa@sign
  4722   000F0E                     l3282:
  4723                           
  4724                           ; BSR set to: 0
  4725                           ;C:\Program Files\Microchip\xc8\v2.40\pic\sources\c99\common\doprnt.c: 538:     if (( __
      +                          fpclassifyf(g.f) == 1 )) {
  4726   000F0E  C09E  F001         	movff	efgtoa@g,___fpclassifyf@x
  4727   000F12  C09F  F002         	movff	efgtoa@g+1,___fpclassifyf@x+1
  4728   000F16  C0A0  F003         	movff	efgtoa@g+2,___fpclassifyf@x+2
  4729   000F1A  C0A1  F004         	movff	efgtoa@g+3,___fpclassifyf@x+3
  4730   000F1E  EC1F  F01D         	call	___fpclassifyf	;wreg free
  4731   000F22  0401               	decf	?___fpclassifyf^0,w,c
  4732   000F24  1002               	iorwf	(?___fpclassifyf+1)^0,w,c
  4733   000F26  A4D8               	btfss	status,2,c
  4734   000F28  EF98  F007         	goto	u3481
  4735   000F2C  EF9A  F007         	goto	u3480
  4736   000F30                     u3481:
  4737   000F30  EFCD  F007         	goto	l3300
  4738   000F34                     u3480:
  4739   000F34                     
  4740                           ;C:\Program Files\Microchip\xc8\v2.40\pic\sources\c99\common\doprnt.c: 539:   if (sign) 
      +                          {
  4741   000F34  0100               	movlb	0	; () banked
  4742   000F36  519B               	movf	efgtoa@sign& (0+255),w,b
  4743   000F38  B4D8               	btfsc	status,2,c
  4744   000F3A  EFA1  F007         	goto	u3491
  4745   000F3E  EFA3  F007         	goto	u3490
  4746   000F42                     u3491:
  4747   000F42  EFAC  F007         	goto	l3292
  4748   000F46                     u3490:
  4749   000F46                     
  4750                           ; BSR set to: 0
  4751                           ;C:\Program Files\Microchip\xc8\v2.40\pic\sources\c99\common\doprnt.c: 540:    dbuf[0] =
      +                           sign;
  4752   000F46  C09B  F100         	movff	efgtoa@sign,_dbuf
  4753   000F4A                     
  4754                           ; BSR set to: 0
  4755                           ;C:\Program Files\Microchip\xc8\v2.40\pic\sources\c99\common\doprnt.c: 541:    w--;
  4756   000F4A  078B               	decf	efgtoa@w& (0+255),f,b
  4757   000F4C  A0D8               	btfss	status,0,c
  4758   000F4E  078C               	decf	(efgtoa@w+1)& (0+255),f,b
  4759   000F50                     
  4760                           ; BSR set to: 0
  4761                           ;C:\Program Files\Microchip\xc8\v2.40\pic\sources\c99\common\doprnt.c: 542:    n = 1;
  4762   000F50  0E00               	movlw	0
  4763   000F52  6F9D               	movwf	(efgtoa@n+1)& (0+255),b
  4764   000F54  0E01               	movlw	1
  4765   000F56  6F9C               	movwf	efgtoa@n& (0+255),b
  4766   000F58                     l3292:
  4767                           
  4768                           ; BSR set to: 0
  4769                           ;C:\Program Files\Microchip\xc8\v2.40\pic\sources\c99\common\doprnt.c: 550:   {;C:\Progr
      +                          am Files\Microchip\xc8\v2.40\pic\sources\c99\common\doprnt.c: 551:             strcpy(&d
      +                          buf[n], "inf");
  4770   000F58  0E00               	movlw	low _dbuf
  4771   000F5A  259C               	addwf	efgtoa@n& (0+255),w,b
  4772   000F5C  6E01               	movwf	strcpy@dest^0,c
  4773   000F5E  0E01               	movlw	high _dbuf
  4774   000F60  219D               	addwfc	(efgtoa@n+1)& (0+255),w,b
  4775   000F62  6E02               	movwf	(strcpy@dest+1)^0,c
  4776   000F64  0E66               	movlw	low STR_34
  4777   000F66  6E03               	movwf	strcpy@src^0,c
  4778   000F68  0E0E               	movlw	high STR_34
  4779   000F6A  6E04               	movwf	(strcpy@src+1)^0,c
  4780   000F6C  ECA2  F021         	call	_strcpy	;wreg free
  4781   000F70                     l3294:
  4782                           
  4783                           ;C:\Program Files\Microchip\xc8\v2.40\pic\sources\c99\common\doprnt.c: 552:         };C:
      +                          \Program Files\Microchip\xc8\v2.40\pic\sources\c99\common\doprnt.c: 553:         w -= ((
      +                          sizeof("inf")/sizeof("inf"[0]))-1);
  4784   000F70  0100               	movlb	0	; () banked
  4785   000F72  0EFD               	movlw	253
  4786   000F74  278B               	addwf	efgtoa@w& (0+255),f,b
  4787   000F76  0EFF               	movlw	255
  4788   000F78  238C               	addwfc	(efgtoa@w+1)& (0+255),f,b
  4789   000F7A                     
  4790                           ; BSR set to: 0
  4791                           ;C:\Program Files\Microchip\xc8\v2.40\pic\sources\c99\common\doprnt.c: 554:         retu
      +                          rn (void) pad(fp, &dbuf[0], w);
  4792   000F7A  C071  F011         	movff	efgtoa@fp,pad@fp
  4793   000F7E  C072  F012         	movff	efgtoa@fp+1,pad@fp+1
  4794   000F82  0E00               	movlw	low _dbuf
  4795   000F84  6E13               	movwf	pad@buf^0,c
  4796   000F86  0E01               	movlw	high _dbuf
  4797   000F88  6E14               	movwf	(pad@buf+1)^0,c
  4798   000F8A  C08B  F015         	movff	efgtoa@w,pad@p
  4799   000F8E  C08C  F016         	movff	efgtoa@w+1,pad@p+1
  4800   000F92  EC96  F01F         	call	_pad	;wreg free
  4801   000F96  EF38  F00C         	goto	l953
  4802   000F9A                     l3300:
  4803                           
  4804                           ;C:\Program Files\Microchip\xc8\v2.40\pic\sources\c99\common\doprnt.c: 556:     if (( __
      +                          fpclassifyf(g.f) == 0 )) {
  4805   000F9A  C09E  F001         	movff	efgtoa@g,___fpclassifyf@x
  4806   000F9E  C09F  F002         	movff	efgtoa@g+1,___fpclassifyf@x+1
  4807   000FA2  C0A0  F003         	movff	efgtoa@g+2,___fpclassifyf@x+2
  4808   000FA6  C0A1  F004         	movff	efgtoa@g+3,___fpclassifyf@x+3
  4809   000FAA  EC1F  F01D         	call	___fpclassifyf	;wreg free
  4810   000FAE  5001               	movf	?___fpclassifyf^0,w,c
  4811   000FB0  1002               	iorwf	(?___fpclassifyf+1)^0,w,c
  4812   000FB2  A4D8               	btfss	status,2,c
  4813   000FB4  EFDE  F007         	goto	u3501
  4814   000FB8  EFE0  F007         	goto	u3500
  4815   000FBC                     u3501:
  4816   000FBC  EF00  F008         	goto	l3318
  4817   000FC0                     u3500:
  4818   000FC0                     
  4819                           ;C:\Program Files\Microchip\xc8\v2.40\pic\sources\c99\common\doprnt.c: 557:   if (sign) 
      +                          {
  4820   000FC0  0100               	movlb	0	; () banked
  4821   000FC2  519B               	movf	efgtoa@sign& (0+255),w,b
  4822   000FC4  B4D8               	btfsc	status,2,c
  4823   000FC6  EFE7  F007         	goto	u3511
  4824   000FCA  EFE9  F007         	goto	u3510
  4825   000FCE                     u3511:
  4826   000FCE  EFF2  F007         	goto	l3310
  4827   000FD2                     u3510:
  4828   000FD2                     
  4829                           ; BSR set to: 0
  4830                           ;C:\Program Files\Microchip\xc8\v2.40\pic\sources\c99\common\doprnt.c: 558:    dbuf[0] =
      +                           sign;
  4831   000FD2  C09B  F100         	movff	efgtoa@sign,_dbuf
  4832   000FD6                     
  4833                           ; BSR set to: 0
  4834                           ;C:\Program Files\Microchip\xc8\v2.40\pic\sources\c99\common\doprnt.c: 559:    w--;
  4835   000FD6  078B               	decf	efgtoa@w& (0+255),f,b
  4836   000FD8  A0D8               	btfss	status,0,c
  4837   000FDA  078C               	decf	(efgtoa@w+1)& (0+255),f,b
  4838   000FDC                     
  4839                           ; BSR set to: 0
  4840                           ;C:\Program Files\Microchip\xc8\v2.40\pic\sources\c99\common\doprnt.c: 560:    n = 1;
  4841   000FDC  0E00               	movlw	0
  4842   000FDE  6F9D               	movwf	(efgtoa@n+1)& (0+255),b
  4843   000FE0  0E01               	movlw	1
  4844   000FE2  6F9C               	movwf	efgtoa@n& (0+255),b
  4845   000FE4                     l3310:
  4846                           
  4847                           ; BSR set to: 0
  4848                           ;C:\Program Files\Microchip\xc8\v2.40\pic\sources\c99\common\doprnt.c: 568:   {;C:\Progr
      +                          am Files\Microchip\xc8\v2.40\pic\sources\c99\common\doprnt.c: 569:             strcpy(&d
      +                          buf[n], "nan");
  4849   000FE4  0E00               	movlw	low _dbuf
  4850   000FE6  259C               	addwf	efgtoa@n& (0+255),w,b
  4851   000FE8  6E01               	movwf	strcpy@dest^0,c
  4852   000FEA  0E01               	movlw	high _dbuf
  4853   000FEC  219D               	addwfc	(efgtoa@n+1)& (0+255),w,b
  4854   000FEE  6E02               	movwf	(strcpy@dest+1)^0,c
  4855   000FF0  0E6A               	movlw	low STR_37
  4856   000FF2  6E03               	movwf	strcpy@src^0,c
  4857   000FF4  0E0E               	movlw	high STR_37
  4858   000FF6  6E04               	movwf	(strcpy@src+1)^0,c
  4859   000FF8  ECA2  F021         	call	_strcpy	;wreg free
  4860   000FFC  EFB8  F007         	goto	l3294
  4861   001000                     l3318:
  4862                           
  4863                           ;C:\Program Files\Microchip\xc8\v2.40\pic\sources\c99\common\doprnt.c: 576:     u.f = 1.
      +                          0;
  4864   001000  0E00               	movlw	0
  4865   001002  0100               	movlb	0	; () banked
  4866   001004  6FA2               	movwf	efgtoa@u& (0+255),b
  4867   001006  0E00               	movlw	0
  4868   001008  6FA3               	movwf	(efgtoa@u+1)& (0+255),b
  4869   00100A  0E80               	movlw	128
  4870   00100C  6FA4               	movwf	(efgtoa@u+2)& (0+255),b
  4871   00100E  0E3F               	movlw	63
  4872   001010  6FA5               	movwf	(efgtoa@u+3)& (0+255),b
  4873                           
  4874                           ;C:\Program Files\Microchip\xc8\v2.40\pic\sources\c99\common\doprnt.c: 577:     e = 0;
  4875   001012  0E00               	movlw	0
  4876   001014  6F8A               	movwf	(efgtoa@e+1)& (0+255),b
  4877   001016  0E00               	movlw	0
  4878   001018  6F89               	movwf	efgtoa@e& (0+255),b
  4879   00101A                     
  4880                           ; BSR set to: 0
  4881                           ;C:\Program Files\Microchip\xc8\v2.40\pic\sources\c99\common\doprnt.c: 578:  if (!(g.f =
      +                          = 0.0)) {
  4882   00101A  C09E  F001         	movff	efgtoa@g,___fleq@ff1
  4883   00101E  C09F  F002         	movff	efgtoa@g+1,___fleq@ff1+1
  4884   001022  C0A0  F003         	movff	efgtoa@g+2,___fleq@ff1+2
  4885   001026  C0A1  F004         	movff	efgtoa@g+3,___fleq@ff1+3
  4886   00102A  0E00               	movlw	0
  4887   00102C  6E05               	movwf	___fleq@ff2^0,c
  4888   00102E  0E00               	movlw	0
  4889   001030  6E06               	movwf	(___fleq@ff2+1)^0,c
  4890   001032  0E00               	movlw	0
  4891   001034  6E07               	movwf	(___fleq@ff2+2)^0,c
  4892   001036  0E00               	movlw	0
  4893   001038  6E08               	movwf	(___fleq@ff2+3)^0,c
  4894   00103A  EC41  F01F         	call	___fleq	;wreg free
  4895   00103E  B0D8               	btfsc	status,0,c
  4896   001040  EF24  F008         	goto	u3521
  4897   001044  EF26  F008         	goto	u3520
  4898   001048                     u3521:
  4899   001048  EF05  F009         	goto	l956
  4900   00104C                     u3520:
  4901   00104C  EF33  F008         	goto	l3326
  4902   001050                     l958:
  4903                           
  4904                           ;C:\Program Files\Microchip\xc8\v2.40\pic\sources\c99\common\doprnt.c: 580:    u = ou;
  4905   001050  C08D  F0A2         	movff	efgtoa@ou,efgtoa@u
  4906   001054  C08E  F0A3         	movff	efgtoa@ou+1,efgtoa@u+1
  4907   001058  C08F  F0A4         	movff	efgtoa@ou+2,efgtoa@u+2
  4908   00105C  C090  F0A5         	movff	efgtoa@ou+3,efgtoa@u+3
  4909   001060                     
  4910                           ;C:\Program Files\Microchip\xc8\v2.40\pic\sources\c99\common\doprnt.c: 581:    ++e;
  4911   001060  0100               	movlb	0	; () banked
  4912   001062  4B89               	infsnz	efgtoa@e& (0+255),f,b
  4913   001064  2B8A               	incf	(efgtoa@e+1)& (0+255),f,b
  4914   001066                     l3326:
  4915                           
  4916                           ;C:\Program Files\Microchip\xc8\v2.40\pic\sources\c99\common\doprnt.c: 579:   while ((la
      +                          bs((g).u-((ou.f = u.f*10.0,ou)).u) <= 1) || g.f > ou.f) {
  4917   001066  C0A2  F04B         	movff	efgtoa@u,___flmul@b
  4918   00106A  C0A3  F04C         	movff	efgtoa@u+1,___flmul@b+1
  4919   00106E  C0A4  F04D         	movff	efgtoa@u+2,___flmul@b+2
  4920   001072  C0A5  F04E         	movff	efgtoa@u+3,___flmul@b+3
  4921   001076  0E00               	movlw	0
  4922   001078  6E4F               	movwf	___flmul@a^0,c
  4923   00107A  0E00               	movlw	0
  4924   00107C  6E50               	movwf	(___flmul@a+1)^0,c
  4925   00107E  0E20               	movlw	32
  4926   001080  6E51               	movwf	(___flmul@a+2)^0,c
  4927   001082  0E41               	movlw	65
  4928   001084  6E52               	movwf	(___flmul@a+3)^0,c
  4929   001086  EC2F  F012         	call	___flmul	;wreg free
  4930   00108A  C04B  F08D         	movff	?___flmul,efgtoa@ou
  4931   00108E  C04C  F08E         	movff	?___flmul+1,efgtoa@ou+1
  4932   001092  C04D  F08F         	movff	?___flmul+2,efgtoa@ou+2
  4933   001096  C04E  F090         	movff	?___flmul+3,efgtoa@ou+3
  4934   00109A  0100               	movlb	0	; () banked
  4935   00109C  518D               	movf	efgtoa@ou& (0+255),w,b
  4936   00109E  5D9E               	subwf	efgtoa@g& (0+255),w,b
  4937   0010A0  6E01               	movwf	labs@a^0,c
  4938   0010A2  518E               	movf	(efgtoa@ou+1)& (0+255),w,b
  4939   0010A4  599F               	subwfb	(efgtoa@g+1)& (0+255),w,b
  4940   0010A6  6E02               	movwf	(labs@a+1)^0,c
  4941   0010A8  518F               	movf	(efgtoa@ou+2)& (0+255),w,b
  4942   0010AA  59A0               	subwfb	(efgtoa@g+2)& (0+255),w,b
  4943   0010AC  6E03               	movwf	(labs@a+2)^0,c
  4944   0010AE  5190               	movf	(efgtoa@ou+3)& (0+255),w,b
  4945   0010B0  59A1               	subwfb	(efgtoa@g+3)& (0+255),w,b
  4946   0010B2  6E04               	movwf	(labs@a+3)^0,c
  4947   0010B4  EC08  F020         	call	_labs	;wreg free
  4948   0010B8  BE04               	btfsc	(?_labs+3)^0,7,c
  4949   0010BA  EF6A  F008         	goto	u3531
  4950   0010BE  5004               	movf	(?_labs+3)^0,w,c
  4951   0010C0  1003               	iorwf	(?_labs+2)^0,w,c
  4952   0010C2  1002               	iorwf	(?_labs+1)^0,w,c
  4953   0010C4  E109               	bnz	u3530
  4954   0010C6  0E02               	movlw	2
  4955   0010C8  5C01               	subwf	?_labs^0,w,c
  4956   0010CA  A0D8               	btfss	status,0,c
  4957   0010CC  EF6A  F008         	goto	u3531
  4958   0010D0  EF6C  F008         	goto	u3530
  4959   0010D4                     u3531:
  4960   0010D4  EF28  F008         	goto	l958
  4961   0010D8                     u3530:
  4962   0010D8  C08D  F057         	movff	efgtoa@ou,___flge@ff1
  4963   0010DC  C08E  F058         	movff	efgtoa@ou+1,___flge@ff1+1
  4964   0010E0  C08F  F059         	movff	efgtoa@ou+2,___flge@ff1+2
  4965   0010E4  C090  F05A         	movff	efgtoa@ou+3,___flge@ff1+3
  4966   0010E8  C09E  F05B         	movff	efgtoa@g,___flge@ff2
  4967   0010EC  C09F  F05C         	movff	efgtoa@g+1,___flge@ff2+1
  4968   0010F0  C0A0  F05D         	movff	efgtoa@g+2,___flge@ff2+2
  4969   0010F4  C0A1  F05E         	movff	efgtoa@g+3,___flge@ff2+3
  4970   0010F8  EC9C  F01C         	call	___flge	;wreg free
  4971   0010FC  A0D8               	btfss	status,0,c
  4972   0010FE  EF83  F008         	goto	u3541
  4973   001102  EF85  F008         	goto	u3540
  4974   001106                     u3541:
  4975   001106  EF28  F008         	goto	l958
  4976   00110A                     u3540:
  4977   00110A                     
  4978                           ;C:\Program Files\Microchip\xc8\v2.40\pic\sources\c99\common\doprnt.c: 583:   if ((labs(
      +                          (g).u-(u).u) <= 1)) {
  4979   00110A  0100               	movlb	0	; () banked
  4980   00110C  51A2               	movf	efgtoa@u& (0+255),w,b
  4981   00110E  5D9E               	subwf	efgtoa@g& (0+255),w,b
  4982   001110  6E01               	movwf	labs@a^0,c
  4983   001112  51A3               	movf	(efgtoa@u+1)& (0+255),w,b
  4984   001114  599F               	subwfb	(efgtoa@g+1)& (0+255),w,b
  4985   001116  6E02               	movwf	(labs@a+1)^0,c
  4986   001118  51A4               	movf	(efgtoa@u+2)& (0+255),w,b
  4987   00111A  59A0               	subwfb	(efgtoa@g+2)& (0+255),w,b
  4988   00111C  6E03               	movwf	(labs@a+2)^0,c
  4989   00111E  51A5               	movf	(efgtoa@u+3)& (0+255),w,b
  4990   001120  59A1               	subwfb	(efgtoa@g+3)& (0+255),w,b
  4991   001122  6E04               	movwf	(labs@a+3)^0,c
  4992   001124  EC08  F020         	call	_labs	;wreg free
  4993   001128  BE04               	btfsc	(?_labs+3)^0,7,c
  4994   00112A  EFA4  F008         	goto	u3550
  4995   00112E  5004               	movf	(?_labs+3)^0,w,c
  4996   001130  1003               	iorwf	(?_labs+2)^0,w,c
  4997   001132  1002               	iorwf	(?_labs+1)^0,w,c
  4998   001134  E107               	bnz	u3551
  4999   001136  0E02               	movlw	2
  5000   001138  5C01               	subwf	?_labs^0,w,c
  5001   00113A  B0D8               	btfsc	status,0,c
  5002   00113C  EFA2  F008         	goto	u3551
  5003   001140  EFA4  F008         	goto	u3550
  5004   001144                     u3551:
  5005   001144  EFEC  F008         	goto	l3344
  5006   001148                     u3550:
  5007   001148                     l3334:
  5008                           
  5009                           ;C:\Program Files\Microchip\xc8\v2.40\pic\sources\c99\common\doprnt.c: 584:    g = u;
  5010   001148  C0A2  F09E         	movff	efgtoa@u,efgtoa@g
  5011   00114C  C0A3  F09F         	movff	efgtoa@u+1,efgtoa@g+1
  5012   001150  C0A4  F0A0         	movff	efgtoa@u+2,efgtoa@g+2
  5013   001154  C0A5  F0A1         	movff	efgtoa@u+3,efgtoa@g+3
  5014                           
  5015                           ;C:\Program Files\Microchip\xc8\v2.40\pic\sources\c99\common\doprnt.c: 585:   }
  5016   001158  EF05  F009         	goto	l956
  5017   00115C                     l3336:
  5018                           
  5019                           ;C:\Program Files\Microchip\xc8\v2.40\pic\sources\c99\common\doprnt.c: 588:     u.f = u.
      +                          f/10.0;
  5020   00115C  C0A2  F032         	movff	efgtoa@u,___fldiv@b
  5021   001160  C0A3  F033         	movff	efgtoa@u+1,___fldiv@b+1
  5022   001164  C0A4  F034         	movff	efgtoa@u+2,___fldiv@b+2
  5023   001168  C0A5  F035         	movff	efgtoa@u+3,___fldiv@b+3
  5024   00116C  0E00               	movlw	0
  5025   00116E  6E36               	movwf	___fldiv@a^0,c
  5026   001170  0E00               	movlw	0
  5027   001172  6E37               	movwf	(___fldiv@a+1)^0,c
  5028   001174  0E20               	movlw	32
  5029   001176  6E38               	movwf	(___fldiv@a+2)^0,c
  5030   001178  0E41               	movlw	65
  5031   00117A  6E39               	movwf	(___fldiv@a+3)^0,c
  5032   00117C  EC3F  F016         	call	___fldiv	;wreg free
  5033   001180  C032  F0A2         	movff	?___fldiv,efgtoa@u
  5034   001184  C033  F0A3         	movff	?___fldiv+1,efgtoa@u+1
  5035   001188  C034  F0A4         	movff	?___fldiv+2,efgtoa@u+2
  5036   00118C  C035  F0A5         	movff	?___fldiv+3,efgtoa@u+3
  5037   001190                     
  5038                           ;C:\Program Files\Microchip\xc8\v2.40\pic\sources\c99\common\doprnt.c: 589:     --e;
  5039   001190  0100               	movlb	0	; () banked
  5040   001192  0789               	decf	efgtoa@e& (0+255),f,b
  5041   001194  A0D8               	btfss	status,0,c
  5042   001196  078A               	decf	(efgtoa@e+1)& (0+255),f,b
  5043   001198                     
  5044                           ; BSR set to: 0
  5045                           ;C:\Program Files\Microchip\xc8\v2.40\pic\sources\c99\common\doprnt.c: 590:     if ((lab
      +                          s((g).u-(u).u) <= 1)) {
  5046   001198  51A2               	movf	efgtoa@u& (0+255),w,b
  5047   00119A  5D9E               	subwf	efgtoa@g& (0+255),w,b
  5048   00119C  6E01               	movwf	labs@a^0,c
  5049   00119E  51A3               	movf	(efgtoa@u+1)& (0+255),w,b
  5050   0011A0  599F               	subwfb	(efgtoa@g+1)& (0+255),w,b
  5051   0011A2  6E02               	movwf	(labs@a+1)^0,c
  5052   0011A4  51A4               	movf	(efgtoa@u+2)& (0+255),w,b
  5053   0011A6  59A0               	subwfb	(efgtoa@g+2)& (0+255),w,b
  5054   0011A8  6E03               	movwf	(labs@a+2)^0,c
  5055   0011AA  51A5               	movf	(efgtoa@u+3)& (0+255),w,b
  5056   0011AC  59A1               	subwfb	(efgtoa@g+3)& (0+255),w,b
  5057   0011AE  6E04               	movwf	(labs@a+3)^0,c
  5058   0011B0  EC08  F020         	call	_labs	;wreg free
  5059   0011B4  BE04               	btfsc	(?_labs+3)^0,7,c
  5060   0011B6  EFEA  F008         	goto	u3560
  5061   0011BA  5004               	movf	(?_labs+3)^0,w,c
  5062   0011BC  1003               	iorwf	(?_labs+2)^0,w,c
  5063   0011BE  1002               	iorwf	(?_labs+1)^0,w,c
  5064   0011C0  E107               	bnz	u3561
  5065   0011C2  0E02               	movlw	2
  5066   0011C4  5C01               	subwf	?_labs^0,w,c
  5067   0011C6  B0D8               	btfsc	status,0,c
  5068   0011C8  EFE8  F008         	goto	u3561
  5069   0011CC  EFEA  F008         	goto	u3560
  5070   0011D0                     u3561:
  5071   0011D0  EFEC  F008         	goto	l3344
  5072   0011D4                     u3560:
  5073   0011D4  EFA4  F008         	goto	l3334
  5074   0011D8                     l3344:
  5075                           
  5076                           ;C:\Program Files\Microchip\xc8\v2.40\pic\sources\c99\common\doprnt.c: 587:    while (g.
      +                          f < u.f) {
  5077   0011D8  C09E  F057         	movff	efgtoa@g,___flge@ff1
  5078   0011DC  C09F  F058         	movff	efgtoa@g+1,___flge@ff1+1
  5079   0011E0  C0A0  F059         	movff	efgtoa@g+2,___flge@ff1+2
  5080   0011E4  C0A1  F05A         	movff	efgtoa@g+3,___flge@ff1+3
  5081   0011E8  C0A2  F05B         	movff	efgtoa@u,___flge@ff2
  5082   0011EC  C0A3  F05C         	movff	efgtoa@u+1,___flge@ff2+1
  5083   0011F0  C0A4  F05D         	movff	efgtoa@u+2,___flge@ff2+2
  5084   0011F4  C0A5  F05E         	movff	efgtoa@u+3,___flge@ff2+3
  5085   0011F8  EC9C  F01C         	call	___flge	;wreg free
  5086   0011FC  A0D8               	btfss	status,0,c
  5087   0011FE  EF03  F009         	goto	u3571
  5088   001202  EF05  F009         	goto	u3570
  5089   001206                     u3571:
  5090   001206  EFAE  F008         	goto	l3336
  5091   00120A                     u3570:
  5092   00120A                     l956:
  5093                           
  5094                           ;C:\Program Files\Microchip\xc8\v2.40\pic\sources\c99\common\doprnt.c: 602:  mode = c;
  5095   00120A  C077  F083         	movff	efgtoa@c,efgtoa@mode
  5096                           
  5097                           ;C:\Program Files\Microchip\xc8\v2.40\pic\sources\c99\common\doprnt.c: 604:     nmode = 
      +                          mode;
  5098   00120E  C083  F084         	movff	efgtoa@mode,efgtoa@nmode
  5099   001212                     
  5100                           ;C:\Program Files\Microchip\xc8\v2.40\pic\sources\c99\common\doprnt.c: 614:  {;C:\Progra
      +                          m Files\Microchip\xc8\v2.40\pic\sources\c99\common\doprnt.c: 615:         p = (prec < 0)
      +                           ? 6 : prec;
  5101   001212  0100               	movlb	0	; () banked
  5102   001214  BFF9               	btfsc	(_prec+1)& (0+255),7,b
  5103   001216  EF0F  F009         	goto	u3581
  5104   00121A  EF11  F009         	goto	u3580
  5105   00121E                     u3581:
  5106   00121E  EF17  F009         	goto	l3350
  5107   001222                     u3580:
  5108   001222                     
  5109                           ; BSR set to: 0
  5110   001222  C0F8  F07C         	movff	_prec,efgtoa@p
  5111   001226  C0F9  F07D         	movff	_prec+1,efgtoa@p+1
  5112   00122A  EF1B  F009         	goto	l3352
  5113   00122E                     l3350:
  5114                           
  5115                           ; BSR set to: 0
  5116   00122E  0E00               	movlw	0
  5117   001230  6F7D               	movwf	(efgtoa@p+1)& (0+255),b
  5118   001232  0E06               	movlw	6
  5119   001234  6F7C               	movwf	efgtoa@p& (0+255),b
  5120   001236                     l3352:
  5121                           
  5122                           ; BSR set to: 0
  5123                           ;C:\Program Files\Microchip\xc8\v2.40\pic\sources\c99\common\doprnt.c: 616:     };C:\Pro
      +                          gram Files\Microchip\xc8\v2.40\pic\sources\c99\common\doprnt.c: 630:     m = p;
  5124   001236  C07C  F087         	movff	efgtoa@p,efgtoa@m
  5125   00123A  C07D  F088         	movff	efgtoa@p+1,efgtoa@m+1
  5126   00123E                     
  5127                           ; BSR set to: 0
  5128                           ;C:\Program Files\Microchip\xc8\v2.40\pic\sources\c99\common\doprnt.c: 634:  {;C:\Progra
      +                          m Files\Microchip\xc8\v2.40\pic\sources\c99\common\doprnt.c: 635:         ++m;
  5129   00123E  4B87               	infsnz	efgtoa@m& (0+255),f,b
  5130   001240  2B88               	incf	(efgtoa@m+1)& (0+255),f,b
  5131   001242                     
  5132                           ; BSR set to: 0
  5133                           ;C:\Program Files\Microchip\xc8\v2.40\pic\sources\c99\common\doprnt.c: 636:     };C:\Pro
      +                          gram Files\Microchip\xc8\v2.40\pic\sources\c99\common\doprnt.c: 640:     if (nmode == 'f
      +                          ') {
  5134   001242  0E66               	movlw	102
  5135   001244  1984               	xorwf	efgtoa@nmode& (0+255),w,b
  5136   001246  A4D8               	btfss	status,2,c
  5137   001248  EF28  F009         	goto	u3591
  5138   00124C  EF2A  F009         	goto	u3590
  5139   001250                     u3591:
  5140   001250  EF4A  F009         	goto	l3366
  5141   001254                     u3590:
  5142   001254                     
  5143                           ; BSR set to: 0
  5144                           ;C:\Program Files\Microchip\xc8\v2.40\pic\sources\c99\common\doprnt.c: 641:         if (
      +                          e < 0) {
  5145   001254  BF8A               	btfsc	(efgtoa@e+1)& (0+255),7,b
  5146   001256  EF31  F009         	goto	u3600
  5147   00125A  EF2F  F009         	goto	u3601
  5148   00125E                     u3601:
  5149   00125E  EF3D  F009         	goto	l3362
  5150   001262                     u3600:
  5151   001262                     
  5152                           ; BSR set to: 0
  5153                           ;C:\Program Files\Microchip\xc8\v2.40\pic\sources\c99\common\doprnt.c: 642:             
      +                          u.f = 1.0;
  5154   001262  0E00               	movlw	0
  5155   001264  6FA2               	movwf	efgtoa@u& (0+255),b
  5156   001266  0E00               	movlw	0
  5157   001268  6FA3               	movwf	(efgtoa@u+1)& (0+255),b
  5158   00126A  0E80               	movlw	128
  5159   00126C  6FA4               	movwf	(efgtoa@u+2)& (0+255),b
  5160   00126E  0E3F               	movlw	63
  5161   001270  6FA5               	movwf	(efgtoa@u+3)& (0+255),b
  5162                           
  5163                           ;C:\Program Files\Microchip\xc8\v2.40\pic\sources\c99\common\doprnt.c: 643:             
      +                          e = 0;
  5164   001272  0E00               	movlw	0
  5165   001274  6F8A               	movwf	(efgtoa@e+1)& (0+255),b
  5166   001276  0E00               	movlw	0
  5167   001278  6F89               	movwf	efgtoa@e& (0+255),b
  5168   00127A                     l3362:
  5169                           
  5170                           ; BSR set to: 0
  5171                           ;C:\Program Files\Microchip\xc8\v2.40\pic\sources\c99\common\doprnt.c: 645:         if (
      +                          !(mode == 'g')) {
  5172   00127A  0E67               	movlw	103
  5173   00127C  1983               	xorwf	efgtoa@mode& (0+255),w,b
  5174   00127E  B4D8               	btfsc	status,2,c
  5175   001280  EF44  F009         	goto	u3611
  5176   001284  EF46  F009         	goto	u3610
  5177   001288                     u3611:
  5178   001288  EF4A  F009         	goto	l3366
  5179   00128C                     u3610:
  5180   00128C                     
  5181                           ; BSR set to: 0
  5182                           ;C:\Program Files\Microchip\xc8\v2.40\pic\sources\c99\common\doprnt.c: 646:             
      +                          m += e;
  5183   00128C  5189               	movf	efgtoa@e& (0+255),w,b
  5184   00128E  2787               	addwf	efgtoa@m& (0+255),f,b
  5185   001290  518A               	movf	(efgtoa@e+1)& (0+255),w,b
  5186   001292  2388               	addwfc	(efgtoa@m+1)& (0+255),f,b
  5187   001294                     l3366:
  5188                           
  5189                           ; BSR set to: 0
  5190                           ;C:\Program Files\Microchip\xc8\v2.40\pic\sources\c99\common\doprnt.c: 652:     i = 0;
  5191   001294  0E00               	movlw	0
  5192   001296  6F92               	movwf	(efgtoa@i+1)& (0+255),b
  5193   001298  0E00               	movlw	0
  5194   00129A  6F91               	movwf	efgtoa@i& (0+255),b
  5195   00129C                     
  5196                           ; BSR set to: 0
  5197                           ;C:\Program Files\Microchip\xc8\v2.40\pic\sources\c99\common\doprnt.c: 653:     h = g.f;
  5198   00129C  C09E  F093         	movff	efgtoa@g,efgtoa@h
  5199   0012A0  C09F  F094         	movff	efgtoa@g+1,efgtoa@h+1
  5200   0012A4  C0A0  F095         	movff	efgtoa@g+2,efgtoa@h+2
  5201   0012A8  C0A1  F096         	movff	efgtoa@g+3,efgtoa@h+3
  5202   0012AC                     
  5203                           ; BSR set to: 0
  5204                           ;C:\Program Files\Microchip\xc8\v2.40\pic\sources\c99\common\doprnt.c: 654:     ou = u;
  5205   0012AC  C0A2  F08D         	movff	efgtoa@u,efgtoa@ou
  5206   0012B0  C0A3  F08E         	movff	efgtoa@u+1,efgtoa@ou+1
  5207   0012B4  C0A4  F08F         	movff	efgtoa@u+2,efgtoa@ou+2
  5208   0012B8  C0A5  F090         	movff	efgtoa@u+3,efgtoa@ou+3
  5209                           
  5210                           ;C:\Program Files\Microchip\xc8\v2.40\pic\sources\c99\common\doprnt.c: 655:     while (i
      +                           < m) {
  5211   0012BC  EFDB  F009         	goto	l3380
  5212   0012C0                     l3372:
  5213                           
  5214                           ; BSR set to: 0
  5215                           ;C:\Program Files\Microchip\xc8\v2.40\pic\sources\c99\common\doprnt.c: 656:         l = 
      +                          floorf(h/u.f);
  5216   0012C0  C093  F032         	movff	efgtoa@h,___fldiv@b
  5217   0012C4  C094  F033         	movff	efgtoa@h+1,___fldiv@b+1
  5218   0012C8  C095  F034         	movff	efgtoa@h+2,___fldiv@b+2
  5219   0012CC  C096  F035         	movff	efgtoa@h+3,___fldiv@b+3
  5220   0012D0  C0A2  F036         	movff	efgtoa@u,___fldiv@a
  5221   0012D4  C0A3  F037         	movff	efgtoa@u+1,___fldiv@a+1
  5222   0012D8  C0A4  F038         	movff	efgtoa@u+2,___fldiv@a+2
  5223   0012DC  C0A5  F039         	movff	efgtoa@u+3,___fldiv@a+3
  5224   0012E0  EC3F  F016         	call	___fldiv	;wreg free
  5225   0012E4  C032  F04B         	movff	?___fldiv,floorf@x
  5226   0012E8  C033  F04C         	movff	?___fldiv+1,floorf@x+1
  5227   0012EC  C034  F04D         	movff	?___fldiv+2,floorf@x+2
  5228   0012F0  C035  F04E         	movff	?___fldiv+3,floorf@x+3
  5229   0012F4  EC98  F019         	call	_floorf	;wreg free
  5230   0012F8  C04B  F097         	movff	?_floorf,efgtoa@l
  5231   0012FC  C04C  F098         	movff	?_floorf+1,efgtoa@l+1
  5232   001300  C04D  F099         	movff	?_floorf+2,efgtoa@l+2
  5233   001304  C04E  F09A         	movff	?_floorf+3,efgtoa@l+3
  5234                           
  5235                           ;C:\Program Files\Microchip\xc8\v2.40\pic\sources\c99\common\doprnt.c: 657:         d = 
      +                          (int)l;
  5236   001308  C097  F001         	movff	efgtoa@l,___fltol@f1
  5237   00130C  C098  F002         	movff	efgtoa@l+1,___fltol@f1+1
  5238   001310  C099  F003         	movff	efgtoa@l+2,___fltol@f1+2
  5239   001314  C09A  F004         	movff	efgtoa@l+3,___fltol@f1+3
  5240   001318  EC19  F01C         	call	___fltol	;wreg free
  5241   00131C  C001  F085         	movff	?___fltol,efgtoa@d
  5242   001320  C002  F086         	movff	?___fltol+1,efgtoa@d+1
  5243   001324                     
  5244                           ;C:\Program Files\Microchip\xc8\v2.40\pic\sources\c99\common\doprnt.c: 658:         h -=
      +                           l*u.f;
  5245   001324  C093  F02A         	movff	efgtoa@h,___flsub@b
  5246   001328  C094  F02B         	movff	efgtoa@h+1,___flsub@b+1
  5247   00132C  C095  F02C         	movff	efgtoa@h+2,___flsub@b+2
  5248   001330  C096  F02D         	movff	efgtoa@h+3,___flsub@b+3
  5249   001334  C097  F04F         	movff	efgtoa@l,___flmul@a
  5250   001338  C098  F050         	movff	efgtoa@l+1,___flmul@a+1
  5251   00133C  C099  F051         	movff	efgtoa@l+2,___flmul@a+2
  5252   001340  C09A  F052         	movff	efgtoa@l+3,___flmul@a+3
  5253   001344  C0A2  F04B         	movff	efgtoa@u,___flmul@b
  5254   001348  C0A3  F04C         	movff	efgtoa@u+1,___flmul@b+1
  5255   00134C  C0A4  F04D         	movff	efgtoa@u+2,___flmul@b+2
  5256   001350  C0A5  F04E         	movff	efgtoa@u+3,___flmul@b+3
  5257   001354  EC2F  F012         	call	___flmul	;wreg free
  5258   001358  C04B  F02E         	movff	?___flmul,___flsub@a
  5259   00135C  C04C  F02F         	movff	?___flmul+1,___flsub@a+1
  5260   001360  C04D  F030         	movff	?___flmul+2,___flsub@a+2
  5261   001364  C04E  F031         	movff	?___flmul+3,___flsub@a+3
  5262   001368  EC7F  F021         	call	___flsub	;wreg free
  5263   00136C  C02A  F093         	movff	?___flsub,efgtoa@h
  5264   001370  C02B  F094         	movff	?___flsub+1,efgtoa@h+1
  5265   001374  C02C  F095         	movff	?___flsub+2,efgtoa@h+2
  5266   001378  C02D  F096         	movff	?___flsub+3,efgtoa@h+3
  5267   00137C                     
  5268                           ;C:\Program Files\Microchip\xc8\v2.40\pic\sources\c99\common\doprnt.c: 659:         u.f 
      +                          = u.f/10.0;
  5269   00137C  C0A2  F032         	movff	efgtoa@u,___fldiv@b
  5270   001380  C0A3  F033         	movff	efgtoa@u+1,___fldiv@b+1
  5271   001384  C0A4  F034         	movff	efgtoa@u+2,___fldiv@b+2
  5272   001388  C0A5  F035         	movff	efgtoa@u+3,___fldiv@b+3
  5273   00138C  0E00               	movlw	0
  5274   00138E  6E36               	movwf	___fldiv@a^0,c
  5275   001390  0E00               	movlw	0
  5276   001392  6E37               	movwf	(___fldiv@a+1)^0,c
  5277   001394  0E20               	movlw	32
  5278   001396  6E38               	movwf	(___fldiv@a+2)^0,c
  5279   001398  0E41               	movlw	65
  5280   00139A  6E39               	movwf	(___fldiv@a+3)^0,c
  5281   00139C  EC3F  F016         	call	___fldiv	;wreg free
  5282   0013A0  C032  F0A2         	movff	?___fldiv,efgtoa@u
  5283   0013A4  C033  F0A3         	movff	?___fldiv+1,efgtoa@u+1
  5284   0013A8  C034  F0A4         	movff	?___fldiv+2,efgtoa@u+2
  5285   0013AC  C035  F0A5         	movff	?___fldiv+3,efgtoa@u+3
  5286   0013B0                     
  5287                           ;C:\Program Files\Microchip\xc8\v2.40\pic\sources\c99\common\doprnt.c: 660:         ++i;
  5288   0013B0  0100               	movlb	0	; () banked
  5289   0013B2  4B91               	infsnz	efgtoa@i& (0+255),f,b
  5290   0013B4  2B92               	incf	(efgtoa@i+1)& (0+255),f,b
  5291   0013B6                     l3380:
  5292                           
  5293                           ; BSR set to: 0
  5294                           ;C:\Program Files\Microchip\xc8\v2.40\pic\sources\c99\common\doprnt.c: 655:     while (i
      +                           < m) {
  5295   0013B6  5187               	movf	efgtoa@m& (0+255),w,b
  5296   0013B8  5D91               	subwf	efgtoa@i& (0+255),w,b
  5297   0013BA  5192               	movf	(efgtoa@i+1)& (0+255),w,b
  5298   0013BC  0A80               	xorlw	128
  5299   0013BE  6F78               	movwf	??_efgtoa& (0+255),b
  5300   0013C0  5188               	movf	(efgtoa@m+1)& (0+255),w,b
  5301   0013C2  0A80               	xorlw	128
  5302   0013C4  5978               	subwfb	??_efgtoa& (0+255),w,b
  5303   0013C6  A0D8               	btfss	status,0,c
  5304   0013C8  EFE8  F009         	goto	u3621
  5305   0013CC  EFEA  F009         	goto	u3620
  5306   0013D0                     u3621:
  5307   0013D0  EF60  F009         	goto	l3372
  5308   0013D4                     u3620:
  5309   0013D4                     
  5310                           ; BSR set to: 0
  5311                           ;C:\Program Files\Microchip\xc8\v2.40\pic\sources\c99\common\doprnt.c: 664:     l = u.f*
      +                          5.0;
  5312   0013D4  C0A2  F04B         	movff	efgtoa@u,___flmul@b
  5313   0013D8  C0A3  F04C         	movff	efgtoa@u+1,___flmul@b+1
  5314   0013DC  C0A4  F04D         	movff	efgtoa@u+2,___flmul@b+2
  5315   0013E0  C0A5  F04E         	movff	efgtoa@u+3,___flmul@b+3
  5316   0013E4  0E00               	movlw	0
  5317   0013E6  6E4F               	movwf	___flmul@a^0,c
  5318   0013E8  0E00               	movlw	0
  5319   0013EA  6E50               	movwf	(___flmul@a+1)^0,c
  5320   0013EC  0EA0               	movlw	160
  5321   0013EE  6E51               	movwf	(___flmul@a+2)^0,c
  5322   0013F0  0E40               	movlw	64
  5323   0013F2  6E52               	movwf	(___flmul@a+3)^0,c
  5324   0013F4  EC2F  F012         	call	___flmul	;wreg free
  5325   0013F8  C04B  F097         	movff	?___flmul,efgtoa@l
  5326   0013FC  C04C  F098         	movff	?___flmul+1,efgtoa@l+1
  5327   001400  C04D  F099         	movff	?___flmul+2,efgtoa@l+2
  5328   001404  C04E  F09A         	movff	?___flmul+3,efgtoa@l+3
  5329   001408                     
  5330                           ;C:\Program Files\Microchip\xc8\v2.40\pic\sources\c99\common\doprnt.c: 665:     if (h < 
      +                          l) {
  5331   001408  C093  F057         	movff	efgtoa@h,___flge@ff1
  5332   00140C  C094  F058         	movff	efgtoa@h+1,___flge@ff1+1
  5333   001410  C095  F059         	movff	efgtoa@h+2,___flge@ff1+2
  5334   001414  C096  F05A         	movff	efgtoa@h+3,___flge@ff1+3
  5335   001418  C097  F05B         	movff	efgtoa@l,___flge@ff2
  5336   00141C  C098  F05C         	movff	efgtoa@l+1,___flge@ff2+1
  5337   001420  C099  F05D         	movff	efgtoa@l+2,___flge@ff2+2
  5338   001424  C09A  F05E         	movff	efgtoa@l+3,___flge@ff2+3
  5339   001428  EC9C  F01C         	call	___flge	;wreg free
  5340   00142C  B0D8               	btfsc	status,0,c
  5341   00142E  EF1B  F00A         	goto	u3631
  5342   001432  EF1D  F00A         	goto	u3630
  5343   001436                     u3631:
  5344   001436  EF28  F00A         	goto	l3388
  5345   00143A                     u3630:
  5346   00143A                     
  5347                           ;C:\Program Files\Microchip\xc8\v2.40\pic\sources\c99\common\doprnt.c: 666:         l = 
      +                          0.0;
  5348   00143A  0E00               	movlw	0
  5349   00143C  0100               	movlb	0	; () banked
  5350   00143E  6F97               	movwf	efgtoa@l& (0+255),b
  5351   001440  0E00               	movlw	0
  5352   001442  6F98               	movwf	(efgtoa@l+1)& (0+255),b
  5353   001444  0E00               	movlw	0
  5354   001446  6F99               	movwf	(efgtoa@l+2)& (0+255),b
  5355   001448  0E00               	movlw	0
  5356   00144A  6F9A               	movwf	(efgtoa@l+3)& (0+255),b
  5357                           
  5358                           ;C:\Program Files\Microchip\xc8\v2.40\pic\sources\c99\common\doprnt.c: 667:     } else {
  5359   00144C  EF51  F00A         	goto	l3394
  5360   001450                     l3388:
  5361                           
  5362                           ;C:\Program Files\Microchip\xc8\v2.40\pic\sources\c99\common\doprnt.c: 669:         if (
      +                          (h == l) && !(d % 2)) {
  5363   001450  C093  F001         	movff	efgtoa@h,___fleq@ff1
  5364   001454  C094  F002         	movff	efgtoa@h+1,___fleq@ff1+1
  5365   001458  C095  F003         	movff	efgtoa@h+2,___fleq@ff1+2
  5366   00145C  C096  F004         	movff	efgtoa@h+3,___fleq@ff1+3
  5367   001460  C097  F005         	movff	efgtoa@l,___fleq@ff2
  5368   001464  C098  F006         	movff	efgtoa@l+1,___fleq@ff2+1
  5369   001468  C099  F007         	movff	efgtoa@l+2,___fleq@ff2+2
  5370   00146C  C09A  F008         	movff	efgtoa@l+3,___fleq@ff2+3
  5371   001470  EC41  F01F         	call	___fleq	;wreg free
  5372   001474  A0D8               	btfss	status,0,c
  5373   001476  EF3F  F00A         	goto	u3641
  5374   00147A  EF41  F00A         	goto	u3640
  5375   00147E                     u3641:
  5376   00147E  EF51  F00A         	goto	l3394
  5377   001482                     u3640:
  5378   001482  0100               	movlb	0	; () banked
  5379   001484  B185               	btfsc	efgtoa@d& (0+255),0,b
  5380   001486  EF47  F00A         	goto	u3651
  5381   00148A  EF49  F00A         	goto	u3650
  5382   00148E                     u3651:
  5383   00148E  EF51  F00A         	goto	l3394
  5384   001492                     u3650:
  5385   001492                     
  5386                           ; BSR set to: 0
  5387                           ;C:\Program Files\Microchip\xc8\v2.40\pic\sources\c99\common\doprnt.c: 670:             
      +                          l = 0.0;
  5388   001492  0E00               	movlw	0
  5389   001494  6F97               	movwf	efgtoa@l& (0+255),b
  5390   001496  0E00               	movlw	0
  5391   001498  6F98               	movwf	(efgtoa@l+1)& (0+255),b
  5392   00149A  0E00               	movlw	0
  5393   00149C  6F99               	movwf	(efgtoa@l+2)& (0+255),b
  5394   00149E  0E00               	movlw	0
  5395   0014A0  6F9A               	movwf	(efgtoa@l+3)& (0+255),b
  5396   0014A2                     l3394:
  5397                           
  5398                           ;C:\Program Files\Microchip\xc8\v2.40\pic\sources\c99\common\doprnt.c: 675:     h = g.f 
      +                          + l;
  5399   0014A2  C09E  F01A         	movff	efgtoa@g,___fladd@b
  5400   0014A6  C09F  F01B         	movff	efgtoa@g+1,___fladd@b+1
  5401   0014AA  C0A0  F01C         	movff	efgtoa@g+2,___fladd@b+2
  5402   0014AE  C0A1  F01D         	movff	efgtoa@g+3,___fladd@b+3
  5403   0014B2  C097  F01E         	movff	efgtoa@l,___fladd@a
  5404   0014B6  C098  F01F         	movff	efgtoa@l+1,___fladd@a+1
  5405   0014BA  C099  F020         	movff	efgtoa@l+2,___fladd@a+2
  5406   0014BE  C09A  F021         	movff	efgtoa@l+3,___fladd@a+3
  5407   0014C2  ECCF  F00F         	call	___fladd	;wreg free
  5408   0014C6  C01A  F093         	movff	?___fladd,efgtoa@h
  5409   0014CA  C01B  F094         	movff	?___fladd+1,efgtoa@h+1
  5410   0014CE  C01C  F095         	movff	?___fladd+2,efgtoa@h+2
  5411   0014D2  C01D  F096         	movff	?___fladd+3,efgtoa@h+3
  5412   0014D6                     
  5413                           ;C:\Program Files\Microchip\xc8\v2.40\pic\sources\c99\common\doprnt.c: 677:  if (h >= (o
      +                          u.f*10.0)) {
  5414   0014D6  C093  F057         	movff	efgtoa@h,___flge@ff1
  5415   0014DA  C094  F058         	movff	efgtoa@h+1,___flge@ff1+1
  5416   0014DE  C095  F059         	movff	efgtoa@h+2,___flge@ff1+2
  5417   0014E2  C096  F05A         	movff	efgtoa@h+3,___flge@ff1+3
  5418   0014E6  0E00               	movlw	0
  5419   0014E8  6E4F               	movwf	___flmul@a^0,c
  5420   0014EA  0E00               	movlw	0
  5421   0014EC  6E50               	movwf	(___flmul@a+1)^0,c
  5422   0014EE  0E20               	movlw	32
  5423   0014F0  6E51               	movwf	(___flmul@a+2)^0,c
  5424   0014F2  0E41               	movlw	65
  5425   0014F4  6E52               	movwf	(___flmul@a+3)^0,c
  5426   0014F6  C08D  F04B         	movff	efgtoa@ou,___flmul@b
  5427   0014FA  C08E  F04C         	movff	efgtoa@ou+1,___flmul@b+1
  5428   0014FE  C08F  F04D         	movff	efgtoa@ou+2,___flmul@b+2
  5429   001502  C090  F04E         	movff	efgtoa@ou+3,___flmul@b+3
  5430   001506  EC2F  F012         	call	___flmul	;wreg free
  5431   00150A  C04B  F05B         	movff	?___flmul,___flge@ff2
  5432   00150E  C04C  F05C         	movff	?___flmul+1,___flge@ff2+1
  5433   001512  C04D  F05D         	movff	?___flmul+2,___flge@ff2+2
  5434   001516  C04E  F05E         	movff	?___flmul+3,___flge@ff2+3
  5435   00151A  EC9C  F01C         	call	___flge	;wreg free
  5436   00151E  A0D8               	btfss	status,0,c
  5437   001520  EF94  F00A         	goto	u3661
  5438   001524  EF96  F00A         	goto	u3660
  5439   001528                     u3661:
  5440   001528  EFBF  F00A         	goto	l3406
  5441   00152C                     u3660:
  5442   00152C                     
  5443                           ;C:\Program Files\Microchip\xc8\v2.40\pic\sources\c99\common\doprnt.c: 678:   e++;
  5444   00152C  0100               	movlb	0	; () banked
  5445   00152E  4B89               	infsnz	efgtoa@e& (0+255),f,b
  5446   001530  2B8A               	incf	(efgtoa@e+1)& (0+255),f,b
  5447   001532                     
  5448                           ; BSR set to: 0
  5449                           ;C:\Program Files\Microchip\xc8\v2.40\pic\sources\c99\common\doprnt.c: 679:   ou.f *= 10
      +                          .0;
  5450   001532  C08D  F04B         	movff	efgtoa@ou,___flmul@b
  5451   001536  C08E  F04C         	movff	efgtoa@ou+1,___flmul@b+1
  5452   00153A  C08F  F04D         	movff	efgtoa@ou+2,___flmul@b+2
  5453   00153E  C090  F04E         	movff	efgtoa@ou+3,___flmul@b+3
  5454   001542  0E00               	movlw	0
  5455   001544  6E4F               	movwf	___flmul@a^0,c
  5456   001546  0E00               	movlw	0
  5457   001548  6E50               	movwf	(___flmul@a+1)^0,c
  5458   00154A  0E20               	movlw	32
  5459   00154C  6E51               	movwf	(___flmul@a+2)^0,c
  5460   00154E  0E41               	movlw	65
  5461   001550  6E52               	movwf	(___flmul@a+3)^0,c
  5462   001552  EC2F  F012         	call	___flmul	;wreg free
  5463   001556  C04B  F08D         	movff	?___flmul,efgtoa@ou
  5464   00155A  C04C  F08E         	movff	?___flmul+1,efgtoa@ou+1
  5465   00155E  C04D  F08F         	movff	?___flmul+2,efgtoa@ou+2
  5466   001562  C04E  F090         	movff	?___flmul+3,efgtoa@ou+3
  5467   001566                     
  5468                           ;C:\Program Files\Microchip\xc8\v2.40\pic\sources\c99\common\doprnt.c: 681:   if (nmode 
      +                          == 'f') {
  5469   001566  0E66               	movlw	102
  5470   001568  0100               	movlb	0	; () banked
  5471   00156A  1984               	xorwf	efgtoa@nmode& (0+255),w,b
  5472   00156C  A4D8               	btfss	status,2,c
  5473   00156E  EFBB  F00A         	goto	u3671
  5474   001572  EFBD  F00A         	goto	u3670
  5475   001576                     u3671:
  5476   001576  EFBF  F00A         	goto	l3406
  5477   00157A                     u3670:
  5478   00157A                     
  5479                           ; BSR set to: 0
  5480                           ;C:\Program Files\Microchip\xc8\v2.40\pic\sources\c99\common\doprnt.c: 683:    m++;
  5481   00157A  4B87               	infsnz	efgtoa@m& (0+255),f,b
  5482   00157C  2B88               	incf	(efgtoa@m+1)& (0+255),f,b
  5483   00157E                     l3406:
  5484                           
  5485                           ;C:\Program Files\Microchip\xc8\v2.40\pic\sources\c99\common\doprnt.c: 689:     u = ou;
  5486   00157E  C08D  F0A2         	movff	efgtoa@ou,efgtoa@u
  5487   001582  C08E  F0A3         	movff	efgtoa@ou+1,efgtoa@u+1
  5488   001586  C08F  F0A4         	movff	efgtoa@ou+2,efgtoa@u+2
  5489   00158A  C090  F0A5         	movff	efgtoa@ou+3,efgtoa@u+3
  5490   00158E                     
  5491                           ;C:\Program Files\Microchip\xc8\v2.40\pic\sources\c99\common\doprnt.c: 693:  ne = e;
  5492   00158E  C089  F07A         	movff	efgtoa@e,efgtoa@ne
  5493   001592  C08A  F07B         	movff	efgtoa@e+1,efgtoa@ne+1
  5494   001596                     
  5495                           ;C:\Program Files\Microchip\xc8\v2.40\pic\sources\c99\common\doprnt.c: 695:     pp = 0;
  5496   001596  0E00               	movlw	0
  5497   001598  0100               	movlb	0	; () banked
  5498   00159A  6F82               	movwf	efgtoa@pp& (0+255),b
  5499   00159C                     
  5500                           ; BSR set to: 0
  5501                           ;C:\Program Files\Microchip\xc8\v2.40\pic\sources\c99\common\doprnt.c: 696:     t = 0;
  5502   00159C  0E00               	movlw	0
  5503   00159E  6F7F               	movwf	(efgtoa@t+1)& (0+255),b
  5504   0015A0  0E00               	movlw	0
  5505   0015A2  6F7E               	movwf	efgtoa@t& (0+255),b
  5506   0015A4                     
  5507                           ; BSR set to: 0
  5508                           ;C:\Program Files\Microchip\xc8\v2.40\pic\sources\c99\common\doprnt.c: 697:     i = 0;
  5509   0015A4  0E00               	movlw	0
  5510   0015A6  6F92               	movwf	(efgtoa@i+1)& (0+255),b
  5511   0015A8  0E00               	movlw	0
  5512   0015AA  6F91               	movwf	efgtoa@i& (0+255),b
  5513                           
  5514                           ;C:\Program Files\Microchip\xc8\v2.40\pic\sources\c99\common\doprnt.c: 698:     while ((
      +                          i < m) && (n < (80 - 5))) {
  5515   0015AC  EFBD  F00B         	goto	l3456
  5516   0015B0                     l3416:
  5517                           
  5518                           ; BSR set to: 0
  5519                           ;C:\Program Files\Microchip\xc8\v2.40\pic\sources\c99\common\doprnt.c: 699:         l = 
      +                          floorf(h/u.f);
  5520   0015B0  C093  F032         	movff	efgtoa@h,___fldiv@b
  5521   0015B4  C094  F033         	movff	efgtoa@h+1,___fldiv@b+1
  5522   0015B8  C095  F034         	movff	efgtoa@h+2,___fldiv@b+2
  5523   0015BC  C096  F035         	movff	efgtoa@h+3,___fldiv@b+3
  5524   0015C0  C0A2  F036         	movff	efgtoa@u,___fldiv@a
  5525   0015C4  C0A3  F037         	movff	efgtoa@u+1,___fldiv@a+1
  5526   0015C8  C0A4  F038         	movff	efgtoa@u+2,___fldiv@a+2
  5527   0015CC  C0A5  F039         	movff	efgtoa@u+3,___fldiv@a+3
  5528   0015D0  EC3F  F016         	call	___fldiv	;wreg free
  5529   0015D4  C032  F04B         	movff	?___fldiv,floorf@x
  5530   0015D8  C033  F04C         	movff	?___fldiv+1,floorf@x+1
  5531   0015DC  C034  F04D         	movff	?___fldiv+2,floorf@x+2
  5532   0015E0  C035  F04E         	movff	?___fldiv+3,floorf@x+3
  5533   0015E4  EC98  F019         	call	_floorf	;wreg free
  5534   0015E8  C04B  F097         	movff	?_floorf,efgtoa@l
  5535   0015EC  C04C  F098         	movff	?_floorf+1,efgtoa@l+1
  5536   0015F0  C04D  F099         	movff	?_floorf+2,efgtoa@l+2
  5537   0015F4  C04E  F09A         	movff	?_floorf+3,efgtoa@l+3
  5538                           
  5539                           ;C:\Program Files\Microchip\xc8\v2.40\pic\sources\c99\common\doprnt.c: 700:         d = 
      +                          (int)l > 9 ? 9 : (int)l;
  5540   0015F8  C097  F001         	movff	efgtoa@l,___fltol@f1
  5541   0015FC  C098  F002         	movff	efgtoa@l+1,___fltol@f1+1
  5542   001600  C099  F003         	movff	efgtoa@l+2,___fltol@f1+2
  5543   001604  C09A  F004         	movff	efgtoa@l+3,___fltol@f1+3
  5544   001608  EC19  F01C         	call	___fltol	;wreg free
  5545   00160C  BE02               	btfsc	(?___fltol+1)^0,7,c
  5546   00160E  EF14  F00B         	goto	u3680
  5547   001612  5002               	movf	(?___fltol+1)^0,w,c
  5548   001614  E107               	bnz	u3681
  5549   001616  0E0A               	movlw	10
  5550   001618  5C01               	subwf	?___fltol^0,w,c
  5551   00161A  B0D8               	btfsc	status,0,c
  5552   00161C  EF12  F00B         	goto	u3681
  5553   001620  EF14  F00B         	goto	u3680
  5554   001624                     u3681:
  5555   001624  EF24  F00B         	goto	l3420
  5556   001628                     u3680:
  5557   001628  C097  F001         	movff	efgtoa@l,___fltol@f1
  5558   00162C  C098  F002         	movff	efgtoa@l+1,___fltol@f1+1
  5559   001630  C099  F003         	movff	efgtoa@l+2,___fltol@f1+2
  5560   001634  C09A  F004         	movff	efgtoa@l+3,___fltol@f1+3
  5561   001638  EC19  F01C         	call	___fltol	;wreg free
  5562   00163C  C001  F085         	movff	?___fltol,efgtoa@d
  5563   001640  C002  F086         	movff	?___fltol+1,efgtoa@d+1
  5564   001644  EF29  F00B         	goto	l986
  5565   001648                     l3420:
  5566   001648  0E00               	movlw	0
  5567   00164A  0100               	movlb	0	; () banked
  5568   00164C  6F86               	movwf	(efgtoa@d+1)& (0+255),b
  5569   00164E  0E09               	movlw	9
  5570   001650  6F85               	movwf	efgtoa@d& (0+255),b
  5571   001652                     l986:
  5572                           
  5573                           ;C:\Program Files\Microchip\xc8\v2.40\pic\sources\c99\common\doprnt.c: 711:   {;C:\Progr
      +                          am Files\Microchip\xc8\v2.40\pic\sources\c99\common\doprnt.c: 712:             if (!pp &
      +                          & (ne < 0)) {
  5574   001652  0100               	movlb	0	; () banked
  5575   001654  5182               	movf	efgtoa@pp& (0+255),w,b
  5576   001656  A4D8               	btfss	status,2,c
  5577   001658  EF30  F00B         	goto	u3691
  5578   00165C  EF32  F00B         	goto	u3690
  5579   001660                     u3691:
  5580   001660  EF5A  F00B         	goto	l3440
  5581   001664                     u3690:
  5582   001664                     
  5583                           ; BSR set to: 0
  5584   001664  BF7B               	btfsc	(efgtoa@ne+1)& (0+255),7,b
  5585   001666  EF39  F00B         	goto	u3700
  5586   00166A  EF37  F00B         	goto	u3701
  5587   00166E                     u3701:
  5588   00166E  EF5A  F00B         	goto	l3440
  5589   001672                     u3700:
  5590   001672                     
  5591                           ; BSR set to: 0
  5592                           ;C:\Program Files\Microchip\xc8\v2.40\pic\sources\c99\common\doprnt.c: 713:             
      +                              dbuf[n++] = '.';
  5593   001672  0E00               	movlw	low _dbuf
  5594   001674  259C               	addwf	efgtoa@n& (0+255),w,b
  5595   001676  6ED9               	movwf	fsr2l,c
  5596   001678  0E01               	movlw	high _dbuf
  5597   00167A  219D               	addwfc	(efgtoa@n+1)& (0+255),w,b
  5598   00167C  6EDA               	movwf	fsr2h,c
  5599   00167E  0E2E               	movlw	46
  5600   001680  6EDF               	movwf	indf2,c
  5601   001682                     
  5602                           ; BSR set to: 0
  5603   001682  4B9C               	infsnz	efgtoa@n& (0+255),f,b
  5604   001684  2B9D               	incf	(efgtoa@n+1)& (0+255),f,b
  5605   001686                     
  5606                           ; BSR set to: 0
  5607                           ;C:\Program Files\Microchip\xc8\v2.40\pic\sources\c99\common\doprnt.c: 714:             
      +                              --w;
  5608   001686  078B               	decf	efgtoa@w& (0+255),f,b
  5609   001688  A0D8               	btfss	status,0,c
  5610   00168A  078C               	decf	(efgtoa@w+1)& (0+255),f,b
  5611   00168C                     
  5612                           ; BSR set to: 0
  5613                           ;C:\Program Files\Microchip\xc8\v2.40\pic\sources\c99\common\doprnt.c: 715:             
      +                              pp = 1;
  5614   00168C  0E01               	movlw	1
  5615   00168E  6F82               	movwf	efgtoa@pp& (0+255),b
  5616   001690  EF5A  F00B         	goto	l3440
  5617   001694                     l3432:
  5618                           
  5619                           ; BSR set to: 0
  5620                           ;C:\Program Files\Microchip\xc8\v2.40\pic\sources\c99\common\doprnt.c: 718:             
      +                              dbuf[n++] = '0';
  5621   001694  0E00               	movlw	low _dbuf
  5622   001696  259C               	addwf	efgtoa@n& (0+255),w,b
  5623   001698  6ED9               	movwf	fsr2l,c
  5624   00169A  0E01               	movlw	high _dbuf
  5625   00169C  219D               	addwfc	(efgtoa@n+1)& (0+255),w,b
  5626   00169E  6EDA               	movwf	fsr2h,c
  5627   0016A0  0E30               	movlw	48
  5628   0016A2  6EDF               	movwf	indf2,c
  5629   0016A4                     
  5630                           ; BSR set to: 0
  5631   0016A4  4B9C               	infsnz	efgtoa@n& (0+255),f,b
  5632   0016A6  2B9D               	incf	(efgtoa@n+1)& (0+255),f,b
  5633   0016A8                     
  5634                           ; BSR set to: 0
  5635                           ;C:\Program Files\Microchip\xc8\v2.40\pic\sources\c99\common\doprnt.c: 719:             
      +                              --w;
  5636   0016A8  078B               	decf	efgtoa@w& (0+255),f,b
  5637   0016AA  A0D8               	btfss	status,0,c
  5638   0016AC  078C               	decf	(efgtoa@w+1)& (0+255),f,b
  5639   0016AE                     
  5640                           ; BSR set to: 0
  5641                           ;C:\Program Files\Microchip\xc8\v2.40\pic\sources\c99\common\doprnt.c: 720:             
      +                              --t;
  5642   0016AE  077E               	decf	efgtoa@t& (0+255),f,b
  5643   0016B0  A0D8               	btfss	status,0,c
  5644   0016B2  077F               	decf	(efgtoa@t+1)& (0+255),f,b
  5645   0016B4                     l3440:
  5646                           
  5647                           ; BSR set to: 0
  5648                           ;C:\Program Files\Microchip\xc8\v2.40\pic\sources\c99\common\doprnt.c: 717:             
      +                          while (t) {
  5649   0016B4  517E               	movf	efgtoa@t& (0+255),w,b
  5650   0016B6  117F               	iorwf	(efgtoa@t+1)& (0+255),w,b
  5651   0016B8  A4D8               	btfss	status,2,c
  5652   0016BA  EF61  F00B         	goto	u3711
  5653   0016BE  EF63  F00B         	goto	u3710
  5654   0016C2                     u3711:
  5655   0016C2  EF4A  F00B         	goto	l3432
  5656   0016C6                     u3710:
  5657   0016C6                     
  5658                           ; BSR set to: 0
  5659                           ;C:\Program Files\Microchip\xc8\v2.40\pic\sources\c99\common\doprnt.c: 722:             
      +                          dbuf[n++] = (char)((int)'0' + d);
  5660   0016C6  0E00               	movlw	low _dbuf
  5661   0016C8  259C               	addwf	efgtoa@n& (0+255),w,b
  5662   0016CA  6ED9               	movwf	fsr2l,c
  5663   0016CC  0E01               	movlw	high _dbuf
  5664   0016CE  219D               	addwfc	(efgtoa@n+1)& (0+255),w,b
  5665   0016D0  6EDA               	movwf	fsr2h,c
  5666   0016D2  5185               	movf	efgtoa@d& (0+255),w,b
  5667   0016D4  0F30               	addlw	48
  5668   0016D6  6EDF               	movwf	indf2,c
  5669   0016D8                     
  5670                           ; BSR set to: 0
  5671   0016D8  4B9C               	infsnz	efgtoa@n& (0+255),f,b
  5672   0016DA  2B9D               	incf	(efgtoa@n+1)& (0+255),f,b
  5673   0016DC                     
  5674                           ; BSR set to: 0
  5675                           ;C:\Program Files\Microchip\xc8\v2.40\pic\sources\c99\common\doprnt.c: 723:             
      +                          --w;
  5676   0016DC  078B               	decf	efgtoa@w& (0+255),f,b
  5677   0016DE  A0D8               	btfss	status,0,c
  5678   0016E0  078C               	decf	(efgtoa@w+1)& (0+255),f,b
  5679   0016E2                     
  5680                           ; BSR set to: 0
  5681                           ;C:\Program Files\Microchip\xc8\v2.40\pic\sources\c99\common\doprnt.c: 724:         };C:
      +                          \Program Files\Microchip\xc8\v2.40\pic\sources\c99\common\doprnt.c: 725:         h -= l*
      +                          u.f;
  5682   0016E2  C093  F02A         	movff	efgtoa@h,___flsub@b
  5683   0016E6  C094  F02B         	movff	efgtoa@h+1,___flsub@b+1
  5684   0016EA  C095  F02C         	movff	efgtoa@h+2,___flsub@b+2
  5685   0016EE  C096  F02D         	movff	efgtoa@h+3,___flsub@b+3
  5686   0016F2  C097  F04F         	movff	efgtoa@l,___flmul@a
  5687   0016F6  C098  F050         	movff	efgtoa@l+1,___flmul@a+1
  5688   0016FA  C099  F051         	movff	efgtoa@l+2,___flmul@a+2
  5689   0016FE  C09A  F052         	movff	efgtoa@l+3,___flmul@a+3
  5690   001702  C0A2  F04B         	movff	efgtoa@u,___flmul@b
  5691   001706  C0A3  F04C         	movff	efgtoa@u+1,___flmul@b+1
  5692   00170A  C0A4  F04D         	movff	efgtoa@u+2,___flmul@b+2
  5693   00170E  C0A5  F04E         	movff	efgtoa@u+3,___flmul@b+3
  5694   001712  EC2F  F012         	call	___flmul	;wreg free
  5695   001716  C04B  F02E         	movff	?___flmul,___flsub@a
  5696   00171A  C04C  F02F         	movff	?___flmul+1,___flsub@a+1
  5697   00171E  C04D  F030         	movff	?___flmul+2,___flsub@a+2
  5698   001722  C04E  F031         	movff	?___flmul+3,___flsub@a+3
  5699   001726  EC7F  F021         	call	___flsub	;wreg free
  5700   00172A  C02A  F093         	movff	?___flsub,efgtoa@h
  5701   00172E  C02B  F094         	movff	?___flsub+1,efgtoa@h+1
  5702   001732  C02C  F095         	movff	?___flsub+2,efgtoa@h+2
  5703   001736  C02D  F096         	movff	?___flsub+3,efgtoa@h+3
  5704   00173A                     
  5705                           ;C:\Program Files\Microchip\xc8\v2.40\pic\sources\c99\common\doprnt.c: 726:         u.f 
      +                          = u.f/10.0;
  5706   00173A  C0A2  F032         	movff	efgtoa@u,___fldiv@b
  5707   00173E  C0A3  F033         	movff	efgtoa@u+1,___fldiv@b+1
  5708   001742  C0A4  F034         	movff	efgtoa@u+2,___fldiv@b+2
  5709   001746  C0A5  F035         	movff	efgtoa@u+3,___fldiv@b+3
  5710   00174A  0E00               	movlw	0
  5711   00174C  6E36               	movwf	___fldiv@a^0,c
  5712   00174E  0E00               	movlw	0
  5713   001750  6E37               	movwf	(___fldiv@a+1)^0,c
  5714   001752  0E20               	movlw	32
  5715   001754  6E38               	movwf	(___fldiv@a+2)^0,c
  5716   001756  0E41               	movlw	65
  5717   001758  6E39               	movwf	(___fldiv@a+3)^0,c
  5718   00175A  EC3F  F016         	call	___fldiv	;wreg free
  5719   00175E  C032  F0A2         	movff	?___fldiv,efgtoa@u
  5720   001762  C033  F0A3         	movff	?___fldiv+1,efgtoa@u+1
  5721   001766  C034  F0A4         	movff	?___fldiv+2,efgtoa@u+2
  5722   00176A  C035  F0A5         	movff	?___fldiv+3,efgtoa@u+3
  5723   00176E                     
  5724                           ;C:\Program Files\Microchip\xc8\v2.40\pic\sources\c99\common\doprnt.c: 727:         --ne
      +                          ;
  5725   00176E  0100               	movlb	0	; () banked
  5726   001770  077A               	decf	efgtoa@ne& (0+255),f,b
  5727   001772  A0D8               	btfss	status,0,c
  5728   001774  077B               	decf	(efgtoa@ne+1)& (0+255),f,b
  5729   001776                     
  5730                           ; BSR set to: 0
  5731                           ;C:\Program Files\Microchip\xc8\v2.40\pic\sources\c99\common\doprnt.c: 728:         ++i;
  5732   001776  4B91               	infsnz	efgtoa@i& (0+255),f,b
  5733   001778  2B92               	incf	(efgtoa@i+1)& (0+255),f,b
  5734   00177A                     l3456:
  5735                           
  5736                           ; BSR set to: 0
  5737                           ;C:\Program Files\Microchip\xc8\v2.40\pic\sources\c99\common\doprnt.c: 698:     while ((
      +                          i < m) && (n < (80 - 5))) {
  5738   00177A  5187               	movf	efgtoa@m& (0+255),w,b
  5739   00177C  5D91               	subwf	efgtoa@i& (0+255),w,b
  5740   00177E  5192               	movf	(efgtoa@i+1)& (0+255),w,b
  5741   001780  0A80               	xorlw	128
  5742   001782  6F78               	movwf	??_efgtoa& (0+255),b
  5743   001784  5188               	movf	(efgtoa@m+1)& (0+255),w,b
  5744   001786  0A80               	xorlw	128
  5745   001788  5978               	subwfb	??_efgtoa& (0+255),w,b
  5746   00178A  B0D8               	btfsc	status,0,c
  5747   00178C  EFCA  F00B         	goto	u3721
  5748   001790  EFCC  F00B         	goto	u3720
  5749   001794                     u3721:
  5750   001794  EFDA  F00B         	goto	l3460
  5751   001798                     u3720:
  5752   001798                     
  5753                           ; BSR set to: 0
  5754   001798  BF9D               	btfsc	(efgtoa@n+1)& (0+255),7,b
  5755   00179A  EFD8  F00B         	goto	u3731
  5756   00179E  519D               	movf	(efgtoa@n+1)& (0+255),w,b
  5757   0017A0  E109               	bnz	u3730
  5758   0017A2  0E4B               	movlw	75
  5759   0017A4  5D9C               	subwf	efgtoa@n& (0+255),w,b
  5760   0017A6  A0D8               	btfss	status,0,c
  5761   0017A8  EFD8  F00B         	goto	u3731
  5762   0017AC  EFDA  F00B         	goto	u3730
  5763   0017B0                     u3731:
  5764   0017B0  EFD8  F00A         	goto	l3416
  5765   0017B4                     u3730:
  5766   0017B4                     l3460:
  5767                           
  5768                           ; BSR set to: 0
  5769                           ;C:\Program Files\Microchip\xc8\v2.40\pic\sources\c99\common\doprnt.c: 735:  i = sizeof(
      +                          dbuf) - 1;
  5770   0017B4  0E00               	movlw	0
  5771   0017B6  6F92               	movwf	(efgtoa@i+1)& (0+255),b
  5772   0017B8  0E4F               	movlw	79
  5773   0017BA  6F91               	movwf	efgtoa@i& (0+255),b
  5774   0017BC                     
  5775                           ; BSR set to: 0
  5776                           ;C:\Program Files\Microchip\xc8\v2.40\pic\sources\c99\common\doprnt.c: 736:     dbuf[i] 
      +                          = '\0';
  5777   0017BC  0E00               	movlw	low _dbuf
  5778   0017BE  2591               	addwf	efgtoa@i& (0+255),w,b
  5779   0017C0  6ED9               	movwf	fsr2l,c
  5780   0017C2  0E01               	movlw	high _dbuf
  5781   0017C4  2192               	addwfc	(efgtoa@i+1)& (0+255),w,b
  5782   0017C6  6EDA               	movwf	fsr2h,c
  5783   0017C8  0E00               	movlw	0
  5784   0017CA  6EDF               	movwf	indf2,c
  5785   0017CC                     
  5786                           ; BSR set to: 0
  5787                           ;C:\Program Files\Microchip\xc8\v2.40\pic\sources\c99\common\doprnt.c: 767:  memcpy(&dbu
      +                          f[i-n], &dbuf[0], (size_t)n);
  5788   0017CC  0E00               	movlw	low _dbuf
  5789   0017CE  6F78               	movwf	??_efgtoa& (0+255),b
  5790   0017D0  0E01               	movlw	high _dbuf
  5791   0017D2  6F79               	movwf	(??_efgtoa+1)& (0+255),b
  5792   0017D4  519C               	movf	efgtoa@n& (0+255),w,b
  5793   0017D6  5F78               	subwf	??_efgtoa& (0+255),f,b
  5794   0017D8  519D               	movf	(efgtoa@n+1)& (0+255),w,b
  5795   0017DA  5B79               	subwfb	(??_efgtoa+1)& (0+255),f,b
  5796   0017DC  5191               	movf	efgtoa@i& (0+255),w,b
  5797   0017DE  2578               	addwf	??_efgtoa& (0+255),w,b
  5798   0017E0  6E01               	movwf	memcpy@d1^0,c
  5799   0017E2  5192               	movf	(efgtoa@i+1)& (0+255),w,b
  5800   0017E4  2179               	addwfc	(??_efgtoa+1)& (0+255),w,b
  5801   0017E6  6E02               	movwf	(memcpy@d1+1)^0,c
  5802   0017E8  0E00               	movlw	low _dbuf
  5803   0017EA  6E03               	movwf	memcpy@s1^0,c
  5804   0017EC  0E01               	movlw	high _dbuf
  5805   0017EE  6E04               	movwf	(memcpy@s1+1)^0,c
  5806   0017F0  C09C  F005         	movff	efgtoa@n,memcpy@n
  5807   0017F4  C09D  F006         	movff	efgtoa@n+1,memcpy@n+1
  5808   0017F8  EC57  F021         	call	_memcpy	;wreg free
  5809   0017FC                     
  5810                           ;C:\Program Files\Microchip\xc8\v2.40\pic\sources\c99\common\doprnt.c: 768:  n = i-n;
  5811   0017FC  0100               	movlb	0	; () banked
  5812   0017FE  519C               	movf	efgtoa@n& (0+255),w,b
  5813   001800  5D91               	subwf	efgtoa@i& (0+255),w,b
  5814   001802  6F9C               	movwf	efgtoa@n& (0+255),b
  5815   001804  519D               	movf	(efgtoa@n+1)& (0+255),w,b
  5816   001806  5992               	subwfb	(efgtoa@i+1)& (0+255),w,b
  5817   001808  6F9D               	movwf	(efgtoa@n+1)& (0+255),b
  5818   00180A                     
  5819                           ; BSR set to: 0
  5820                           ;C:\Program Files\Microchip\xc8\v2.40\pic\sources\c99\common\doprnt.c: 769:  i = sign ==
      +                           0 ? 0 : 1;
  5821   00180A  519B               	movf	efgtoa@sign& (0+255),w,b
  5822   00180C  A4D8               	btfss	status,2,c
  5823   00180E  EF0B  F00C         	goto	u3741
  5824   001812  EF0E  F00C         	goto	u3740
  5825   001816                     u3741:
  5826   001816  0E01               	movlw	1
  5827   001818  EF0F  F00C         	goto	u3750
  5828   00181C                     u3740:
  5829   00181C  0E00               	movlw	0
  5830   00181E                     u3750:
  5831   00181E  6F91               	movwf	efgtoa@i& (0+255),b
  5832   001820  6B92               	clrf	(efgtoa@i+1)& (0+255),b
  5833   001822                     
  5834                           ; BSR set to: 0
  5835                           ;C:\Program Files\Microchip\xc8\v2.40\pic\sources\c99\common\doprnt.c: 780:  if (sign) {
  5836   001822  519B               	movf	efgtoa@sign& (0+255),w,b
  5837   001824  B4D8               	btfsc	status,2,c
  5838   001826  EF17  F00C         	goto	u3761
  5839   00182A  EF19  F00C         	goto	u3760
  5840   00182E                     u3761:
  5841   00182E  EF24  F00C         	goto	l3474
  5842   001832                     u3760:
  5843   001832                     
  5844                           ; BSR set to: 0
  5845                           ;C:\Program Files\Microchip\xc8\v2.40\pic\sources\c99\common\doprnt.c: 781:   dbuf[--n] 
      +                          = sign;
  5846   001832  079C               	decf	efgtoa@n& (0+255),f,b
  5847   001834  A0D8               	btfss	status,0,c
  5848   001836  079D               	decf	(efgtoa@n+1)& (0+255),f,b
  5849   001838  0E00               	movlw	low _dbuf
  5850   00183A  259C               	addwf	efgtoa@n& (0+255),w,b
  5851   00183C  6ED9               	movwf	fsr2l,c
  5852   00183E  0E01               	movlw	high _dbuf
  5853   001840  219D               	addwfc	(efgtoa@n+1)& (0+255),w,b
  5854   001842  6EDA               	movwf	fsr2h,c
  5855   001844  C09B  FFDF         	movff	efgtoa@sign,indf2
  5856   001848                     l3474:
  5857                           
  5858                           ; BSR set to: 0
  5859                           ;C:\Program Files\Microchip\xc8\v2.40\pic\sources\c99\common\doprnt.c: 783:  w -= i;
  5860   001848  5191               	movf	efgtoa@i& (0+255),w,b
  5861   00184A  5F8B               	subwf	efgtoa@w& (0+255),f,b
  5862   00184C  5192               	movf	(efgtoa@i+1)& (0+255),w,b
  5863   00184E  5B8C               	subwfb	(efgtoa@w+1)& (0+255),f,b
  5864   001850                     
  5865                           ; BSR set to: 0
  5866                           ;C:\Program Files\Microchip\xc8\v2.40\pic\sources\c99\common\doprnt.c: 786:     return (
      +                          void) pad(fp, &dbuf[n], w);
  5867   001850  C071  F011         	movff	efgtoa@fp,pad@fp
  5868   001854  C072  F012         	movff	efgtoa@fp+1,pad@fp+1
  5869   001858  0E00               	movlw	low _dbuf
  5870   00185A  259C               	addwf	efgtoa@n& (0+255),w,b
  5871   00185C  6E13               	movwf	pad@buf^0,c
  5872   00185E  0E01               	movlw	high _dbuf
  5873   001860  219D               	addwfc	(efgtoa@n+1)& (0+255),w,b
  5874   001862  6E14               	movwf	(pad@buf+1)^0,c
  5875   001864  C08B  F015         	movff	efgtoa@w,pad@p
  5876   001868  C08C  F016         	movff	efgtoa@w+1,pad@p+1
  5877   00186C  EC96  F01F         	call	_pad	;wreg free
  5878   001870                     l953:
  5879   001870  0012               	return		;funcret
  5880   001872                     __end_of_efgtoa:
  5881                           	callstack 0
  5882                           
  5883 ;; *************** function _strcpy *****************
  5884 ;; Defined at:
  5885 ;;		line 3 in file "C:\Program Files\Microchip\xc8\v2.40\pic\sources\c99\common\strcpy.c"
  5886 ;; Parameters:    Size  Location     Type
  5887 ;;  dest            2    0[COMRAM] PTR unsigned char 
  5888 ;;		 -> dbuf(80), 
  5889 ;;  src             2    2[COMRAM] PTR const unsigned char 
  5890 ;;		 -> STR_37(4), STR_34(4), 
  5891 ;; Auto vars:     Size  Location     Type
  5892 ;;  d               2    6[COMRAM] PTR unsigned char 
  5893 ;;		 -> dbuf(80), 
  5894 ;;  s               2    4[COMRAM] PTR const unsigned char 
  5895 ;;		 -> STR_37(4), STR_34(4), 
  5896 ;; Return value:  Size  Location     Type
  5897 ;;                  2    0[COMRAM] PTR unsigned char 
  5898 ;; Registers used:
  5899 ;;		wreg, fsr2l, fsr2h, status,2, status,0, tblptrl, tblptrh, tblptru
  5900 ;; Tracked objects:
  5901 ;;		On entry : 0/0
  5902 ;;		On exit  : 0/0
  5903 ;;		Unchanged: 0/0
  5904 ;; Data sizes:     COMRAM   BANK0   BANK1   BANK2   BANK3   BANK4   BANK5   BANK6   BANK7   BANK8   BANK9  BANK10  BANK1
      +1  BANK12  BANK13
  5905 ;;      Params:         4       0       0       0       0       0       0       0       0       0       0       0       
      +0       0       0
  5906 ;;      Locals:         4       0       0       0       0       0       0       0       0       0       0       0       
      +0       0       0
  5907 ;;      Temps:          0       0       0       0       0       0       0       0       0       0       0       0       
      +0       0       0
  5908 ;;      Totals:         8       0       0       0       0       0       0       0       0       0       0       0       
      +0       0       0
  5909 ;;Total ram usage:        8 bytes
  5910 ;; Hardware stack levels used: 1
  5911 ;; This function calls:
  5912 ;;		Nothing
  5913 ;; This function is called by:
  5914 ;;		_efgtoa
  5915 ;; This function uses a non-reentrant model
  5916 ;;
  5917                           
  5918                           	psect	text26
  5919   004344                     __ptext26:
  5920                           	callstack 0
  5921   004344                     _strcpy:
  5922                           	callstack 25
  5923   004344  C003  F005         	movff	strcpy@src,strcpy@s
  5924   004348  C004  F006         	movff	strcpy@src+1,strcpy@s+1
  5925   00434C  C001  F007         	movff	strcpy@dest,strcpy@d
  5926   004350  C002  F008         	movff	strcpy@dest+1,strcpy@d+1
  5927   004354                     l3202:
  5928   004354  C005  FFF6         	movff	strcpy@s,tblptrl
  5929   004358  C006  FFF7         	movff	strcpy@s+1,tblptrh
  5930   00435C  4A05               	infsnz	strcpy@s^0,f,c
  5931   00435E  2A06               	incf	(strcpy@s+1)^0,f,c
  5932   004360                     	if	0	;tblptru may be non-zero
  5933   004360                     	endif
  5934   004360                     	if	1	;Program memory is > 0xFFFF, there are 3 active tblptr bytes
  5935   004360  0E00               	movlw	low (__mediumconst shr (0+16))
  5936   004362  6EF8               	movwf	tblptru,c
  5937   004364                     	endif
  5938   004364  C007  FFD9         	movff	strcpy@d,fsr2l
  5939   004368  C008  FFDA         	movff	strcpy@d+1,fsr2h
  5940   00436C  4A07               	infsnz	strcpy@d^0,f,c
  5941   00436E  2A08               	incf	(strcpy@d+1)^0,f,c
  5942   004370  0008               	tblrd		*
  5943   004372  CFF5 FFDF          	movff	tablat,indf2
  5944   004376  50DF               	movf	indf2,w,c
  5945   004378  A4D8               	btfss	status,2,c
  5946   00437A  EFC1  F021         	goto	u3301
  5947   00437E  EFC3  F021         	goto	u3300
  5948   004382                     u3301:
  5949   004382  EFAA  F021         	goto	l3202
  5950   004386                     u3300:
  5951   004386  0012               	return		;funcret
  5952   004388                     __end_of_strcpy:
  5953                           	callstack 0
  5954                           
  5955 ;; *************** function _pad *****************
  5956 ;; Defined at:
  5957 ;;		line 133 in file "C:\Program Files\Microchip\xc8\v2.40\pic\sources\c99\common\doprnt.c"
  5958 ;; Parameters:    Size  Location     Type
  5959 ;;  fp              2   16[COMRAM] PTR struct _IO_FILE
  5960 ;;		 -> sprintf@f(11), 
  5961 ;;  buf             2   18[COMRAM] PTR unsigned char 
  5962 ;;		 -> dbuf(80), 
  5963 ;;  p               2   20[COMRAM] int 
  5964 ;; Auto vars:     Size  Location     Type
  5965 ;;  w               2   25[COMRAM] int 
  5966 ;;  i               2   23[COMRAM] int 
  5967 ;; Return value:  Size  Location     Type
  5968 ;;                  1    wreg      void 
  5969 ;; Registers used:
  5970 ;;		wreg, fsr1l, fsr1h, fsr2l, fsr2h, status,2, status,0, cstack
  5971 ;; Tracked objects:
  5972 ;;		On entry : 0/0
  5973 ;;		On exit  : 0/0
  5974 ;;		Unchanged: 0/0
  5975 ;; Data sizes:     COMRAM   BANK0   BANK1   BANK2   BANK3   BANK4   BANK5   BANK6   BANK7   BANK8   BANK9  BANK10  BANK1
      +1  BANK12  BANK13
  5976 ;;      Params:         6       0       0       0       0       0       0       0       0       0       0       0       
      +0       0       0
  5977 ;;      Locals:         4       0       0       0       0       0       0       0       0       0       0       0       
      +0       0       0
  5978 ;;      Temps:          1       0       0       0       0       0       0       0       0       0       0       0       
      +0       0       0
  5979 ;;      Totals:        11       0       0       0       0       0       0       0       0       0       0       0       
      +0       0       0
  5980 ;;Total ram usage:       11 bytes
  5981 ;; Hardware stack levels used: 1
  5982 ;; Hardware stack levels required when called: 3
  5983 ;; This function calls:
  5984 ;;		_fputc
  5985 ;;		_fputs
  5986 ;; This function is called by:
  5987 ;;		_efgtoa
  5988 ;; This function uses a non-reentrant model
  5989 ;;
  5990                           
  5991                           	psect	text27
  5992   003F2C                     __ptext27:
  5993                           	callstack 0
  5994   003F2C                     _pad:
  5995                           	callstack 22
  5996   003F2C                     
  5997                           ;C:\Program Files\Microchip\xc8\v2.40\pic\sources\c99\common\doprnt.c: 133: static void 
      +                          pad(FILE *fp, char *buf, int p);C:\Program Files\Microchip\xc8\v2.40\pic\sources\c99\com
      +                          mon\doprnt.c: 134: {;C:\Program Files\Microchip\xc8\v2.40\pic\sources\c99\common\doprnt.
      +                          c: 135:     int i, w;;C:\Program Files\Microchip\xc8\v2.40\pic\sources\c99\common\doprnt
      +                          .c: 145:     w = (p < 0) ? 0 : p;
  5998   003F2C  BE16               	btfsc	(pad@p+1)^0,7,c
  5999   003F2E  EF9B  F01F         	goto	u3211
  6000   003F32  EF9D  F01F         	goto	u3210
  6001   003F36                     u3211:
  6002   003F36  EFA3  F01F         	goto	l3168
  6003   003F3A                     u3210:
  6004   003F3A  C015  F01A         	movff	pad@p,pad@w
  6005   003F3E  C016  F01B         	movff	pad@p+1,pad@w+1
  6006   003F42  EFA7  F01F         	goto	l938
  6007   003F46                     l3168:
  6008   003F46  0E00               	movlw	0
  6009   003F48  6E1B               	movwf	(pad@w+1)^0,c
  6010   003F4A  0E00               	movlw	0
  6011   003F4C  6E1A               	movwf	pad@w^0,c
  6012   003F4E                     l938:
  6013                           
  6014                           ;C:\Program Files\Microchip\xc8\v2.40\pic\sources\c99\common\doprnt.c: 146:     i = 0;
  6015   003F4E  0E00               	movlw	0
  6016   003F50  6E19               	movwf	(pad@i+1)^0,c
  6017   003F52  0E00               	movlw	0
  6018   003F54  6E18               	movwf	pad@i^0,c
  6019                           
  6020                           ;C:\Program Files\Microchip\xc8\v2.40\pic\sources\c99\common\doprnt.c: 147:     while (i
      +                           < w) {
  6021   003F56  EFB9  F01F         	goto	l3174
  6022   003F5A                     l3170:
  6023                           
  6024                           ;C:\Program Files\Microchip\xc8\v2.40\pic\sources\c99\common\doprnt.c: 148:         fput
      +                          c(' ', fp);
  6025   003F5A  0E00               	movlw	0
  6026   003F5C  6E02               	movwf	(fputc@c+1)^0,c
  6027   003F5E  0E20               	movlw	32
  6028   003F60  6E01               	movwf	fputc@c^0,c
  6029   003F62  C011  F003         	movff	pad@fp,fputc@fp
  6030   003F66  C012  F004         	movff	pad@fp+1,fputc@fp+1
  6031   003F6A  EC86  F01E         	call	_fputc	;wreg free
  6032   003F6E                     
  6033                           ;C:\Program Files\Microchip\xc8\v2.40\pic\sources\c99\common\doprnt.c: 149:         ++i;
  6034   003F6E  4A18               	infsnz	pad@i^0,f,c
  6035   003F70  2A19               	incf	(pad@i+1)^0,f,c
  6036   003F72                     l3174:
  6037                           
  6038                           ;C:\Program Files\Microchip\xc8\v2.40\pic\sources\c99\common\doprnt.c: 147:     while (i
      +                           < w) {
  6039   003F72  501A               	movf	pad@w^0,w,c
  6040   003F74  5C18               	subwf	pad@i^0,w,c
  6041   003F76  5019               	movf	(pad@i+1)^0,w,c
  6042   003F78  0A80               	xorlw	128
  6043   003F7A  6E17               	movwf	??_pad^0,c
  6044   003F7C  501B               	movf	(pad@w+1)^0,w,c
  6045   003F7E  0A80               	xorlw	128
  6046   003F80  5817               	subwfb	??_pad^0,w,c
  6047   003F82  A0D8               	btfss	status,0,c
  6048   003F84  EFC6  F01F         	goto	u3221
  6049   003F88  EFC8  F01F         	goto	u3220
  6050   003F8C                     u3221:
  6051   003F8C  EFAD  F01F         	goto	l3170
  6052   003F90                     u3220:
  6053   003F90                     
  6054                           ;C:\Program Files\Microchip\xc8\v2.40\pic\sources\c99\common\doprnt.c: 156:         fput
      +                          s((const char *)buf, fp);
  6055   003F90  C013  F00A         	movff	pad@buf,fputs@s
  6056   003F94  C014  F00B         	movff	pad@buf+1,fputs@s+1
  6057   003F98  C011  F00C         	movff	pad@fp,fputs@fp
  6058   003F9C  C012  F00D         	movff	pad@fp+1,fputs@fp+1
  6059   003FA0  ECC4  F021         	call	_fputs	;wreg free
  6060   003FA4  0012               	return		;funcret
  6061   003FA6                     __end_of_pad:
  6062                           	callstack 0
  6063                           
  6064 ;; *************** function _fputs *****************
  6065 ;; Defined at:
  6066 ;;		line 8 in file "C:\Program Files\Microchip\xc8\v2.40\pic\sources\c99\common\nf_fputs.c"
  6067 ;; Parameters:    Size  Location     Type
  6068 ;;  s               2    9[COMRAM] PTR const unsigned char 
  6069 ;;		 -> dbuf(80), 
  6070 ;;  fp              2   11[COMRAM] PTR struct _IO_FILE
  6071 ;;		 -> sprintf@f(11), 
  6072 ;; Auto vars:     Size  Location     Type
  6073 ;;  i               2   14[COMRAM] int 
  6074 ;;  c               1   13[COMRAM] unsigned char 
  6075 ;; Return value:  Size  Location     Type
  6076 ;;                  2    9[COMRAM] int 
  6077 ;; Registers used:
  6078 ;;		wreg, fsr1l, fsr1h, fsr2l, fsr2h, status,2, status,0, cstack
  6079 ;; Tracked objects:
  6080 ;;		On entry : 0/0
  6081 ;;		On exit  : 0/0
  6082 ;;		Unchanged: 0/0
  6083 ;; Data sizes:     COMRAM   BANK0   BANK1   BANK2   BANK3   BANK4   BANK5   BANK6   BANK7   BANK8   BANK9  BANK10  BANK1
      +1  BANK12  BANK13
  6084 ;;      Params:         4       0       0       0       0       0       0       0       0       0       0       0       
      +0       0       0
  6085 ;;      Locals:         3       0       0       0       0       0       0       0       0       0       0       0       
      +0       0       0
  6086 ;;      Temps:          0       0       0       0       0       0       0       0       0       0       0       0       
      +0       0       0
  6087 ;;      Totals:         7       0       0       0       0       0       0       0       0       0       0       0       
      +0       0       0
  6088 ;;Total ram usage:        7 bytes
  6089 ;; Hardware stack levels used: 1
  6090 ;; Hardware stack levels required when called: 2
  6091 ;; This function calls:
  6092 ;;		_fputc
  6093 ;; This function is called by:
  6094 ;;		_pad
  6095 ;; This function uses a non-reentrant model
  6096 ;;
  6097                           
  6098                           	psect	text28
  6099   004388                     __ptext28:
  6100                           	callstack 0
  6101   004388                     _fputs:
  6102                           	callstack 22
  6103   004388  0E00               	movlw	0
  6104   00438A  6E10               	movwf	(fputs@i+1)^0,c
  6105   00438C  0E00               	movlw	0
  6106   00438E  6E0F               	movwf	fputs@i^0,c
  6107   004390  EFD5  F021         	goto	l2798
  6108   004394                     l2794:
  6109   004394  C00E  F001         	movff	fputs@c,fputc@c
  6110   004398  6A02               	clrf	(fputc@c+1)^0,c
  6111   00439A  C00C  F003         	movff	fputs@fp,fputc@fp
  6112   00439E  C00D  F004         	movff	fputs@fp+1,fputc@fp+1
  6113   0043A2  EC86  F01E         	call	_fputc	;wreg free
  6114   0043A6  4A0F               	infsnz	fputs@i^0,f,c
  6115   0043A8  2A10               	incf	(fputs@i+1)^0,f,c
  6116   0043AA                     l2798:
  6117   0043AA  500F               	movf	fputs@i^0,w,c
  6118   0043AC  240A               	addwf	fputs@s^0,w,c
  6119   0043AE  6ED9               	movwf	fsr2l,c
  6120   0043B0  5010               	movf	(fputs@i+1)^0,w,c
  6121   0043B2  200B               	addwfc	(fputs@s+1)^0,w,c
  6122   0043B4  6EDA               	movwf	fsr2h,c
  6123   0043B6  50DF               	movf	indf2,w,c
  6124   0043B8  6E0E               	movwf	fputs@c^0,c
  6125   0043BA  500E               	movf	fputs@c^0,w,c
  6126   0043BC  A4D8               	btfss	status,2,c
  6127   0043BE  EFE3  F021         	goto	u2621
  6128   0043C2  EFE5  F021         	goto	u2620
  6129   0043C6                     u2621:
  6130   0043C6  EFCA  F021         	goto	l2794
  6131   0043CA                     u2620:
  6132   0043CA  0012               	return		;funcret
  6133   0043CC                     __end_of_fputs:
  6134                           	callstack 0
  6135                           
  6136 ;; *************** function _fputc *****************
  6137 ;; Defined at:
  6138 ;;		line 8 in file "C:\Program Files\Microchip\xc8\v2.40\pic\sources\c99\common\nf_fputc.c"
  6139 ;; Parameters:    Size  Location     Type
  6140 ;;  c               2    0[COMRAM] int 
  6141 ;;  fp              2    2[COMRAM] PTR struct _IO_FILE
  6142 ;;		 -> sprintf@f(11), 
  6143 ;; Auto vars:     Size  Location     Type
  6144 ;;		None
  6145 ;; Return value:  Size  Location     Type
  6146 ;;                  2    0[COMRAM] int 
  6147 ;; Registers used:
  6148 ;;		wreg, fsr1l, fsr1h, fsr2l, fsr2h, status,2, status,0, cstack
  6149 ;; Tracked objects:
  6150 ;;		On entry : 0/0
  6151 ;;		On exit  : 0/0
  6152 ;;		Unchanged: 0/0
  6153 ;; Data sizes:     COMRAM   BANK0   BANK1   BANK2   BANK3   BANK4   BANK5   BANK6   BANK7   BANK8   BANK9  BANK10  BANK1
      +1  BANK12  BANK13
  6154 ;;      Params:         4       0       0       0       0       0       0       0       0       0       0       0       
      +0       0       0
  6155 ;;      Locals:         0       0       0       0       0       0       0       0       0       0       0       0       
      +0       0       0
  6156 ;;      Temps:          5       0       0       0       0       0       0       0       0       0       0       0       
      +0       0       0
  6157 ;;      Totals:         9       0       0       0       0       0       0       0       0       0       0       0       
      +0       0       0
  6158 ;;Total ram usage:        9 bytes
  6159 ;; Hardware stack levels used: 1
  6160 ;; Hardware stack levels required when called: 1
  6161 ;; This function calls:
  6162 ;;		_putch
  6163 ;; This function is called by:
  6164 ;;		_pad
  6165 ;;		_stoa
  6166 ;;		_vfpfcnvrt
  6167 ;;		_fputs
  6168 ;; This function uses a non-reentrant model
  6169 ;;
  6170                           
  6171                           	psect	text29
  6172   003D0C                     __ptext29:
  6173                           	callstack 0
  6174   003D0C                     _fputc:
  6175                           	callstack 24
  6176   003D0C  5003               	movf	fputc@fp^0,w,c
  6177   003D0E  1004               	iorwf	(fputc@fp+1)^0,w,c
  6178   003D10  B4D8               	btfsc	status,2,c
  6179   003D12  EF8D  F01E         	goto	u2191
  6180   003D16  EF8F  F01E         	goto	u2190
  6181   003D1A                     u2191:
  6182   003D1A  EF98  F01E         	goto	l2580
  6183   003D1E                     u2190:
  6184   003D1E  5003               	movf	fputc@fp^0,w,c
  6185   003D20  1004               	iorwf	(fputc@fp+1)^0,w,c
  6186   003D22  A4D8               	btfss	status,2,c
  6187   003D24  EF96  F01E         	goto	u2201
  6188   003D28  EF98  F01E         	goto	u2200
  6189   003D2C                     u2201:
  6190   003D2C  EF9D  F01E         	goto	l2582
  6191   003D30                     u2200:
  6192   003D30                     l2580:
  6193   003D30  5001               	movf	fputc@c^0,w,c
  6194   003D32  ECF4  F022         	call	_putch
  6195   003D36  EFEA  F01E         	goto	l1094
  6196   003D3A                     l2582:
  6197   003D3A  EE20 F009          	lfsr	2,9
  6198   003D3E  5003               	movf	fputc@fp^0,w,c
  6199   003D40  26D9               	addwf	fsr2l,f,c
  6200   003D42  5004               	movf	(fputc@fp+1)^0,w,c
  6201   003D44  22DA               	addwfc	fsr2h,f,c
  6202   003D46  50DE               	movf	postinc2,w,c
  6203   003D48  10DE               	iorwf	postinc2,w,c
  6204   003D4A  B4D8               	btfsc	status,2,c
  6205   003D4C  EFAA  F01E         	goto	u2211
  6206   003D50  EFAC  F01E         	goto	u2210
  6207   003D54                     u2211:
  6208   003D54  EFC7  F01E         	goto	l2586
  6209   003D58                     u2210:
  6210   003D58  EE20 F009          	lfsr	2,9
  6211   003D5C  5003               	movf	fputc@fp^0,w,c
  6212   003D5E  26D9               	addwf	fsr2l,f,c
  6213   003D60  5004               	movf	(fputc@fp+1)^0,w,c
  6214   003D62  22DA               	addwfc	fsr2h,f,c
  6215   003D64  EE10 F003          	lfsr	1,3
  6216   003D68  5003               	movf	fputc@fp^0,w,c
  6217   003D6A  26E1               	addwf	fsr1l,f,c
  6218   003D6C  5004               	movf	(fputc@fp+1)^0,w,c
  6219   003D6E  22E2               	addwfc	fsr1h,f,c
  6220   003D70  50DE               	movf	postinc2,w,c
  6221   003D72  5CE6               	subwf	postinc1,w,c
  6222   003D74  50E6               	movf	postinc1,w,c
  6223   003D76  0A80               	xorlw	128
  6224   003D78  6E09               	movwf	(??_fputc+4)^0,c
  6225   003D7A  50DE               	movf	postinc2,w,c
  6226   003D7C  0A80               	xorlw	128
  6227   003D7E  5809               	subwfb	(??_fputc+4)^0,w,c
  6228   003D80  B0D8               	btfsc	status,0,c
  6229   003D82  EFC5  F01E         	goto	u2221
  6230   003D86  EFC7  F01E         	goto	u2220
  6231   003D8A                     u2221:
  6232   003D8A  EFEA  F01E         	goto	l1094
  6233   003D8E                     u2220:
  6234   003D8E                     l2586:
  6235   003D8E  EE20 F003          	lfsr	2,3
  6236   003D92  5003               	movf	fputc@fp^0,w,c
  6237   003D94  26D9               	addwf	fsr2l,f,c
  6238   003D96  5004               	movf	(fputc@fp+1)^0,w,c
  6239   003D98  22DA               	addwfc	fsr2h,f,c
  6240   003D9A  CFDE F005          	movff	postinc2,??_fputc
  6241   003D9E  CFDD F006          	movff	postdec2,??_fputc+1
  6242   003DA2  C003  FFD9         	movff	fputc@fp,fsr2l
  6243   003DA6  C004  FFDA         	movff	fputc@fp+1,fsr2h
  6244   003DAA  CFDE F007          	movff	postinc2,??_fputc+2
  6245   003DAE  CFDD F008          	movff	postdec2,??_fputc+3
  6246   003DB2  5005               	movf	??_fputc^0,w,c
  6247   003DB4  2407               	addwf	(??_fputc+2)^0,w,c
  6248   003DB6  6ED9               	movwf	fsr2l,c
  6249   003DB8  5006               	movf	(??_fputc+1)^0,w,c
  6250   003DBA  2008               	addwfc	(??_fputc+3)^0,w,c
  6251   003DBC  6EDA               	movwf	fsr2h,c
  6252   003DBE  C001  FFDF         	movff	fputc@c,indf2
  6253   003DC2  EE20 F003          	lfsr	2,3
  6254   003DC6  5003               	movf	fputc@fp^0,w,c
  6255   003DC8  26D9               	addwf	fsr2l,f,c
  6256   003DCA  5004               	movf	(fputc@fp+1)^0,w,c
  6257   003DCC  22DA               	addwfc	fsr2h,f,c
  6258   003DCE  2ADE               	incf	postinc2,f,c
  6259   003DD0  0E00               	movlw	0
  6260   003DD2  22DD               	addwfc	postdec2,f,c
  6261   003DD4                     l1094:
  6262   003DD4  0012               	return		;funcret
  6263   003DD6                     __end_of_fputc:
  6264                           	callstack 0
  6265                           
  6266 ;; *************** function _putch *****************
  6267 ;; Defined at:
  6268 ;;		line 7 in file "C:\Program Files\Microchip\xc8\v2.40\pic\sources\c99\common\putch.c"
  6269 ;; Parameters:    Size  Location     Type
  6270 ;;  c               1    wreg     unsigned char 
  6271 ;; Auto vars:     Size  Location     Type
  6272 ;;  c               1    0[COMRAM] unsigned char 
  6273 ;; Return value:  Size  Location     Type
  6274 ;;                  1    wreg      void 
  6275 ;; Registers used:
  6276 ;;		wreg
  6277 ;; Tracked objects:
  6278 ;;		On entry : 0/0
  6279 ;;		On exit  : 0/0
  6280 ;;		Unchanged: 0/0
  6281 ;; Data sizes:     COMRAM   BANK0   BANK1   BANK2   BANK3   BANK4   BANK5   BANK6   BANK7   BANK8   BANK9  BANK10  BANK1
      +1  BANK12  BANK13
  6282 ;;      Params:         0       0       0       0       0       0       0       0       0       0       0       0       
      +0       0       0
  6283 ;;      Locals:         0       0       0       0       0       0       0       0       0       0       0       0       
      +0       0       0
  6284 ;;      Temps:          0       0       0       0       0       0       0       0       0       0       0       0       
      +0       0       0
  6285 ;;      Totals:         0       0       0       0       0       0       0       0       0       0       0       0       
      +0       0       0
  6286 ;;Total ram usage:        0 bytes
  6287 ;; Hardware stack levels used: 1
  6288 ;; This function calls:
  6289 ;;		Nothing
  6290 ;; This function is called by:
  6291 ;;		_fputc
  6292 ;; This function uses a non-reentrant model
  6293 ;;
  6294                           
  6295                           	psect	text30
  6296   0045E8                     __ptext30:
  6297                           	callstack 0
  6298   0045E8                     _putch:
  6299                           	callstack 24
  6300   0045E8  0012               	return		;funcret
  6301   0045EA                     __end_of_putch:
  6302                           	callstack 0
  6303                           
  6304 ;; *************** function _memcpy *****************
  6305 ;; Defined at:
  6306 ;;		line 4 in file "C:\Program Files\Microchip\xc8\v2.40\pic\sources\c99\common\memcpy.c"
  6307 ;; Parameters:    Size  Location     Type
  6308 ;;  d1              2    0[COMRAM] PTR void 
  6309 ;;		 -> dbuf(80), 
  6310 ;;  s1              2    2[COMRAM] PTR const void 
  6311 ;;		 -> dbuf(80), 
  6312 ;;  n               2    4[COMRAM] unsigned int 
  6313 ;; Auto vars:     Size  Location     Type
  6314 ;;  s               2    8[COMRAM] PTR const unsigned char 
  6315 ;;		 -> dbuf(80), 
  6316 ;;  d               2    6[COMRAM] PTR unsigned char 
  6317 ;;		 -> dbuf(80), 
  6318 ;;  tmp             1   10[COMRAM] unsigned char 
  6319 ;; Return value:  Size  Location     Type
  6320 ;;                  2    0[COMRAM] PTR void 
  6321 ;; Registers used:
  6322 ;;		wreg, fsr2l, fsr2h, status,2, status,0
  6323 ;; Tracked objects:
  6324 ;;		On entry : 0/0
  6325 ;;		On exit  : 0/0
  6326 ;;		Unchanged: 0/0
  6327 ;; Data sizes:     COMRAM   BANK0   BANK1   BANK2   BANK3   BANK4   BANK5   BANK6   BANK7   BANK8   BANK9  BANK10  BANK1
      +1  BANK12  BANK13
  6328 ;;      Params:         6       0       0       0       0       0       0       0       0       0       0       0       
      +0       0       0
  6329 ;;      Locals:         5       0       0       0       0       0       0       0       0       0       0       0       
      +0       0       0
  6330 ;;      Temps:          0       0       0       0       0       0       0       0       0       0       0       0       
      +0       0       0
  6331 ;;      Totals:        11       0       0       0       0       0       0       0       0       0       0       0       
      +0       0       0
  6332 ;;Total ram usage:       11 bytes
  6333 ;; Hardware stack levels used: 1
  6334 ;; This function calls:
  6335 ;;		Nothing
  6336 ;; This function is called by:
  6337 ;;		_efgtoa
  6338 ;; This function uses a non-reentrant model
  6339 ;;
  6340                           
  6341                           	psect	text31
  6342   0042AE                     __ptext31:
  6343                           	callstack 0
  6344   0042AE                     _memcpy:
  6345                           	callstack 25
  6346   0042AE  C003  F009         	movff	memcpy@s1,memcpy@s
  6347   0042B2  C004  F00A         	movff	memcpy@s1+1,memcpy@s+1
  6348   0042B6  C001  F007         	movff	memcpy@d1,memcpy@d
  6349   0042BA  C002  F008         	movff	memcpy@d1+1,memcpy@d+1
  6350   0042BE  EF71  F021         	goto	l3246
  6351   0042C2                     l3238:
  6352   0042C2  C009  FFD9         	movff	memcpy@s,fsr2l
  6353   0042C6  C00A  FFDA         	movff	memcpy@s+1,fsr2h
  6354   0042CA  50DF               	movf	indf2,w,c
  6355   0042CC  6E0B               	movwf	memcpy@tmp^0,c
  6356   0042CE  4A09               	infsnz	memcpy@s^0,f,c
  6357   0042D0  2A0A               	incf	(memcpy@s+1)^0,f,c
  6358   0042D2  C007  FFD9         	movff	memcpy@d,fsr2l
  6359   0042D6  C008  FFDA         	movff	memcpy@d+1,fsr2h
  6360   0042DA  C00B  FFDF         	movff	memcpy@tmp,indf2
  6361   0042DE  4A07               	infsnz	memcpy@d^0,f,c
  6362   0042E0  2A08               	incf	(memcpy@d+1)^0,f,c
  6363   0042E2                     l3246:
  6364   0042E2  0605               	decf	memcpy@n^0,f,c
  6365   0042E4  A0D8               	btfss	status,0,c
  6366   0042E6  0606               	decf	(memcpy@n+1)^0,f,c
  6367   0042E8  2805               	incf	memcpy@n^0,w,c
  6368   0042EA  E106               	bnz	u3421
  6369   0042EC  2806               	incf	(memcpy@n+1)^0,w,c
  6370   0042EE  A4D8               	btfss	status,2,c
  6371   0042F0  EF7C  F021         	goto	u3421
  6372   0042F4  EF7E  F021         	goto	u3420
  6373   0042F8                     u3421:
  6374   0042F8  EF61  F021         	goto	l3238
  6375   0042FC                     u3420:
  6376   0042FC  0012               	return		;funcret
  6377   0042FE                     __end_of_memcpy:
  6378                           	callstack 0
  6379                           
  6380 ;; *************** function _labs *****************
  6381 ;; Defined at:
  6382 ;;		line 1 in file "C:\Program Files\Microchip\xc8\v2.40\pic\sources\c99\common\labs.c"
  6383 ;; Parameters:    Size  Location     Type
  6384 ;;  a               4    0[COMRAM] long 
  6385 ;; Auto vars:     Size  Location     Type
  6386 ;;		None
  6387 ;; Return value:  Size  Location     Type
  6388 ;;                  4    0[COMRAM] long 
  6389 ;; Registers used:
  6390 ;;		wreg, status,2, status,0
  6391 ;; Tracked objects:
  6392 ;;		On entry : 0/0
  6393 ;;		On exit  : 0/0
  6394 ;;		Unchanged: 0/0
  6395 ;; Data sizes:     COMRAM   BANK0   BANK1   BANK2   BANK3   BANK4   BANK5   BANK6   BANK7   BANK8   BANK9  BANK10  BANK1
      +1  BANK12  BANK13
  6396 ;;      Params:         4       0       0       0       0       0       0       0       0       0       0       0       
      +0       0       0
  6397 ;;      Locals:         0       0       0       0       0       0       0       0       0       0       0       0       
      +0       0       0
  6398 ;;      Temps:          4       0       0       0       0       0       0       0       0       0       0       0       
      +0       0       0
  6399 ;;      Totals:         8       0       0       0       0       0       0       0       0       0       0       0       
      +0       0       0
  6400 ;;Total ram usage:        8 bytes
  6401 ;; Hardware stack levels used: 1
  6402 ;; This function calls:
  6403 ;;		Nothing
  6404 ;; This function is called by:
  6405 ;;		_efgtoa
  6406 ;; This function uses a non-reentrant model
  6407 ;;
  6408                           
  6409                           	psect	text32
  6410   004010                     __ptext32:
  6411                           	callstack 0
  6412   004010                     _labs:
  6413                           	callstack 25
  6414   004010  BE04               	btfsc	(labs@a+3)^0,7,c
  6415   004012  EF17  F020         	goto	u3310
  6416   004016  5004               	movf	(labs@a+3)^0,w,c
  6417   004018  1003               	iorwf	(labs@a+2)^0,w,c
  6418   00401A  1002               	iorwf	(labs@a+1)^0,w,c
  6419   00401C  E106               	bnz	u3311
  6420   00401E  0401               	decf	labs@a^0,w,c
  6421   004020  B0D8               	btfsc	status,0,c
  6422   004022  EF15  F020         	goto	u3311
  6423   004026  EF17  F020         	goto	u3310
  6424   00402A                     u3311:
  6425   00402A  EF32  F020         	goto	l1073
  6426   00402E                     u3310:
  6427   00402E  C001  F005         	movff	labs@a,??_labs
  6428   004032  C002  F006         	movff	labs@a+1,??_labs+1
  6429   004036  C003  F007         	movff	labs@a+2,??_labs+2
  6430   00403A  C004  F008         	movff	labs@a+3,??_labs+3
  6431   00403E  1E05               	comf	??_labs^0,f,c
  6432   004040  1E06               	comf	(??_labs+1)^0,f,c
  6433   004042  1E07               	comf	(??_labs+2)^0,f,c
  6434   004044  1E08               	comf	(??_labs+3)^0,f,c
  6435   004046  2A05               	incf	??_labs^0,f,c
  6436   004048  0E00               	movlw	0
  6437   00404A  2206               	addwfc	(??_labs+1)^0,f,c
  6438   00404C  2207               	addwfc	(??_labs+2)^0,f,c
  6439   00404E  2208               	addwfc	(??_labs+3)^0,f,c
  6440   004050  C005  F001         	movff	??_labs,?_labs
  6441   004054  C006  F002         	movff	??_labs+1,?_labs+1
  6442   004058  C007  F003         	movff	??_labs+2,?_labs+2
  6443   00405C  C008  F004         	movff	??_labs+3,?_labs+3
  6444   004060  EF3A  F020         	goto	l1076
  6445   004064                     l1073:
  6446   004064  C001  F001         	movff	labs@a,?_labs
  6447   004068  C002  F002         	movff	labs@a+1,?_labs+1
  6448   00406C  C003  F003         	movff	labs@a+2,?_labs+2
  6449   004070  C004  F004         	movff	labs@a+3,?_labs+3
  6450   004074                     l1076:
  6451   004074  0012               	return		;funcret
  6452   004076                     __end_of_labs:
  6453                           	callstack 0
  6454                           
  6455 ;; *************** function _floorf *****************
  6456 ;; Defined at:
  6457 ;;		line 3 in file "C:\Program Files\Microchip\xc8\v2.40\pic\sources\c99\common\floorf.c"
  6458 ;; Parameters:    Size  Location     Type
  6459 ;;  x               4   74[COMRAM] float 
  6460 ;; Auto vars:     Size  Location     Type
  6461 ;;  u               4   90[COMRAM] struct .
  6462 ;;  m               4   84[COMRAM] unsigned long 
  6463 ;;  e               2   88[COMRAM] int 
  6464 ;; Return value:  Size  Location     Type
  6465 ;;                  4   74[COMRAM] float 
  6466 ;; Registers used:
  6467 ;;		wreg, status,2, status,0
  6468 ;; Tracked objects:
  6469 ;;		On entry : 0/0
  6470 ;;		On exit  : 0/0
  6471 ;;		Unchanged: 0/0
  6472 ;; Data sizes:     COMRAM   BANK0   BANK1   BANK2   BANK3   BANK4   BANK5   BANK6   BANK7   BANK8   BANK9  BANK10  BANK1
      +1  BANK12  BANK13
  6473 ;;      Params:         4       0       0       0       0       0       0       0       0       0       0       0       
      +0       0       0
  6474 ;;      Locals:        10       0       0       0       0       0       0       0       0       0       0       0       
      +0       0       0
  6475 ;;      Temps:          6       0       0       0       0       0       0       0       0       0       0       0       
      +0       0       0
  6476 ;;      Totals:        20       0       0       0       0       0       0       0       0       0       0       0       
      +0       0       0
  6477 ;;Total ram usage:       20 bytes
  6478 ;; Hardware stack levels used: 1
  6479 ;; This function calls:
  6480 ;;		Nothing
  6481 ;; This function is called by:
  6482 ;;		_efgtoa
  6483 ;; This function uses a non-reentrant model
  6484 ;;
  6485                           
  6486                           	psect	text33
  6487   003330                     __ptext33:
  6488                           	callstack 0
  6489   003330                     _floorf:
  6490                           	callstack 25
  6491   003330  C0EE  F05B         	movff	floorf@F526,floorf@u
  6492   003334  C0EF  F05C         	movff	floorf@F526+1,floorf@u+1
  6493   003338  C0F0  F05D         	movff	floorf@F526+2,floorf@u+2
  6494   00333C  C0F1  F05E         	movff	floorf@F526+3,floorf@u+3
  6495   003340  C04B  F05B         	movff	floorf@x,floorf@u
  6496   003344  C04C  F05C         	movff	floorf@x+1,floorf@u+1
  6497   003348  C04D  F05D         	movff	floorf@x+2,floorf@u+2
  6498   00334C  C04E  F05E         	movff	floorf@x+3,floorf@u+3
  6499   003350  0E81               	movlw	129
  6500   003352  6E4F               	movwf	??_floorf^0,c
  6501   003354  0EFF               	movlw	255
  6502   003356  6E50               	movwf	(??_floorf+1)^0,c
  6503   003358  C05B  F051         	movff	floorf@u,??_floorf+2
  6504   00335C  C05C  F052         	movff	floorf@u+1,??_floorf+3
  6505   003360  C05D  F053         	movff	floorf@u+2,??_floorf+4
  6506   003364  C05E  F054         	movff	floorf@u+3,??_floorf+5
  6507   003368  0E18               	movlw	24
  6508   00336A  EFBC  F019         	goto	u3320
  6509   00336E                     u3325:
  6510   00336E  90D8               	bcf	status,0,c
  6511   003370  3254               	rrcf	(??_floorf+5)^0,f,c
  6512   003372  3253               	rrcf	(??_floorf+4)^0,f,c
  6513   003374  3252               	rrcf	(??_floorf+3)^0,f,c
  6514   003376  3251               	rrcf	(??_floorf+2)^0,f,c
  6515   003378                     u3320:
  6516   003378  2EE8               	decfsz	wreg,f,c
  6517   00337A  EFB7  F019         	goto	u3325
  6518   00337E  5051               	movf	(??_floorf+2)^0,w,c
  6519   003380  244F               	addwf	??_floorf^0,w,c
  6520   003382  6E59               	movwf	floorf@e^0,c
  6521   003384  0E00               	movlw	0
  6522   003386  2050               	addwfc	(??_floorf+1)^0,w,c
  6523   003388  6E5A               	movwf	(floorf@e+1)^0,c
  6524   00338A  BE5A               	btfsc	(floorf@e+1)^0,7,c
  6525   00338C  EFD1  F019         	goto	u3331
  6526   003390  505A               	movf	(floorf@e+1)^0,w,c
  6527   003392  E109               	bnz	u3330
  6528   003394  0E17               	movlw	23
  6529   003396  5C59               	subwf	floorf@e^0,w,c
  6530   003398  A0D8               	btfss	status,0,c
  6531   00339A  EFD1  F019         	goto	u3331
  6532   00339E  EFD3  F019         	goto	u3330
  6533   0033A2                     u3331:
  6534   0033A2  EFDD  F019         	goto	l3214
  6535   0033A6                     u3330:
  6536   0033A6                     l3212:
  6537   0033A6  C04B  F04B         	movff	floorf@x,?_floorf
  6538   0033AA  C04C  F04C         	movff	floorf@x+1,?_floorf+1
  6539   0033AE  C04D  F04D         	movff	floorf@x+2,?_floorf+2
  6540   0033B2  C04E  F04E         	movff	floorf@x+3,?_floorf+3
  6541   0033B6  EFA0  F01A         	goto	l1062
  6542   0033BA                     l3214:
  6543   0033BA  BE5A               	btfsc	(floorf@e+1)^0,7,c
  6544   0033BC  EFE2  F019         	goto	u3341
  6545   0033C0  EFE4  F019         	goto	u3340
  6546   0033C4                     u3341:
  6547   0033C4  EF54  F01A         	goto	l3224
  6548   0033C8                     u3340:
  6549   0033C8  C059  F04F         	movff	floorf@e,??_floorf
  6550   0033CC  0EFF               	movlw	255
  6551   0033CE  6E50               	movwf	(??_floorf+1)^0,c
  6552   0033D0  0EFF               	movlw	255
  6553   0033D2  6E51               	movwf	(??_floorf+2)^0,c
  6554   0033D4  0E7F               	movlw	127
  6555   0033D6  6E52               	movwf	(??_floorf+3)^0,c
  6556   0033D8  0E00               	movlw	0
  6557   0033DA  6E53               	movwf	(??_floorf+4)^0,c
  6558   0033DC                     u3355:
  6559   0033DC  664F               	tstfsz	??_floorf^0,c
  6560   0033DE  EFF3  F019         	goto	u3356
  6561   0033E2  EFFB  F019         	goto	u3357
  6562   0033E6                     u3356:
  6563   0033E6  3453               	rlcf	(??_floorf+4)^0,w,c
  6564   0033E8  3253               	rrcf	(??_floorf+4)^0,f,c
  6565   0033EA  3252               	rrcf	(??_floorf+3)^0,f,c
  6566   0033EC  3251               	rrcf	(??_floorf+2)^0,f,c
  6567   0033EE  3250               	rrcf	(??_floorf+1)^0,f,c
  6568   0033F0  2E4F               	decfsz	??_floorf^0,f,c
  6569   0033F2  EFEE  F019         	goto	u3355
  6570   0033F6                     u3357:
  6571   0033F6  C050  F055         	movff	??_floorf+1,floorf@m
  6572   0033FA  C051  F056         	movff	??_floorf+2,floorf@m+1
  6573   0033FE  C052  F057         	movff	??_floorf+3,floorf@m+2
  6574   003402  C053  F058         	movff	??_floorf+4,floorf@m+3
  6575   003406  5055               	movf	floorf@m^0,w,c
  6576   003408  145B               	andwf	floorf@u^0,w,c
  6577   00340A  6E4F               	movwf	??_floorf^0,c
  6578   00340C  5056               	movf	(floorf@m+1)^0,w,c
  6579   00340E  145C               	andwf	(floorf@u+1)^0,w,c
  6580   003410  6E50               	movwf	(??_floorf+1)^0,c
  6581   003412  5057               	movf	(floorf@m+2)^0,w,c
  6582   003414  145D               	andwf	(floorf@u+2)^0,w,c
  6583   003416  6E51               	movwf	(??_floorf+2)^0,c
  6584   003418  5058               	movf	(floorf@m+3)^0,w,c
  6585   00341A  145E               	andwf	(floorf@u+3)^0,w,c
  6586   00341C  6E52               	movwf	(??_floorf+3)^0,c
  6587   00341E  504F               	movf	??_floorf^0,w,c
  6588   003420  1050               	iorwf	(??_floorf+1)^0,w,c
  6589   003422  1051               	iorwf	(??_floorf+2)^0,w,c
  6590   003424  1052               	iorwf	(??_floorf+3)^0,w,c
  6591   003426  A4D8               	btfss	status,2,c
  6592   003428  EF18  F01A         	goto	u3361
  6593   00342C  EF1A  F01A         	goto	u3360
  6594   003430                     u3361:
  6595   003430  EF1C  F01A         	goto	l3220
  6596   003434                     u3360:
  6597   003434  EFD3  F019         	goto	l3212
  6598   003438                     l3220:
  6599   003438  C05B  F04F         	movff	floorf@u,??_floorf
  6600   00343C  C05C  F050         	movff	floorf@u+1,??_floorf+1
  6601   003440  C05D  F051         	movff	floorf@u+2,??_floorf+2
  6602   003444  C05E  F052         	movff	floorf@u+3,??_floorf+3
  6603   003448  0E20               	movlw	32
  6604   00344A  EF2C  F01A         	goto	u3370
  6605   00344E                     u3375:
  6606   00344E  90D8               	bcf	status,0,c
  6607   003450  3252               	rrcf	(??_floorf+3)^0,f,c
  6608   003452  3251               	rrcf	(??_floorf+2)^0,f,c
  6609   003454  3250               	rrcf	(??_floorf+1)^0,f,c
  6610   003456  324F               	rrcf	??_floorf^0,f,c
  6611   003458                     u3370:
  6612   003458  2EE8               	decfsz	wreg,f,c
  6613   00345A  EF27  F01A         	goto	u3375
  6614   00345E  504F               	movf	??_floorf^0,w,c
  6615   003460  1050               	iorwf	(??_floorf+1)^0,w,c
  6616   003462  1051               	iorwf	(??_floorf+2)^0,w,c
  6617   003464  1052               	iorwf	(??_floorf+3)^0,w,c
  6618   003466  B4D8               	btfsc	status,2,c
  6619   003468  EF38  F01A         	goto	u3381
  6620   00346C  EF3A  F01A         	goto	u3380
  6621   003470                     u3381:
  6622   003470  EF42  F01A         	goto	l1065
  6623   003474                     u3380:
  6624   003474  5055               	movf	floorf@m^0,w,c
  6625   003476  265B               	addwf	floorf@u^0,f,c
  6626   003478  5056               	movf	(floorf@m+1)^0,w,c
  6627   00347A  225C               	addwfc	(floorf@u+1)^0,f,c
  6628   00347C  5057               	movf	(floorf@m+2)^0,w,c
  6629   00347E  225D               	addwfc	(floorf@u+2)^0,f,c
  6630   003480  5058               	movf	(floorf@m+3)^0,w,c
  6631   003482  225E               	addwfc	(floorf@u+3)^0,f,c
  6632   003484                     l1065:
  6633   003484  1C55               	comf	floorf@m^0,w,c
  6634   003486  6E4F               	movwf	??_floorf^0,c
  6635   003488  1C56               	comf	(floorf@m+1)^0,w,c
  6636   00348A  6E50               	movwf	(??_floorf+1)^0,c
  6637   00348C  1C57               	comf	(floorf@m+2)^0,w,c
  6638   00348E  6E51               	movwf	(??_floorf+2)^0,c
  6639   003490  1C58               	comf	(floorf@m+3)^0,w,c
  6640   003492  6E52               	movwf	(??_floorf+3)^0,c
  6641   003494  504F               	movf	??_floorf^0,w,c
  6642   003496  165B               	andwf	floorf@u^0,f,c
  6643   003498  5050               	movf	(??_floorf+1)^0,w,c
  6644   00349A  165C               	andwf	(floorf@u+1)^0,f,c
  6645   00349C  5051               	movf	(??_floorf+2)^0,w,c
  6646   00349E  165D               	andwf	(floorf@u+2)^0,f,c
  6647   0034A0  5052               	movf	(??_floorf+3)^0,w,c
  6648   0034A2  165E               	andwf	(floorf@u+3)^0,f,c
  6649   0034A4  EF98  F01A         	goto	l3232
  6650   0034A8                     l3224:
  6651   0034A8  C05B  F04F         	movff	floorf@u,??_floorf
  6652   0034AC  C05C  F050         	movff	floorf@u+1,??_floorf+1
  6653   0034B0  C05D  F051         	movff	floorf@u+2,??_floorf+2
  6654   0034B4  C05E  F052         	movff	floorf@u+3,??_floorf+3
  6655   0034B8  0E20               	movlw	32
  6656   0034BA  EF64  F01A         	goto	u3390
  6657   0034BE                     u3395:
  6658   0034BE  90D8               	bcf	status,0,c
  6659   0034C0  3252               	rrcf	(??_floorf+3)^0,f,c
  6660   0034C2  3251               	rrcf	(??_floorf+2)^0,f,c
  6661   0034C4  3250               	rrcf	(??_floorf+1)^0,f,c
  6662   0034C6  324F               	rrcf	??_floorf^0,f,c
  6663   0034C8                     u3390:
  6664   0034C8  2EE8               	decfsz	wreg,f,c
  6665   0034CA  EF5F  F01A         	goto	u3395
  6666   0034CE  504F               	movf	??_floorf^0,w,c
  6667   0034D0  1050               	iorwf	(??_floorf+1)^0,w,c
  6668   0034D2  1051               	iorwf	(??_floorf+2)^0,w,c
  6669   0034D4  1052               	iorwf	(??_floorf+3)^0,w,c
  6670   0034D6  A4D8               	btfss	status,2,c
  6671   0034D8  EF70  F01A         	goto	u3401
  6672   0034DC  EF72  F01A         	goto	u3400
  6673   0034E0                     u3401:
  6674   0034E0  EF7C  F01A         	goto	l3228
  6675   0034E4                     u3400:
  6676   0034E4  0E00               	movlw	0
  6677   0034E6  6E5B               	movwf	floorf@u^0,c
  6678   0034E8  0E00               	movlw	0
  6679   0034EA  6E5C               	movwf	(floorf@u+1)^0,c
  6680   0034EC  0E00               	movlw	0
  6681   0034EE  6E5D               	movwf	(floorf@u+2)^0,c
  6682   0034F0  0E00               	movlw	0
  6683   0034F2  6E5E               	movwf	(floorf@u+3)^0,c
  6684   0034F4  EF98  F01A         	goto	l3232
  6685   0034F8                     l3228:
  6686   0034F8  90D8               	bcf	status,0,c
  6687   0034FA  345B               	rlcf	floorf@u^0,w,c
  6688   0034FC  6E4F               	movwf	??_floorf^0,c
  6689   0034FE  345C               	rlcf	(floorf@u+1)^0,w,c
  6690   003500  6E50               	movwf	(??_floorf+1)^0,c
  6691   003502  345D               	rlcf	(floorf@u+2)^0,w,c
  6692   003504  6E51               	movwf	(??_floorf+2)^0,c
  6693   003506  345E               	rlcf	(floorf@u+3)^0,w,c
  6694   003508  6E52               	movwf	(??_floorf+3)^0,c
  6695   00350A  504F               	movf	??_floorf^0,w,c
  6696   00350C  1050               	iorwf	(??_floorf+1)^0,w,c
  6697   00350E  1051               	iorwf	(??_floorf+2)^0,w,c
  6698   003510  1052               	iorwf	(??_floorf+3)^0,w,c
  6699   003512  B4D8               	btfsc	status,2,c
  6700   003514  EF8E  F01A         	goto	u3411
  6701   003518  EF90  F01A         	goto	u3410
  6702   00351C                     u3411:
  6703   00351C  EF98  F01A         	goto	l3232
  6704   003520                     u3410:
  6705   003520  0E00               	movlw	0
  6706   003522  6E5B               	movwf	floorf@u^0,c
  6707   003524  0E00               	movlw	0
  6708   003526  6E5C               	movwf	(floorf@u+1)^0,c
  6709   003528  0E80               	movlw	128
  6710   00352A  6E5D               	movwf	(floorf@u+2)^0,c
  6711   00352C  0EBF               	movlw	191
  6712   00352E  6E5E               	movwf	(floorf@u+3)^0,c
  6713   003530                     l3232:
  6714   003530  C05B  F04B         	movff	floorf@u,?_floorf
  6715   003534  C05C  F04C         	movff	floorf@u+1,?_floorf+1
  6716   003538  C05D  F04D         	movff	floorf@u+2,?_floorf+2
  6717   00353C  C05E  F04E         	movff	floorf@u+3,?_floorf+3
  6718   003540                     l1062:
  6719   003540  0012               	return		;funcret
  6720   003542                     __end_of_floorf:
  6721                           	callstack 0
  6722                           
  6723 ;; *************** function ___fpclassifyf *****************
  6724 ;; Defined at:
  6725 ;;		line 4 in file "C:\Program Files\Microchip\xc8\v2.40\pic\sources\c99\common\__fpclassifyf.c"
  6726 ;; Parameters:    Size  Location     Type
  6727 ;;  x               4    0[COMRAM] float 
  6728 ;; Auto vars:     Size  Location     Type
  6729 ;;  u               4   10[COMRAM] struct .
  6730 ;;  e               2    8[COMRAM] int 
  6731 ;; Return value:  Size  Location     Type
  6732 ;;                  2    0[COMRAM] int 
  6733 ;; Registers used:
  6734 ;;		wreg, status,2, status,0
  6735 ;; Tracked objects:
  6736 ;;		On entry : 0/0
  6737 ;;		On exit  : 0/0
  6738 ;;		Unchanged: 0/0
  6739 ;; Data sizes:     COMRAM   BANK0   BANK1   BANK2   BANK3   BANK4   BANK5   BANK6   BANK7   BANK8   BANK9  BANK10  BANK1
      +1  BANK12  BANK13
  6740 ;;      Params:         4       0       0       0       0       0       0       0       0       0       0       0       
      +0       0       0
  6741 ;;      Locals:         6       0       0       0       0       0       0       0       0       0       0       0       
      +0       0       0
  6742 ;;      Temps:          4       0       0       0       0       0       0       0       0       0       0       0       
      +0       0       0
  6743 ;;      Totals:        14       0       0       0       0       0       0       0       0       0       0       0       
      +0       0       0
  6744 ;;Total ram usage:       14 bytes
  6745 ;; Hardware stack levels used: 1
  6746 ;; This function calls:
  6747 ;;		Nothing
  6748 ;; This function is called by:
  6749 ;;		_efgtoa
  6750 ;; This function uses a non-reentrant model
  6751 ;;
  6752                           
  6753                           	psect	text34
  6754   003A3E                     __ptext34:
  6755                           	callstack 0
  6756   003A3E                     ___fpclassifyf:
  6757                           	callstack 25
  6758   003A3E  C0F2  F00B         	movff	___fpclassifyf@F465,___fpclassifyf@u
  6759   003A42  C0F3  F00C         	movff	___fpclassifyf@F465+1,___fpclassifyf@u+1
  6760   003A46  C0F4  F00D         	movff	___fpclassifyf@F465+2,___fpclassifyf@u+2
  6761   003A4A  C0F5  F00E         	movff	___fpclassifyf@F465+3,___fpclassifyf@u+3
  6762   003A4E  C001  F00B         	movff	___fpclassifyf@x,___fpclassifyf@u
  6763   003A52  C002  F00C         	movff	___fpclassifyf@x+1,___fpclassifyf@u+1
  6764   003A56  C003  F00D         	movff	___fpclassifyf@x+2,___fpclassifyf@u+2
  6765   003A5A  C004  F00E         	movff	___fpclassifyf@x+3,___fpclassifyf@u+3
  6766   003A5E  C00B  F005         	movff	___fpclassifyf@u,??___fpclassifyf
  6767   003A62  C00C  F006         	movff	___fpclassifyf@u+1,??___fpclassifyf+1
  6768   003A66  C00D  F007         	movff	___fpclassifyf@u+2,??___fpclassifyf+2
  6769   003A6A  C00E  F008         	movff	___fpclassifyf@u+3,??___fpclassifyf+3
  6770   003A6E  0E18               	movlw	24
  6771   003A70  EF3F  F01D         	goto	u3230
  6772   003A74                     u3235:
  6773   003A74  90D8               	bcf	status,0,c
  6774   003A76  3208               	rrcf	(??___fpclassifyf+3)^0,f,c
  6775   003A78  3207               	rrcf	(??___fpclassifyf+2)^0,f,c
  6776   003A7A  3206               	rrcf	(??___fpclassifyf+1)^0,f,c
  6777   003A7C  3205               	rrcf	??___fpclassifyf^0,f,c
  6778   003A7E                     u3230:
  6779   003A7E  2EE8               	decfsz	wreg,f,c
  6780   003A80  EF3A  F01D         	goto	u3235
  6781   003A84  5005               	movf	??___fpclassifyf^0,w,c
  6782   003A86  6E09               	movwf	___fpclassifyf@e^0,c
  6783   003A88  6A0A               	clrf	(___fpclassifyf@e+1)^0,c
  6784   003A8A  5009               	movf	___fpclassifyf@e^0,w,c
  6785   003A8C  100A               	iorwf	(___fpclassifyf@e+1)^0,w,c
  6786   003A8E  A4D8               	btfss	status,2,c
  6787   003A90  EF4C  F01D         	goto	u3241
  6788   003A94  EF4E  F01D         	goto	u3240
  6789   003A98                     u3241:
  6790   003A98  EF6E  F01D         	goto	l3190
  6791   003A9C                     u3240:
  6792   003A9C  90D8               	bcf	status,0,c
  6793   003A9E  340B               	rlcf	___fpclassifyf@u^0,w,c
  6794   003AA0  6E05               	movwf	??___fpclassifyf^0,c
  6795   003AA2  340C               	rlcf	(___fpclassifyf@u+1)^0,w,c
  6796   003AA4  6E06               	movwf	(??___fpclassifyf+1)^0,c
  6797   003AA6  340D               	rlcf	(___fpclassifyf@u+2)^0,w,c
  6798   003AA8  6E07               	movwf	(??___fpclassifyf+2)^0,c
  6799   003AAA  340E               	rlcf	(___fpclassifyf@u+3)^0,w,c
  6800   003AAC  6E08               	movwf	(??___fpclassifyf+3)^0,c
  6801   003AAE  5005               	movf	??___fpclassifyf^0,w,c
  6802   003AB0  1006               	iorwf	(??___fpclassifyf+1)^0,w,c
  6803   003AB2  1007               	iorwf	(??___fpclassifyf+2)^0,w,c
  6804   003AB4  1008               	iorwf	(??___fpclassifyf+3)^0,w,c
  6805   003AB6  A4D8               	btfss	status,2,c
  6806   003AB8  EF60  F01D         	goto	u3251
  6807   003ABC  EF62  F01D         	goto	u3250
  6808   003AC0                     u3251:
  6809   003AC0  EF68  F01D         	goto	l3186
  6810   003AC4                     u3250:
  6811   003AC4  0E00               	movlw	0
  6812   003AC6  6E02               	movwf	(?___fpclassifyf+1)^0,c
  6813   003AC8  0E02               	movlw	2
  6814   003ACA  6E01               	movwf	?___fpclassifyf^0,c
  6815   003ACC  EF9D  F01D         	goto	l1055
  6816   003AD0                     l3186:
  6817   003AD0  0E00               	movlw	0
  6818   003AD2  6E02               	movwf	(?___fpclassifyf+1)^0,c
  6819   003AD4  0E03               	movlw	3
  6820   003AD6  6E01               	movwf	?___fpclassifyf^0,c
  6821   003AD8  EF9D  F01D         	goto	l1055
  6822   003ADC                     l3190:
  6823   003ADC  2809               	incf	___fpclassifyf@e^0,w,c
  6824   003ADE  100A               	iorwf	(___fpclassifyf@e+1)^0,w,c
  6825   003AE0  A4D8               	btfss	status,2,c
  6826   003AE2  EF75  F01D         	goto	u3261
  6827   003AE6  EF77  F01D         	goto	u3260
  6828   003AEA                     u3261:
  6829   003AEA  EF99  F01D         	goto	l3196
  6830   003AEE                     u3260:
  6831   003AEE  C00B  F005         	movff	___fpclassifyf@u,??___fpclassifyf
  6832   003AF2  C00C  F006         	movff	___fpclassifyf@u+1,??___fpclassifyf+1
  6833   003AF6  C00D  F007         	movff	___fpclassifyf@u+2,??___fpclassifyf+2
  6834   003AFA  C00E  F008         	movff	___fpclassifyf@u+3,??___fpclassifyf+3
  6835   003AFE  0E09               	movlw	9
  6836   003B00                     u3275:
  6837   003B00  90D8               	bcf	status,0,c
  6838   003B02  3605               	rlcf	??___fpclassifyf^0,f,c
  6839   003B04  3606               	rlcf	(??___fpclassifyf+1)^0,f,c
  6840   003B06  3607               	rlcf	(??___fpclassifyf+2)^0,f,c
  6841   003B08  3608               	rlcf	(??___fpclassifyf+3)^0,f,c
  6842   003B0A  2EE8               	decfsz	wreg,f,c
  6843   003B0C  EF80  F01D         	goto	u3275
  6844   003B10  5005               	movf	??___fpclassifyf^0,w,c
  6845   003B12  1006               	iorwf	(??___fpclassifyf+1)^0,w,c
  6846   003B14  1007               	iorwf	(??___fpclassifyf+2)^0,w,c
  6847   003B16  1008               	iorwf	(??___fpclassifyf+3)^0,w,c
  6848   003B18  B4D8               	btfsc	status,2,c
  6849   003B1A  EF91  F01D         	goto	u3281
  6850   003B1E  EF94  F01D         	goto	u3280
  6851   003B22                     u3281:
  6852   003B22  0E01               	movlw	1
  6853   003B24  EF95  F01D         	goto	u3290
  6854   003B28                     u3280:
  6855   003B28  0E00               	movlw	0
  6856   003B2A                     u3290:
  6857   003B2A  6E01               	movwf	?___fpclassifyf^0,c
  6858   003B2C  6A02               	clrf	(?___fpclassifyf+1)^0,c
  6859   003B2E  EF9D  F01D         	goto	l1055
  6860   003B32                     l3196:
  6861   003B32  0E00               	movlw	0
  6862   003B34  6E02               	movwf	(?___fpclassifyf+1)^0,c
  6863   003B36  0E04               	movlw	4
  6864   003B38  6E01               	movwf	?___fpclassifyf^0,c
  6865   003B3A                     l1055:
  6866   003B3A  0012               	return		;funcret
  6867   003B3C                     __end_of___fpclassifyf:
  6868                           	callstack 0
  6869                           
  6870 ;; *************** function ___fltol *****************
  6871 ;; Defined at:
  6872 ;;		line 43 in file "C:\Program Files\Microchip\xc8\v2.40\pic\sources\c99\common\fltol.c"
  6873 ;; Parameters:    Size  Location     Type
  6874 ;;  f1              4    0[COMRAM] int 
  6875 ;; Auto vars:     Size  Location     Type
  6876 ;;  exp1            1    9[COMRAM] unsigned char 
  6877 ;;  sign1           1    8[COMRAM] unsigned char 
  6878 ;; Return value:  Size  Location     Type
  6879 ;;                  4    0[COMRAM] long 
  6880 ;; Registers used:
  6881 ;;		wreg, status,2, status,0
  6882 ;; Tracked objects:
  6883 ;;		On entry : 0/0
  6884 ;;		On exit  : 0/0
  6885 ;;		Unchanged: 0/0
  6886 ;; Data sizes:     COMRAM   BANK0   BANK1   BANK2   BANK3   BANK4   BANK5   BANK6   BANK7   BANK8   BANK9  BANK10  BANK1
      +1  BANK12  BANK13
  6887 ;;      Params:         4       0       0       0       0       0       0       0       0       0       0       0       
      +0       0       0
  6888 ;;      Locals:         2       0       0       0       0       0       0       0       0       0       0       0       
      +0       0       0
  6889 ;;      Temps:          4       0       0       0       0       0       0       0       0       0       0       0       
      +0       0       0
  6890 ;;      Totals:        10       0       0       0       0       0       0       0       0       0       0       0       
      +0       0       0
  6891 ;;Total ram usage:       10 bytes
  6892 ;; Hardware stack levels used: 1
  6893 ;; This function calls:
  6894 ;;		Nothing
  6895 ;; This function is called by:
  6896 ;;		_RGB2Hue
  6897 ;;		_efgtoa
  6898 ;; This function uses a non-reentrant model
  6899 ;;
  6900                           
  6901                           	psect	text35
  6902   003832                     __ptext35:
  6903                           	callstack 0
  6904   003832                     ___fltol:
  6905                           	callstack 29
  6906   003832  3403               	rlcf	(___fltol@f1+2)^0,w,c
  6907   003834  3404               	rlcf	(___fltol@f1+3)^0,w,c
  6908   003836  6E0A               	movwf	___fltol@exp1^0,c
  6909   003838  500A               	movf	___fltol@exp1^0,w,c
  6910   00383A  A4D8               	btfss	status,2,c
  6911   00383C  EF22  F01C         	goto	u3141
  6912   003840  EF24  F01C         	goto	u3140
  6913   003844                     u3141:
  6914   003844  EF2E  F01C         	goto	l3126
  6915   003848                     u3140:
  6916   003848                     l3122:
  6917   003848  0E00               	movlw	0
  6918   00384A  6E01               	movwf	?___fltol^0,c
  6919   00384C  0E00               	movlw	0
  6920   00384E  6E02               	movwf	(?___fltol+1)^0,c
  6921   003850  0E00               	movlw	0
  6922   003852  6E03               	movwf	(?___fltol+2)^0,c
  6923   003854  0E00               	movlw	0
  6924   003856  6E04               	movwf	(?___fltol+3)^0,c
  6925   003858  EF9B  F01C         	goto	l523
  6926   00385C                     l3126:
  6927   00385C  C001  F005         	movff	___fltol@f1,??___fltol
  6928   003860  C002  F006         	movff	___fltol@f1+1,??___fltol+1
  6929   003864  C003  F007         	movff	___fltol@f1+2,??___fltol+2
  6930   003868  C004  F008         	movff	___fltol@f1+3,??___fltol+3
  6931   00386C  0E20               	movlw	32
  6932   00386E  EF3E  F01C         	goto	u3150
  6933   003872                     u3155:
  6934   003872  90D8               	bcf	status,0,c
  6935   003874  3208               	rrcf	(??___fltol+3)^0,f,c
  6936   003876  3207               	rrcf	(??___fltol+2)^0,f,c
  6937   003878  3206               	rrcf	(??___fltol+1)^0,f,c
  6938   00387A  3205               	rrcf	??___fltol^0,f,c
  6939   00387C                     u3150:
  6940   00387C  2EE8               	decfsz	wreg,f,c
  6941   00387E  EF39  F01C         	goto	u3155
  6942   003882  5005               	movf	??___fltol^0,w,c
  6943   003884  6E09               	movwf	___fltol@sign1^0,c
  6944   003886  8E03               	bsf	(___fltol@f1+2)^0,7,c
  6945   003888  0EFF               	movlw	255
  6946   00388A  1601               	andwf	___fltol@f1^0,f,c
  6947   00388C  0EFF               	movlw	255
  6948   00388E  1602               	andwf	(___fltol@f1+1)^0,f,c
  6949   003890  0EFF               	movlw	255
  6950   003892  1603               	andwf	(___fltol@f1+2)^0,f,c
  6951   003894  0E00               	movlw	0
  6952   003896  1604               	andwf	(___fltol@f1+3)^0,f,c
  6953   003898  0E96               	movlw	150
  6954   00389A  5E0A               	subwf	___fltol@exp1^0,f,c
  6955   00389C  BE0A               	btfsc	___fltol@exp1^0,7,c
  6956   00389E  EF55  F01C         	goto	u3160
  6957   0038A2  EF53  F01C         	goto	u3161
  6958   0038A6                     u3161:
  6959   0038A6  EF6B  F01C         	goto	l3146
  6960   0038AA                     u3160:
  6961   0038AA  500A               	movf	___fltol@exp1^0,w,c
  6962   0038AC  0A80               	xorlw	128
  6963   0038AE  0F97               	addlw	151
  6964   0038B0  B0D8               	btfsc	status,0,c
  6965   0038B2  EF5D  F01C         	goto	u3171
  6966   0038B6  EF5F  F01C         	goto	u3170
  6967   0038BA                     u3171:
  6968   0038BA  EF61  F01C         	goto	l3142
  6969   0038BE                     u3170:
  6970   0038BE  EF24  F01C         	goto	l3122
  6971   0038C2                     l3142:
  6972   0038C2  90D8               	bcf	status,0,c
  6973   0038C4  3204               	rrcf	(___fltol@f1+3)^0,f,c
  6974   0038C6  3203               	rrcf	(___fltol@f1+2)^0,f,c
  6975   0038C8  3202               	rrcf	(___fltol@f1+1)^0,f,c
  6976   0038CA  3201               	rrcf	___fltol@f1^0,f,c
  6977   0038CC  3E0A               	incfsz	___fltol@exp1^0,f,c
  6978   0038CE  EF61  F01C         	goto	l3142
  6979   0038D2  EF83  F01C         	goto	l3156
  6980   0038D6                     l3146:
  6981   0038D6  0E1F               	movlw	31
  6982   0038D8  640A               	cpfsgt	___fltol@exp1^0,c
  6983   0038DA  EF71  F01C         	goto	u3181
  6984   0038DE  EF73  F01C         	goto	u3180
  6985   0038E2                     u3181:
  6986   0038E2  EF7B  F01C         	goto	l3154
  6987   0038E6                     u3180:
  6988   0038E6  EF24  F01C         	goto	l3122
  6989   0038EA                     l3152:
  6990   0038EA  90D8               	bcf	status,0,c
  6991   0038EC  3601               	rlcf	___fltol@f1^0,f,c
  6992   0038EE  3602               	rlcf	(___fltol@f1+1)^0,f,c
  6993   0038F0  3603               	rlcf	(___fltol@f1+2)^0,f,c
  6994   0038F2  3604               	rlcf	(___fltol@f1+3)^0,f,c
  6995   0038F4  060A               	decf	___fltol@exp1^0,f,c
  6996   0038F6                     l3154:
  6997   0038F6  500A               	movf	___fltol@exp1^0,w,c
  6998   0038F8  A4D8               	btfss	status,2,c
  6999   0038FA  EF81  F01C         	goto	u3191
  7000   0038FE  EF83  F01C         	goto	u3190
  7001   003902                     u3191:
  7002   003902  EF75  F01C         	goto	l3152
  7003   003906                     u3190:
  7004   003906                     l3156:
  7005   003906  5009               	movf	___fltol@sign1^0,w,c
  7006   003908  B4D8               	btfsc	status,2,c
  7007   00390A  EF89  F01C         	goto	u3201
  7008   00390E  EF8B  F01C         	goto	u3200
  7009   003912                     u3201:
  7010   003912  EF93  F01C         	goto	l3160
  7011   003916                     u3200:
  7012   003916  1E04               	comf	(___fltol@f1+3)^0,f,c
  7013   003918  1E03               	comf	(___fltol@f1+2)^0,f,c
  7014   00391A  1E02               	comf	(___fltol@f1+1)^0,f,c
  7015   00391C  6C01               	negf	___fltol@f1^0,c
  7016   00391E  0E00               	movlw	0
  7017   003920  2202               	addwfc	(___fltol@f1+1)^0,f,c
  7018   003922  2203               	addwfc	(___fltol@f1+2)^0,f,c
  7019   003924  2204               	addwfc	(___fltol@f1+3)^0,f,c
  7020   003926                     l3160:
  7021   003926  C001  F001         	movff	___fltol@f1,?___fltol
  7022   00392A  C002  F002         	movff	___fltol@f1+1,?___fltol+1
  7023   00392E  C003  F003         	movff	___fltol@f1+2,?___fltol+2
  7024   003932  C004  F004         	movff	___fltol@f1+3,?___fltol+3
  7025   003936                     l523:
  7026   003936  0012               	return		;funcret
  7027   003938                     __end_of___fltol:
  7028                           	callstack 0
  7029                           
  7030 ;; *************** function ___flsub *****************
  7031 ;; Defined at:
  7032 ;;		line 245 in file "C:\Program Files\Microchip\xc8\v2.40\pic\sources\c99\common\sprcadd.c"
  7033 ;; Parameters:    Size  Location     Type
  7034 ;;  b               4   41[COMRAM] long 
  7035 ;;  a               4   45[COMRAM] long 
  7036 ;; Auto vars:     Size  Location     Type
  7037 ;;		None
  7038 ;; Return value:  Size  Location     Type
  7039 ;;                  4   41[COMRAM] long 
  7040 ;; Registers used:
  7041 ;;		wreg, status,2, status,0, cstack
  7042 ;; Tracked objects:
  7043 ;;		On entry : 0/0
  7044 ;;		On exit  : 0/0
  7045 ;;		Unchanged: 0/0
  7046 ;; Data sizes:     COMRAM   BANK0   BANK1   BANK2   BANK3   BANK4   BANK5   BANK6   BANK7   BANK8   BANK9  BANK10  BANK1
      +1  BANK12  BANK13
  7047 ;;      Params:         8       0       0       0       0       0       0       0       0       0       0       0       
      +0       0       0
  7048 ;;      Locals:         0       0       0       0       0       0       0       0       0       0       0       0       
      +0       0       0
  7049 ;;      Temps:          0       0       0       0       0       0       0       0       0       0       0       0       
      +0       0       0
  7050 ;;      Totals:         8       0       0       0       0       0       0       0       0       0       0       0       
      +0       0       0
  7051 ;;Total ram usage:        8 bytes
  7052 ;; Hardware stack levels used: 1
  7053 ;; Hardware stack levels required when called: 1
  7054 ;; This function calls:
  7055 ;;		___fladd
  7056 ;; This function is called by:
  7057 ;;		_RGB2Hue
  7058 ;;		_efgtoa
  7059 ;; This function uses a non-reentrant model
  7060 ;;
  7061                           
  7062                           	psect	text36
  7063   0042FE                     __ptext36:
  7064                           	callstack 0
  7065   0042FE                     ___flsub:
  7066                           	callstack 28
  7067   0042FE  0E00               	movlw	0
  7068   004300  1A2E               	xorwf	___flsub@a^0,f,c
  7069   004302  0E00               	movlw	0
  7070   004304  1A2F               	xorwf	(___flsub@a+1)^0,f,c
  7071   004306  0E00               	movlw	0
  7072   004308  1A30               	xorwf	(___flsub@a+2)^0,f,c
  7073   00430A  0E80               	movlw	128
  7074   00430C  1A31               	xorwf	(___flsub@a+3)^0,f,c
  7075   00430E  C02A  F01A         	movff	___flsub@b,___fladd@b
  7076   004312  C02B  F01B         	movff	___flsub@b+1,___fladd@b+1
  7077   004316  C02C  F01C         	movff	___flsub@b+2,___fladd@b+2
  7078   00431A  C02D  F01D         	movff	___flsub@b+3,___fladd@b+3
  7079   00431E  C02E  F01E         	movff	___flsub@a,___fladd@a
  7080   004322  C02F  F01F         	movff	___flsub@a+1,___fladd@a+1
  7081   004326  C030  F020         	movff	___flsub@a+2,___fladd@a+2
  7082   00432A  C031  F021         	movff	___flsub@a+3,___fladd@a+3
  7083   00432E  ECCF  F00F         	call	___fladd	;wreg free
  7084   004332  C01A  F02A         	movff	?___fladd,?___flsub
  7085   004336  C01B  F02B         	movff	?___fladd+1,?___flsub+1
  7086   00433A  C01C  F02C         	movff	?___fladd+2,?___flsub+2
  7087   00433E  C01D  F02D         	movff	?___fladd+3,?___flsub+3
  7088   004342  0012               	return		;funcret
  7089   004344                     __end_of___flsub:
  7090                           	callstack 0
  7091                           
  7092 ;; *************** function ___fladd *****************
  7093 ;; Defined at:
  7094 ;;		line 10 in file "C:\Program Files\Microchip\xc8\v2.40\pic\sources\c99\common\sprcadd.c"
  7095 ;; Parameters:    Size  Location     Type
  7096 ;;  b               4   25[COMRAM] long 
  7097 ;;  a               4   29[COMRAM] long 
  7098 ;; Auto vars:     Size  Location     Type
  7099 ;;  grs             1   40[COMRAM] unsigned char 
  7100 ;;  bexp            1   39[COMRAM] unsigned char 
  7101 ;;  aexp            1   38[COMRAM] unsigned char 
  7102 ;;  signs           1   37[COMRAM] unsigned char 
  7103 ;; Return value:  Size  Location     Type
  7104 ;;                  4   25[COMRAM] unsigned char 
  7105 ;; Registers used:
  7106 ;;		wreg, status,2, status,0
  7107 ;; Tracked objects:
  7108 ;;		On entry : 0/0
  7109 ;;		On exit  : 0/0
  7110 ;;		Unchanged: 0/0
  7111 ;; Data sizes:     COMRAM   BANK0   BANK1   BANK2   BANK3   BANK4   BANK5   BANK6   BANK7   BANK8   BANK9  BANK10  BANK1
      +1  BANK12  BANK13
  7112 ;;      Params:         8       0       0       0       0       0       0       0       0       0       0       0       
      +0       0       0
  7113 ;;      Locals:         4       0       0       0       0       0       0       0       0       0       0       0       
      +0       0       0
  7114 ;;      Temps:          4       0       0       0       0       0       0       0       0       0       0       0       
      +0       0       0
  7115 ;;      Totals:        16       0       0       0       0       0       0       0       0       0       0       0       
      +0       0       0
  7116 ;;Total ram usage:       16 bytes
  7117 ;; Hardware stack levels used: 1
  7118 ;; This function calls:
  7119 ;;		Nothing
  7120 ;; This function is called by:
  7121 ;;		_RGB2Hue
  7122 ;;		___flsub
  7123 ;;		_efgtoa
  7124 ;; This function uses a non-reentrant model
  7125 ;;
  7126                           
  7127                           	psect	text37
  7128   001F9E                     __ptext37:
  7129                           	callstack 0
  7130   001F9E                     ___fladd:
  7131                           	callstack 28
  7132   001F9E  501D               	movf	(___fladd@b+3)^0,w,c
  7133   001FA0  0B80               	andlw	128
  7134   001FA2  6E26               	movwf	___fladd@signs^0,c
  7135   001FA4  501D               	movf	(___fladd@b+3)^0,w,c
  7136   001FA6  241D               	addwf	(___fladd@b+3)^0,w,c
  7137   001FA8  6E28               	movwf	___fladd@bexp^0,c
  7138   001FAA  AE1C               	btfss	(___fladd@b+2)^0,7,c
  7139   001FAC  EFDA  F00F         	goto	u2231
  7140   001FB0  EFDC  F00F         	goto	u2230
  7141   001FB4                     u2231:
  7142   001FB4  EFDD  F00F         	goto	l2596
  7143   001FB8                     u2230:
  7144   001FB8  8028               	bsf	___fladd@bexp^0,0,c
  7145   001FBA                     l2596:
  7146   001FBA  5028               	movf	___fladd@bexp^0,w,c
  7147   001FBC  B4D8               	btfsc	status,2,c
  7148   001FBE  EFE3  F00F         	goto	u2241
  7149   001FC2  EFE5  F00F         	goto	u2240
  7150   001FC6                     u2241:
  7151   001FC6  EFFA  F00F         	goto	l2606
  7152   001FCA                     u2240:
  7153   001FCA  2828               	incf	___fladd@bexp^0,w,c
  7154   001FCC  A4D8               	btfss	status,2,c
  7155   001FCE  EFEB  F00F         	goto	u2251
  7156   001FD2  EFED  F00F         	goto	u2250
  7157   001FD6                     u2251:
  7158   001FD6  EFF5  F00F         	goto	l2602
  7159   001FDA                     u2250:
  7160   001FDA  0E00               	movlw	0
  7161   001FDC  6E1A               	movwf	___fladd@b^0,c
  7162   001FDE  0E00               	movlw	0
  7163   001FE0  6E1B               	movwf	(___fladd@b+1)^0,c
  7164   001FE2  0E00               	movlw	0
  7165   001FE4  6E1C               	movwf	(___fladd@b+2)^0,c
  7166   001FE6  0E00               	movlw	0
  7167   001FE8  6E1D               	movwf	(___fladd@b+3)^0,c
  7168   001FEA                     l2602:
  7169   001FEA  8E1C               	bsf	(___fladd@b+2)^0,7,c
  7170   001FEC  0E00               	movlw	0
  7171   001FEE  6E1D               	movwf	(___fladd@b+3)^0,c
  7172   001FF0  EF02  F010         	goto	l2608
  7173   001FF4                     l2606:
  7174   001FF4  0E00               	movlw	0
  7175   001FF6  6E1A               	movwf	___fladd@b^0,c
  7176   001FF8  0E00               	movlw	0
  7177   001FFA  6E1B               	movwf	(___fladd@b+1)^0,c
  7178   001FFC  0E00               	movlw	0
  7179   001FFE  6E1C               	movwf	(___fladd@b+2)^0,c
  7180   002000  0E00               	movlw	0
  7181   002002  6E1D               	movwf	(___fladd@b+3)^0,c
  7182   002004                     l2608:
  7183   002004  5021               	movf	(___fladd@a+3)^0,w,c
  7184   002006  0B80               	andlw	128
  7185   002008  6E27               	movwf	___fladd@aexp^0,c
  7186   00200A  5026               	movf	___fladd@signs^0,w,c
  7187   00200C  1827               	xorwf	___fladd@aexp^0,w,c
  7188   00200E  B4D8               	btfsc	status,2,c
  7189   002010  EF0C  F010         	goto	u2261
  7190   002014  EF0E  F010         	goto	u2260
  7191   002018                     u2261:
  7192   002018  EF0F  F010         	goto	l2614
  7193   00201C                     u2260:
  7194   00201C  8C26               	bsf	___fladd@signs^0,6,c
  7195   00201E                     l2614:
  7196   00201E  5021               	movf	(___fladd@a+3)^0,w,c
  7197   002020  2421               	addwf	(___fladd@a+3)^0,w,c
  7198   002022  6E27               	movwf	___fladd@aexp^0,c
  7199   002024  AE20               	btfss	(___fladd@a+2)^0,7,c
  7200   002026  EF17  F010         	goto	u2271
  7201   00202A  EF19  F010         	goto	u2270
  7202   00202E                     u2271:
  7203   00202E  EF1A  F010         	goto	l2620
  7204   002032                     u2270:
  7205   002032  8027               	bsf	___fladd@aexp^0,0,c
  7206   002034                     l2620:
  7207   002034  5027               	movf	___fladd@aexp^0,w,c
  7208   002036  B4D8               	btfsc	status,2,c
  7209   002038  EF20  F010         	goto	u2281
  7210   00203C  EF22  F010         	goto	u2280
  7211   002040                     u2281:
  7212   002040  EF37  F010         	goto	l2630
  7213   002044                     u2280:
  7214   002044  2827               	incf	___fladd@aexp^0,w,c
  7215   002046  A4D8               	btfss	status,2,c
  7216   002048  EF28  F010         	goto	u2291
  7217   00204C  EF2A  F010         	goto	u2290
  7218   002050                     u2291:
  7219   002050  EF32  F010         	goto	l2626
  7220   002054                     u2290:
  7221   002054  0E00               	movlw	0
  7222   002056  6E1E               	movwf	___fladd@a^0,c
  7223   002058  0E00               	movlw	0
  7224   00205A  6E1F               	movwf	(___fladd@a+1)^0,c
  7225   00205C  0E00               	movlw	0
  7226   00205E  6E20               	movwf	(___fladd@a+2)^0,c
  7227   002060  0E00               	movlw	0
  7228   002062  6E21               	movwf	(___fladd@a+3)^0,c
  7229   002064                     l2626:
  7230   002064  8E20               	bsf	(___fladd@a+2)^0,7,c
  7231   002066  0E00               	movlw	0
  7232   002068  6E21               	movwf	(___fladd@a+3)^0,c
  7233   00206A  EF3F  F010         	goto	l2632
  7234   00206E                     l2630:
  7235   00206E  0E00               	movlw	0
  7236   002070  6E1E               	movwf	___fladd@a^0,c
  7237   002072  0E00               	movlw	0
  7238   002074  6E1F               	movwf	(___fladd@a+1)^0,c
  7239   002076  0E00               	movlw	0
  7240   002078  6E20               	movwf	(___fladd@a+2)^0,c
  7241   00207A  0E00               	movlw	0
  7242   00207C  6E21               	movwf	(___fladd@a+3)^0,c
  7243   00207E                     l2632:
  7244   00207E  5028               	movf	___fladd@bexp^0,w,c
  7245   002080  5C27               	subwf	___fladd@aexp^0,w,c
  7246   002082  B0D8               	btfsc	status,0,c
  7247   002084  EF46  F010         	goto	u2301
  7248   002088  EF48  F010         	goto	u2300
  7249   00208C                     u2301:
  7250   00208C  EF6F  F010         	goto	l2668
  7251   002090                     u2300:
  7252   002090  AC26               	btfss	___fladd@signs^0,6,c
  7253   002092  EF4D  F010         	goto	u2311
  7254   002096  EF4F  F010         	goto	u2310
  7255   00209A                     u2311:
  7256   00209A  EF51  F010         	goto	l2638
  7257   00209E                     u2310:
  7258   00209E  0E80               	movlw	128
  7259   0020A0  1A26               	xorwf	___fladd@signs^0,f,c
  7260   0020A2                     l2638:
  7261   0020A2  C028  F029         	movff	___fladd@bexp,___fladd@grs
  7262   0020A6  C027  F028         	movff	___fladd@aexp,___fladd@bexp
  7263   0020AA  C029  F027         	movff	___fladd@grs,___fladd@aexp
  7264   0020AE  C01A  F029         	movff	___fladd@b,___fladd@grs
  7265   0020B2  C01E  F01A         	movff	___fladd@a,___fladd@b
  7266   0020B6  C029  F01E         	movff	___fladd@grs,___fladd@a
  7267   0020BA  C01B  F029         	movff	___fladd@b+1,___fladd@grs
  7268   0020BE  C01F  F01B         	movff	___fladd@a+1,___fladd@b+1
  7269   0020C2  C029  F01F         	movff	___fladd@grs,___fladd@a+1
  7270   0020C6  C01C  F029         	movff	___fladd@b+2,___fladd@grs
  7271   0020CA  C020  F01C         	movff	___fladd@a+2,___fladd@b+2
  7272   0020CE  C029  F020         	movff	___fladd@grs,___fladd@a+2
  7273   0020D2  C01D  F029         	movff	___fladd@b+3,___fladd@grs
  7274   0020D6  C021  F01D         	movff	___fladd@a+3,___fladd@b+3
  7275   0020DA  C029  F021         	movff	___fladd@grs,___fladd@a+3
  7276   0020DE                     l2668:
  7277   0020DE  0E00               	movlw	0
  7278   0020E0  6E29               	movwf	___fladd@grs^0,c
  7279   0020E2  5028               	movf	___fladd@bexp^0,w,c
  7280   0020E4  C027  F022         	movff	___fladd@aexp,??___fladd
  7281   0020E8  6A23               	clrf	(??___fladd+1)^0,c
  7282   0020EA  5E22               	subwf	??___fladd^0,f,c
  7283   0020EC  0E00               	movlw	0
  7284   0020EE  5A23               	subwfb	(??___fladd+1)^0,f,c
  7285   0020F0  BE23               	btfsc	(??___fladd+1)^0,7,c
  7286   0020F2  EF84  F010         	goto	u2321
  7287   0020F6  5023               	movf	(??___fladd+1)^0,w,c
  7288   0020F8  E109               	bnz	u2320
  7289   0020FA  0E1A               	movlw	26
  7290   0020FC  5C22               	subwf	??___fladd^0,w,c
  7291   0020FE  A0D8               	btfss	status,0,c
  7292   002100  EF84  F010         	goto	u2321
  7293   002104  EF86  F010         	goto	u2320
  7294   002108                     u2321:
  7295   002108  EFBD  F010         	goto	l755
  7296   00210C                     u2320:
  7297   00210C  501A               	movf	___fladd@b^0,w,c
  7298   00210E  101B               	iorwf	(___fladd@b+1)^0,w,c
  7299   002110  101C               	iorwf	(___fladd@b+2)^0,w,c
  7300   002112  101D               	iorwf	(___fladd@b+3)^0,w,c
  7301   002114  A4D8               	btfss	status,2,c
  7302   002116  EF8F  F010         	goto	u2331
  7303   00211A  EF92  F010         	goto	u2330
  7304   00211E                     u2331:
  7305   00211E  0E01               	movlw	1
  7306   002120  EF93  F010         	goto	u2340
  7307   002124                     u2330:
  7308   002124  0E00               	movlw	0
  7309   002126                     u2340:
  7310   002126  6E29               	movwf	___fladd@grs^0,c
  7311   002128  0E00               	movlw	0
  7312   00212A  6E1A               	movwf	___fladd@b^0,c
  7313   00212C  0E00               	movlw	0
  7314   00212E  6E1B               	movwf	(___fladd@b+1)^0,c
  7315   002130  0E00               	movlw	0
  7316   002132  6E1C               	movwf	(___fladd@b+2)^0,c
  7317   002134  0E00               	movlw	0
  7318   002136  6E1D               	movwf	(___fladd@b+3)^0,c
  7319   002138  C027  F028         	movff	___fladd@aexp,___fladd@bexp
  7320   00213C  EFC6  F010         	goto	l754
  7321   002140                     l756:
  7322   002140  A029               	btfss	___fladd@grs^0,0,c
  7323   002142  EFA5  F010         	goto	u2351
  7324   002146  EFA7  F010         	goto	u2350
  7325   00214A                     u2351:
  7326   00214A  EFAD  F010         	goto	l2680
  7327   00214E                     u2350:
  7328   00214E  90D8               	bcf	status,0,c
  7329   002150  3029               	rrcf	___fladd@grs^0,w,c
  7330   002152  0901               	iorlw	1
  7331   002154  6E29               	movwf	___fladd@grs^0,c
  7332   002156  EFAF  F010         	goto	l2682
  7333   00215A                     l2680:
  7334   00215A  90D8               	bcf	status,0,c
  7335   00215C  3229               	rrcf	___fladd@grs^0,f,c
  7336   00215E                     l2682:
  7337   00215E  A01A               	btfss	___fladd@b^0,0,c
  7338   002160  EFB4  F010         	goto	u2361
  7339   002164  EFB6  F010         	goto	u2360
  7340   002168                     u2361:
  7341   002168  EFB7  F010         	goto	l2686
  7342   00216C                     u2360:
  7343   00216C  8E29               	bsf	___fladd@grs^0,7,c
  7344   00216E                     l2686:
  7345   00216E  341D               	rlcf	(___fladd@b+3)^0,w,c
  7346   002170  321D               	rrcf	(___fladd@b+3)^0,f,c
  7347   002172  321C               	rrcf	(___fladd@b+2)^0,f,c
  7348   002174  321B               	rrcf	(___fladd@b+1)^0,f,c
  7349   002176  321A               	rrcf	___fladd@b^0,f,c
  7350   002178  2A28               	incf	___fladd@bexp^0,f,c
  7351   00217A                     l755:
  7352   00217A  5027               	movf	___fladd@aexp^0,w,c
  7353   00217C  5C28               	subwf	___fladd@bexp^0,w,c
  7354   00217E  A0D8               	btfss	status,0,c
  7355   002180  EFC4  F010         	goto	u2371
  7356   002184  EFC6  F010         	goto	u2370
  7357   002188                     u2371:
  7358   002188  EFA0  F010         	goto	l756
  7359   00218C                     u2370:
  7360   00218C                     l754:
  7361   00218C  BC26               	btfsc	___fladd@signs^0,6,c
  7362   00218E  EFCB  F010         	goto	u2381
  7363   002192  EFCD  F010         	goto	u2380
  7364   002196                     u2381:
  7365   002196  EF0D  F011         	goto	l2714
  7366   00219A                     u2380:
  7367   00219A  5028               	movf	___fladd@bexp^0,w,c
  7368   00219C  A4D8               	btfss	status,2,c
  7369   00219E  EFD3  F010         	goto	u2391
  7370   0021A2  EFD5  F010         	goto	u2390
  7371   0021A6                     u2391:
  7372   0021A6  EFDF  F010         	goto	l2696
  7373   0021AA                     u2390:
  7374   0021AA  0E00               	movlw	0
  7375   0021AC  6E1A               	movwf	?___fladd^0,c
  7376   0021AE  0E00               	movlw	0
  7377   0021B0  6E1B               	movwf	(?___fladd+1)^0,c
  7378   0021B2  0E00               	movlw	0
  7379   0021B4  6E1C               	movwf	(?___fladd+2)^0,c
  7380   0021B6  0E00               	movlw	0
  7381   0021B8  6E1D               	movwf	(?___fladd+3)^0,c
  7382   0021BA  EF2E  F012         	goto	l763
  7383   0021BE                     l2696:
  7384   0021BE  501E               	movf	___fladd@a^0,w,c
  7385   0021C0  261A               	addwf	___fladd@b^0,f,c
  7386   0021C2  501F               	movf	(___fladd@a+1)^0,w,c
  7387   0021C4  221B               	addwfc	(___fladd@b+1)^0,f,c
  7388   0021C6  5020               	movf	(___fladd@a+2)^0,w,c
  7389   0021C8  221C               	addwfc	(___fladd@b+2)^0,f,c
  7390   0021CA  5021               	movf	(___fladd@a+3)^0,w,c
  7391   0021CC  221D               	addwfc	(___fladd@b+3)^0,f,c
  7392   0021CE  A01D               	btfss	(___fladd@b+3)^0,0,c
  7393   0021D0  EFEC  F010         	goto	u2401
  7394   0021D4  EFEE  F010         	goto	u2400
  7395   0021D8                     u2401:
  7396   0021D8  EF9A  F011         	goto	l2750
  7397   0021DC                     u2400:
  7398   0021DC  A029               	btfss	___fladd@grs^0,0,c
  7399   0021DE  EFF3  F010         	goto	u2411
  7400   0021E2  EFF5  F010         	goto	u2410
  7401   0021E6                     u2411:
  7402   0021E6  EFFB  F010         	goto	l2704
  7403   0021EA                     u2410:
  7404   0021EA  90D8               	bcf	status,0,c
  7405   0021EC  3029               	rrcf	___fladd@grs^0,w,c
  7406   0021EE  0901               	iorlw	1
  7407   0021F0  6E29               	movwf	___fladd@grs^0,c
  7408   0021F2  EFFD  F010         	goto	l2706
  7409   0021F6                     l2704:
  7410   0021F6  90D8               	bcf	status,0,c
  7411   0021F8  3229               	rrcf	___fladd@grs^0,f,c
  7412   0021FA                     l2706:
  7413   0021FA  A01A               	btfss	___fladd@b^0,0,c
  7414   0021FC  EF02  F011         	goto	u2421
  7415   002200  EF04  F011         	goto	u2420
  7416   002204                     u2421:
  7417   002204  EF05  F011         	goto	l2710
  7418   002208                     u2420:
  7419   002208  8E29               	bsf	___fladd@grs^0,7,c
  7420   00220A                     l2710:
  7421   00220A  341D               	rlcf	(___fladd@b+3)^0,w,c
  7422   00220C  321D               	rrcf	(___fladd@b+3)^0,f,c
  7423   00220E  321C               	rrcf	(___fladd@b+2)^0,f,c
  7424   002210  321B               	rrcf	(___fladd@b+1)^0,f,c
  7425   002212  321A               	rrcf	___fladd@b^0,f,c
  7426   002214  2A28               	incf	___fladd@bexp^0,f,c
  7427   002216  EF9A  F011         	goto	l2750
  7428   00221A                     l2714:
  7429   00221A  501E               	movf	___fladd@a^0,w,c
  7430   00221C  5C1A               	subwf	___fladd@b^0,w,c
  7431   00221E  501F               	movf	(___fladd@a+1)^0,w,c
  7432   002220  581B               	subwfb	(___fladd@b+1)^0,w,c
  7433   002222  5020               	movf	(___fladd@a+2)^0,w,c
  7434   002224  581C               	subwfb	(___fladd@b+2)^0,w,c
  7435   002226  501D               	movf	(___fladd@b+3)^0,w,c
  7436   002228  0A80               	xorlw	128
  7437   00222A  6E22               	movwf	??___fladd^0,c
  7438   00222C  5021               	movf	(___fladd@a+3)^0,w,c
  7439   00222E  0A80               	xorlw	128
  7440   002230  5822               	subwfb	??___fladd^0,w,c
  7441   002232  B0D8               	btfsc	status,0,c
  7442   002234  EF1E  F011         	goto	u2431
  7443   002238  EF20  F011         	goto	u2430
  7444   00223C                     u2431:
  7445   00223C  EF4B  F011         	goto	l2724
  7446   002240                     u2430:
  7447   002240  501A               	movf	___fladd@b^0,w,c
  7448   002242  5C1E               	subwf	___fladd@a^0,w,c
  7449   002244  6E22               	movwf	??___fladd^0,c
  7450   002246  501B               	movf	(___fladd@b+1)^0,w,c
  7451   002248  581F               	subwfb	(___fladd@a+1)^0,w,c
  7452   00224A  6E23               	movwf	(??___fladd+1)^0,c
  7453   00224C  501C               	movf	(___fladd@b+2)^0,w,c
  7454   00224E  5820               	subwfb	(___fladd@a+2)^0,w,c
  7455   002250  6E24               	movwf	(??___fladd+2)^0,c
  7456   002252  501D               	movf	(___fladd@b+3)^0,w,c
  7457   002254  5821               	subwfb	(___fladd@a+3)^0,w,c
  7458   002256  6E25               	movwf	(??___fladd+3)^0,c
  7459   002258  0EFF               	movlw	255
  7460   00225A  2422               	addwf	??___fladd^0,w,c
  7461   00225C  6E1A               	movwf	___fladd@b^0,c
  7462   00225E  0EFF               	movlw	255
  7463   002260  2023               	addwfc	(??___fladd+1)^0,w,c
  7464   002262  6E1B               	movwf	(___fladd@b+1)^0,c
  7465   002264  0EFF               	movlw	255
  7466   002266  2024               	addwfc	(??___fladd+2)^0,w,c
  7467   002268  6E1C               	movwf	(___fladd@b+2)^0,c
  7468   00226A  0EFF               	movlw	255
  7469   00226C  2025               	addwfc	(??___fladd+3)^0,w,c
  7470   00226E  6E1D               	movwf	(___fladd@b+3)^0,c
  7471   002270  0E80               	movlw	128
  7472   002272  1A26               	xorwf	___fladd@signs^0,f,c
  7473   002274  6C29               	negf	___fladd@grs^0,c
  7474   002276  5029               	movf	___fladd@grs^0,w,c
  7475   002278  A4D8               	btfss	status,2,c
  7476   00227A  EF41  F011         	goto	u2441
  7477   00227E  EF43  F011         	goto	u2440
  7478   002282                     u2441:
  7479   002282  EF53  F011         	goto	l771
  7480   002286                     u2440:
  7481   002286  0E01               	movlw	1
  7482   002288  261A               	addwf	___fladd@b^0,f,c
  7483   00228A  0E00               	movlw	0
  7484   00228C  221B               	addwfc	(___fladd@b+1)^0,f,c
  7485   00228E  221C               	addwfc	(___fladd@b+2)^0,f,c
  7486   002290  221D               	addwfc	(___fladd@b+3)^0,f,c
  7487   002292  EF53  F011         	goto	l771
  7488   002296                     l2724:
  7489   002296  501E               	movf	___fladd@a^0,w,c
  7490   002298  5E1A               	subwf	___fladd@b^0,f,c
  7491   00229A  501F               	movf	(___fladd@a+1)^0,w,c
  7492   00229C  5A1B               	subwfb	(___fladd@b+1)^0,f,c
  7493   00229E  5020               	movf	(___fladd@a+2)^0,w,c
  7494   0022A0  5A1C               	subwfb	(___fladd@b+2)^0,f,c
  7495   0022A2  5021               	movf	(___fladd@a+3)^0,w,c
  7496   0022A4  5A1D               	subwfb	(___fladd@b+3)^0,f,c
  7497   0022A6                     l771:
  7498   0022A6  501A               	movf	___fladd@b^0,w,c
  7499   0022A8  101B               	iorwf	(___fladd@b+1)^0,w,c
  7500   0022AA  101C               	iorwf	(___fladd@b+2)^0,w,c
  7501   0022AC  101D               	iorwf	(___fladd@b+3)^0,w,c
  7502   0022AE  A4D8               	btfss	status,2,c
  7503   0022B0  EF5C  F011         	goto	u2451
  7504   0022B4  EF5E  F011         	goto	u2450
  7505   0022B8                     u2451:
  7506   0022B8  EF93  F011         	goto	l2748
  7507   0022BC                     u2450:
  7508   0022BC  5029               	movf	___fladd@grs^0,w,c
  7509   0022BE  A4D8               	btfss	status,2,c
  7510   0022C0  EF64  F011         	goto	u2461
  7511   0022C4  EF66  F011         	goto	u2460
  7512   0022C8                     u2461:
  7513   0022C8  EF93  F011         	goto	l2748
  7514   0022CC                     u2460:
  7515   0022CC  0E00               	movlw	0
  7516   0022CE  6E1A               	movwf	?___fladd^0,c
  7517   0022D0  0E00               	movlw	0
  7518   0022D2  6E1B               	movwf	(?___fladd+1)^0,c
  7519   0022D4  0E00               	movlw	0
  7520   0022D6  6E1C               	movwf	(?___fladd+2)^0,c
  7521   0022D8  0E00               	movlw	0
  7522   0022DA  6E1D               	movwf	(?___fladd+3)^0,c
  7523   0022DC  EF2E  F012         	goto	l763
  7524   0022E0                     l2732:
  7525   0022E0  90D8               	bcf	status,0,c
  7526   0022E2  361A               	rlcf	___fladd@b^0,f,c
  7527   0022E4  361B               	rlcf	(___fladd@b+1)^0,f,c
  7528   0022E6  361C               	rlcf	(___fladd@b+2)^0,f,c
  7529   0022E8  361D               	rlcf	(___fladd@b+3)^0,f,c
  7530   0022EA  AE29               	btfss	___fladd@grs^0,7,c
  7531   0022EC  EF7A  F011         	goto	u2471
  7532   0022F0  EF7C  F011         	goto	u2470
  7533   0022F4                     u2471:
  7534   0022F4  EF7D  F011         	goto	l2738
  7535   0022F8                     u2470:
  7536   0022F8  801A               	bsf	___fladd@b^0,0,c
  7537   0022FA                     l2738:
  7538   0022FA  A029               	btfss	___fladd@grs^0,0,c
  7539   0022FC  EF82  F011         	goto	u2481
  7540   002300  EF84  F011         	goto	u2480
  7541   002304                     u2481:
  7542   002304  EF88  F011         	goto	l2742
  7543   002308                     u2480:
  7544   002308  80D8               	bsf	status,0,c
  7545   00230A  3629               	rlcf	___fladd@grs^0,f,c
  7546   00230C  EF8A  F011         	goto	l2744
  7547   002310                     l2742:
  7548   002310  90D8               	bcf	status,0,c
  7549   002312  3629               	rlcf	___fladd@grs^0,f,c
  7550   002314                     l2744:
  7551   002314  5028               	movf	___fladd@bexp^0,w,c
  7552   002316  B4D8               	btfsc	status,2,c
  7553   002318  EF90  F011         	goto	u2491
  7554   00231C  EF92  F011         	goto	u2490
  7555   002320                     u2491:
  7556   002320  EF93  F011         	goto	l2748
  7557   002324                     u2490:
  7558   002324  0628               	decf	___fladd@bexp^0,f,c
  7559   002326                     l2748:
  7560   002326  AE1C               	btfss	(___fladd@b+2)^0,7,c
  7561   002328  EF98  F011         	goto	u2501
  7562   00232C  EF9A  F011         	goto	u2500
  7563   002330                     u2501:
  7564   002330  EF70  F011         	goto	l2732
  7565   002334                     u2500:
  7566   002334                     l2750:
  7567   002334  0E00               	movlw	0
  7568   002336  6E27               	movwf	___fladd@aexp^0,c
  7569   002338  AE29               	btfss	___fladd@grs^0,7,c
  7570   00233A  EFA1  F011         	goto	u2511
  7571   00233E  EFA3  F011         	goto	u2510
  7572   002342                     u2511:
  7573   002342  EFBB  F011         	goto	l780
  7574   002346                     u2510:
  7575   002346  C029  F022         	movff	___fladd@grs,??___fladd
  7576   00234A  0E7F               	movlw	127
  7577   00234C  1622               	andwf	??___fladd^0,f,c
  7578   00234E  B4D8               	btfsc	status,2,c
  7579   002350  EFAC  F011         	goto	u2521
  7580   002354  EFAE  F011         	goto	u2520
  7581   002358                     u2521:
  7582   002358  EFB2  F011         	goto	l781
  7583   00235C                     u2520:
  7584   00235C                     l2756:
  7585   00235C  0E01               	movlw	1
  7586   00235E  6E27               	movwf	___fladd@aexp^0,c
  7587   002360  EFBB  F011         	goto	l780
  7588   002364                     l781:
  7589   002364  A01A               	btfss	___fladd@b^0,0,c
  7590   002366  EFB7  F011         	goto	u2531
  7591   00236A  EFB9  F011         	goto	u2530
  7592   00236E                     u2531:
  7593   00236E  EFBB  F011         	goto	l780
  7594   002372                     u2530:
  7595   002372  EFAE  F011         	goto	l2756
  7596   002376                     l780:
  7597   002376  5027               	movf	___fladd@aexp^0,w,c
  7598   002378  B4D8               	btfsc	status,2,c
  7599   00237A  EFC1  F011         	goto	u2541
  7600   00237E  EFC3  F011         	goto	u2540
  7601   002382                     u2541:
  7602   002382  EFEE  F011         	goto	l2768
  7603   002386                     u2540:
  7604   002386  0E01               	movlw	1
  7605   002388  261A               	addwf	___fladd@b^0,f,c
  7606   00238A  0E00               	movlw	0
  7607   00238C  221B               	addwfc	(___fladd@b+1)^0,f,c
  7608   00238E  221C               	addwfc	(___fladd@b+2)^0,f,c
  7609   002390  221D               	addwfc	(___fladd@b+3)^0,f,c
  7610   002392  A01D               	btfss	(___fladd@b+3)^0,0,c
  7611   002394  EFCE  F011         	goto	u2551
  7612   002398  EFD0  F011         	goto	u2550
  7613   00239C                     u2551:
  7614   00239C  EFEE  F011         	goto	l2768
  7615   0023A0                     u2550:
  7616   0023A0  C01A  F022         	movff	___fladd@b,??___fladd
  7617   0023A4  C01B  F023         	movff	___fladd@b+1,??___fladd+1
  7618   0023A8  C01C  F024         	movff	___fladd@b+2,??___fladd+2
  7619   0023AC  C01D  F025         	movff	___fladd@b+3,??___fladd+3
  7620   0023B0  3425               	rlcf	(??___fladd+3)^0,w,c
  7621   0023B2  3225               	rrcf	(??___fladd+3)^0,f,c
  7622   0023B4  3224               	rrcf	(??___fladd+2)^0,f,c
  7623   0023B6  3223               	rrcf	(??___fladd+1)^0,f,c
  7624   0023B8  3222               	rrcf	??___fladd^0,f,c
  7625   0023BA  C022  F01A         	movff	??___fladd,___fladd@b
  7626   0023BE  C023  F01B         	movff	??___fladd+1,___fladd@b+1
  7627   0023C2  C024  F01C         	movff	??___fladd+2,___fladd@b+2
  7628   0023C6  C025  F01D         	movff	??___fladd+3,___fladd@b+3
  7629   0023CA  2828               	incf	___fladd@bexp^0,w,c
  7630   0023CC  B4D8               	btfsc	status,2,c
  7631   0023CE  EFEB  F011         	goto	u2561
  7632   0023D2  EFED  F011         	goto	u2560
  7633   0023D6                     u2561:
  7634   0023D6  EFEE  F011         	goto	l2768
  7635   0023DA                     u2560:
  7636   0023DA  2A28               	incf	___fladd@bexp^0,f,c
  7637   0023DC                     l2768:
  7638   0023DC  2828               	incf	___fladd@bexp^0,w,c
  7639   0023DE  B4D8               	btfsc	status,2,c
  7640   0023E0  EFF4  F011         	goto	u2571
  7641   0023E4  EFF6  F011         	goto	u2570
  7642   0023E8                     u2571:
  7643   0023E8  EFFE  F011         	goto	l2772
  7644   0023EC                     u2570:
  7645   0023EC  5028               	movf	___fladd@bexp^0,w,c
  7646   0023EE  A4D8               	btfss	status,2,c
  7647   0023F0  EFFC  F011         	goto	u2581
  7648   0023F4  EFFE  F011         	goto	u2580
  7649   0023F8                     u2581:
  7650   0023F8  EF10  F012         	goto	l2776
  7651   0023FC                     u2580:
  7652   0023FC                     l2772:
  7653   0023FC  0E00               	movlw	0
  7654   0023FE  6E1A               	movwf	___fladd@b^0,c
  7655   002400  0E00               	movlw	0
  7656   002402  6E1B               	movwf	(___fladd@b+1)^0,c
  7657   002404  0E00               	movlw	0
  7658   002406  6E1C               	movwf	(___fladd@b+2)^0,c
  7659   002408  0E00               	movlw	0
  7660   00240A  6E1D               	movwf	(___fladd@b+3)^0,c
  7661   00240C  5028               	movf	___fladd@bexp^0,w,c
  7662   00240E  A4D8               	btfss	status,2,c
  7663   002410  EF0C  F012         	goto	u2591
  7664   002414  EF0E  F012         	goto	u2590
  7665   002418                     u2591:
  7666   002418  EF10  F012         	goto	l2776
  7667   00241C                     u2590:
  7668   00241C  0E00               	movlw	0
  7669   00241E  6E26               	movwf	___fladd@signs^0,c
  7670   002420                     l2776:
  7671   002420  A028               	btfss	___fladd@bexp^0,0,c
  7672   002422  EF15  F012         	goto	u2601
  7673   002426  EF17  F012         	goto	u2600
  7674   00242A                     u2601:
  7675   00242A  EF1A  F012         	goto	l2780
  7676   00242E                     u2600:
  7677   00242E  8E1C               	bsf	(___fladd@b+2)^0,7,c
  7678   002430  EF1B  F012         	goto	l2782
  7679   002434                     l2780:
  7680   002434  9E1C               	bcf	(___fladd@b+2)^0,7,c
  7681   002436                     l2782:
  7682   002436  90D8               	bcf	status,0,c
  7683   002438  3028               	rrcf	___fladd@bexp^0,w,c
  7684   00243A  6E1D               	movwf	(___fladd@b+3)^0,c
  7685   00243C  AE26               	btfss	___fladd@signs^0,7,c
  7686   00243E  EF23  F012         	goto	u2611
  7687   002442  EF25  F012         	goto	u2610
  7688   002446                     u2611:
  7689   002446  EF26  F012         	goto	l2788
  7690   00244A                     u2610:
  7691   00244A  8E1D               	bsf	(___fladd@b+3)^0,7,c
  7692   00244C                     l2788:
  7693   00244C  C01A  F01A         	movff	___fladd@b,?___fladd
  7694   002450  C01B  F01B         	movff	___fladd@b+1,?___fladd+1
  7695   002454  C01C  F01C         	movff	___fladd@b+2,?___fladd+2
  7696   002458  C01D  F01D         	movff	___fladd@b+3,?___fladd+3
  7697   00245C                     l763:
  7698   00245C  0012               	return		;funcret
  7699   00245E                     __end_of___fladd:
  7700                           	callstack 0
  7701                           
  7702 ;; *************** function ___flneg *****************
  7703 ;; Defined at:
  7704 ;;		line 15 in file "C:\Program Files\Microchip\xc8\v2.40\pic\sources\c99\common\flneg.c"
  7705 ;; Parameters:    Size  Location     Type
  7706 ;;  f1              4    0[COMRAM] unsigned char 
  7707 ;; Auto vars:     Size  Location     Type
  7708 ;;		None
  7709 ;; Return value:  Size  Location     Type
  7710 ;;                  4    0[COMRAM] unsigned char 
  7711 ;; Registers used:
  7712 ;;		wreg, status,2, status,0
  7713 ;; Tracked objects:
  7714 ;;		On entry : 0/0
  7715 ;;		On exit  : 0/0
  7716 ;;		Unchanged: 0/0
  7717 ;; Data sizes:     COMRAM   BANK0   BANK1   BANK2   BANK3   BANK4   BANK5   BANK6   BANK7   BANK8   BANK9  BANK10  BANK1
      +1  BANK12  BANK13
  7718 ;;      Params:         4       0       0       0       0       0       0       0       0       0       0       0       
      +0       0       0
  7719 ;;      Locals:         0       0       0       0       0       0       0       0       0       0       0       0       
      +0       0       0
  7720 ;;      Temps:          0       0       0       0       0       0       0       0       0       0       0       0       
      +0       0       0
  7721 ;;      Totals:         4       0       0       0       0       0       0       0       0       0       0       0       
      +0       0       0
  7722 ;;Total ram usage:        4 bytes
  7723 ;; Hardware stack levels used: 1
  7724 ;; This function calls:
  7725 ;;		Nothing
  7726 ;; This function is called by:
  7727 ;;		_efgtoa
  7728 ;; This function uses a non-reentrant model
  7729 ;;
  7730                           
  7731                           	psect	text38
  7732   00448A                     __ptext38:
  7733                           	callstack 0
  7734   00448A                     ___flneg:
  7735                           	callstack 25
  7736   00448A  5001               	movf	___flneg@f1^0,w,c
  7737   00448C  1002               	iorwf	(___flneg@f1+1)^0,w,c
  7738   00448E  1003               	iorwf	(___flneg@f1+2)^0,w,c
  7739   004490  1004               	iorwf	(___flneg@f1+3)^0,w,c
  7740   004492  B4D8               	btfsc	status,2,c
  7741   004494  EF4E  F022         	goto	u3131
  7742   004498  EF50  F022         	goto	u3130
  7743   00449C                     u3131:
  7744   00449C  EF58  F022         	goto	l3116
  7745   0044A0                     u3130:
  7746   0044A0  0E00               	movlw	0
  7747   0044A2  1A01               	xorwf	___flneg@f1^0,f,c
  7748   0044A4  0E00               	movlw	0
  7749   0044A6  1A02               	xorwf	(___flneg@f1+1)^0,f,c
  7750   0044A8  0E00               	movlw	0
  7751   0044AA  1A03               	xorwf	(___flneg@f1+2)^0,f,c
  7752   0044AC  0E80               	movlw	128
  7753   0044AE  1A04               	xorwf	(___flneg@f1+3)^0,f,c
  7754   0044B0                     l3116:
  7755   0044B0  C001  F001         	movff	___flneg@f1,?___flneg
  7756   0044B4  C002  F002         	movff	___flneg@f1+1,?___flneg+1
  7757   0044B8  C003  F003         	movff	___flneg@f1+2,?___flneg+2
  7758   0044BC  C004  F004         	movff	___flneg@f1+3,?___flneg+3
  7759   0044C0  0012               	return		;funcret
  7760   0044C2                     __end_of___flneg:
  7761                           	callstack 0
  7762                           
  7763 ;; *************** function ___flmul *****************
  7764 ;; Defined at:
  7765 ;;		line 8 in file "C:\Program Files\Microchip\xc8\v2.40\pic\sources\c99\common\sprcmul.c"
  7766 ;; Parameters:    Size  Location     Type
  7767 ;;  b               4   74[COMRAM] unsigned char 
  7768 ;;  a               4   78[COMRAM] unsigned char 
  7769 ;; Auto vars:     Size  Location     Type
  7770 ;;  prod            4    7[BANK0 ] struct .
  7771 ;;  grs             4    1[BANK0 ] unsigned long 
  7772 ;;  temp            2   11[BANK0 ] struct .
  7773 ;;  bexp            1    6[BANK0 ] unsigned char 
  7774 ;;  aexp            1    5[BANK0 ] unsigned char 
  7775 ;;  sign            1    0[BANK0 ] unsigned char 
  7776 ;; Return value:  Size  Location     Type
  7777 ;;                  4   74[COMRAM] unsigned char 
  7778 ;; Registers used:
  7779 ;;		wreg, status,2, status,0, prodl, prodh
  7780 ;; Tracked objects:
  7781 ;;		On entry : 0/0
  7782 ;;		On exit  : 0/0
  7783 ;;		Unchanged: 0/0
  7784 ;; Data sizes:     COMRAM   BANK0   BANK1   BANK2   BANK3   BANK4   BANK5   BANK6   BANK7   BANK8   BANK9  BANK10  BANK1
      +1  BANK12  BANK13
  7785 ;;      Params:         8       0       0       0       0       0       0       0       0       0       0       0       
      +0       0       0
  7786 ;;      Locals:         0      13       0       0       0       0       0       0       0       0       0       0       
      +0       0       0
  7787 ;;      Temps:          4       0       0       0       0       0       0       0       0       0       0       0       
      +0       0       0
  7788 ;;      Totals:        12      13       0       0       0       0       0       0       0       0       0       0       
      +0       0       0
  7789 ;;Total ram usage:       25 bytes
  7790 ;; Hardware stack levels used: 1
  7791 ;; This function calls:
  7792 ;;		Nothing
  7793 ;; This function is called by:
  7794 ;;		_RGB2Hue
  7795 ;;		_efgtoa
  7796 ;; This function uses a non-reentrant model
  7797 ;;
  7798                           
  7799                           	psect	text39
  7800   00245E                     __ptext39:
  7801                           	callstack 0
  7802   00245E                     ___flmul:
  7803                           	callstack 29
  7804   00245E  504E               	movf	(___flmul@b+3)^0,w,c
  7805   002460  0B80               	andlw	128
  7806   002462  0100               	movlb	0	; () banked
  7807   002464  6F60               	movwf	___flmul@sign& (0+255),b
  7808   002466  504E               	movf	(___flmul@b+3)^0,w,c
  7809   002468  244E               	addwf	(___flmul@b+3)^0,w,c
  7810   00246A  6F66               	movwf	___flmul@bexp& (0+255),b
  7811   00246C                     
  7812                           ; BSR set to: 0
  7813   00246C  AE4D               	btfss	(___flmul@b+2)^0,7,c
  7814   00246E  EF3B  F012         	goto	u2861
  7815   002472  EF3D  F012         	goto	u2860
  7816   002476                     u2861:
  7817   002476  EF3E  F012         	goto	l2944
  7818   00247A                     u2860:
  7819   00247A                     
  7820                           ; BSR set to: 0
  7821   00247A  8166               	bsf	___flmul@bexp& (0+255),0,b
  7822   00247C                     l2944:
  7823                           
  7824                           ; BSR set to: 0
  7825   00247C  5166               	movf	___flmul@bexp& (0+255),w,b
  7826   00247E  B4D8               	btfsc	status,2,c
  7827   002480  EF44  F012         	goto	u2871
  7828   002484  EF46  F012         	goto	u2870
  7829   002488                     u2871:
  7830   002488  EF59  F012         	goto	l2952
  7831   00248C                     u2870:
  7832   00248C                     
  7833                           ; BSR set to: 0
  7834   00248C  2966               	incf	___flmul@bexp& (0+255),w,b
  7835   00248E  A4D8               	btfss	status,2,c
  7836   002490  EF4C  F012         	goto	u2881
  7837   002494  EF4E  F012         	goto	u2880
  7838   002498                     u2881:
  7839   002498  EF56  F012         	goto	l2950
  7840   00249C                     u2880:
  7841   00249C                     
  7842                           ; BSR set to: 0
  7843   00249C  0E00               	movlw	0
  7844   00249E  6E4B               	movwf	___flmul@b^0,c
  7845   0024A0  0E00               	movlw	0
  7846   0024A2  6E4C               	movwf	(___flmul@b+1)^0,c
  7847   0024A4  0E00               	movlw	0
  7848   0024A6  6E4D               	movwf	(___flmul@b+2)^0,c
  7849   0024A8  0E00               	movlw	0
  7850   0024AA  6E4E               	movwf	(___flmul@b+3)^0,c
  7851   0024AC                     l2950:
  7852                           
  7853                           ; BSR set to: 0
  7854   0024AC  8E4D               	bsf	(___flmul@b+2)^0,7,c
  7855   0024AE  EF61  F012         	goto	l2954
  7856   0024B2                     l2952:
  7857                           
  7858                           ; BSR set to: 0
  7859   0024B2  0E00               	movlw	0
  7860   0024B4  6E4B               	movwf	___flmul@b^0,c
  7861   0024B6  0E00               	movlw	0
  7862   0024B8  6E4C               	movwf	(___flmul@b+1)^0,c
  7863   0024BA  0E00               	movlw	0
  7864   0024BC  6E4D               	movwf	(___flmul@b+2)^0,c
  7865   0024BE  0E00               	movlw	0
  7866   0024C0  6E4E               	movwf	(___flmul@b+3)^0,c
  7867   0024C2                     l2954:
  7868                           
  7869                           ; BSR set to: 0
  7870   0024C2  5052               	movf	(___flmul@a+3)^0,w,c
  7871   0024C4  0B80               	andlw	128
  7872   0024C6  1B60               	xorwf	___flmul@sign& (0+255),f,b
  7873   0024C8                     
  7874                           ; BSR set to: 0
  7875   0024C8  5052               	movf	(___flmul@a+3)^0,w,c
  7876   0024CA  2452               	addwf	(___flmul@a+3)^0,w,c
  7877   0024CC  6F65               	movwf	___flmul@aexp& (0+255),b
  7878   0024CE                     
  7879                           ; BSR set to: 0
  7880   0024CE  AE51               	btfss	(___flmul@a+2)^0,7,c
  7881   0024D0  EF6C  F012         	goto	u2891
  7882   0024D4  EF6E  F012         	goto	u2890
  7883   0024D8                     u2891:
  7884   0024D8  EF6F  F012         	goto	l2962
  7885   0024DC                     u2890:
  7886   0024DC                     
  7887                           ; BSR set to: 0
  7888   0024DC  8165               	bsf	___flmul@aexp& (0+255),0,b
  7889   0024DE                     l2962:
  7890                           
  7891                           ; BSR set to: 0
  7892   0024DE  5165               	movf	___flmul@aexp& (0+255),w,b
  7893   0024E0  B4D8               	btfsc	status,2,c
  7894   0024E2  EF75  F012         	goto	u2901
  7895   0024E6  EF77  F012         	goto	u2900
  7896   0024EA                     u2901:
  7897   0024EA  EF8A  F012         	goto	l2970
  7898   0024EE                     u2900:
  7899   0024EE                     
  7900                           ; BSR set to: 0
  7901   0024EE  2965               	incf	___flmul@aexp& (0+255),w,b
  7902   0024F0  A4D8               	btfss	status,2,c
  7903   0024F2  EF7D  F012         	goto	u2911
  7904   0024F6  EF7F  F012         	goto	u2910
  7905   0024FA                     u2911:
  7906   0024FA  EF87  F012         	goto	l2968
  7907   0024FE                     u2910:
  7908   0024FE                     
  7909                           ; BSR set to: 0
  7910   0024FE  0E00               	movlw	0
  7911   002500  6E4F               	movwf	___flmul@a^0,c
  7912   002502  0E00               	movlw	0
  7913   002504  6E50               	movwf	(___flmul@a+1)^0,c
  7914   002506  0E00               	movlw	0
  7915   002508  6E51               	movwf	(___flmul@a+2)^0,c
  7916   00250A  0E00               	movlw	0
  7917   00250C  6E52               	movwf	(___flmul@a+3)^0,c
  7918   00250E                     l2968:
  7919                           
  7920                           ; BSR set to: 0
  7921   00250E  8E51               	bsf	(___flmul@a+2)^0,7,c
  7922   002510  EF92  F012         	goto	l840
  7923   002514                     l2970:
  7924                           
  7925                           ; BSR set to: 0
  7926   002514  0E00               	movlw	0
  7927   002516  6E4F               	movwf	___flmul@a^0,c
  7928   002518  0E00               	movlw	0
  7929   00251A  6E50               	movwf	(___flmul@a+1)^0,c
  7930   00251C  0E00               	movlw	0
  7931   00251E  6E51               	movwf	(___flmul@a+2)^0,c
  7932   002520  0E00               	movlw	0
  7933   002522  6E52               	movwf	(___flmul@a+3)^0,c
  7934   002524                     l840:
  7935                           
  7936                           ; BSR set to: 0
  7937   002524  5165               	movf	___flmul@aexp& (0+255),w,b
  7938   002526  B4D8               	btfsc	status,2,c
  7939   002528  EF98  F012         	goto	u2921
  7940   00252C  EF9A  F012         	goto	u2920
  7941   002530                     u2921:
  7942   002530  EFA2  F012         	goto	l2974
  7943   002534                     u2920:
  7944   002534                     
  7945                           ; BSR set to: 0
  7946   002534  5166               	movf	___flmul@bexp& (0+255),w,b
  7947   002536  A4D8               	btfss	status,2,c
  7948   002538  EFA0  F012         	goto	u2931
  7949   00253C  EFA2  F012         	goto	u2930
  7950   002540                     u2931:
  7951   002540  EFAC  F012         	goto	l2978
  7952   002544                     u2930:
  7953   002544                     l2974:
  7954                           
  7955                           ; BSR set to: 0
  7956   002544  0E00               	movlw	0
  7957   002546  6E4B               	movwf	?___flmul^0,c
  7958   002548  0E00               	movlw	0
  7959   00254A  6E4C               	movwf	(?___flmul+1)^0,c
  7960   00254C  0E00               	movlw	0
  7961   00254E  6E4D               	movwf	(?___flmul+2)^0,c
  7962   002550  0E00               	movlw	0
  7963   002552  6E4E               	movwf	(?___flmul+3)^0,c
  7964   002554  EF44  F014         	goto	l844
  7965   002558                     l2978:
  7966                           
  7967                           ; BSR set to: 0
  7968   002558  5051               	movf	(___flmul@a+2)^0,w,c
  7969   00255A  024B               	mulwf	___flmul@b^0,c
  7970   00255C  CFF3 F06B          	movff	prodl,___flmul@temp
  7971   002560  CFF4 F06C          	movff	prodh,___flmul@temp+1
  7972   002564                     
  7973                           ; BSR set to: 0
  7974   002564  516B               	movf	___flmul@temp& (0+255),w,b
  7975   002566  6F61               	movwf	___flmul@grs& (0+255),b
  7976   002568  6B62               	clrf	(___flmul@grs+1)& (0+255),b
  7977   00256A  6B63               	clrf	(___flmul@grs+2)& (0+255),b
  7978   00256C  6B64               	clrf	(___flmul@grs+3)& (0+255),b
  7979   00256E                     
  7980                           ; BSR set to: 0
  7981   00256E  516C               	movf	(___flmul@temp+1)& (0+255),w,b
  7982   002570  6F67               	movwf	___flmul@prod& (0+255),b
  7983   002572  6B68               	clrf	(___flmul@prod+1)& (0+255),b
  7984   002574  6B69               	clrf	(___flmul@prod+2)& (0+255),b
  7985   002576  6B6A               	clrf	(___flmul@prod+3)& (0+255),b
  7986   002578  5050               	movf	(___flmul@a+1)^0,w,c
  7987   00257A  024C               	mulwf	(___flmul@b+1)^0,c
  7988   00257C  CFF3 F06B          	movff	prodl,___flmul@temp
  7989   002580  CFF4 F06C          	movff	prodh,___flmul@temp+1
  7990   002584                     
  7991                           ; BSR set to: 0
  7992   002584  516B               	movf	___flmul@temp& (0+255),w,b
  7993   002586  2761               	addwf	___flmul@grs& (0+255),f,b
  7994   002588  0E00               	movlw	0
  7995   00258A  2362               	addwfc	(___flmul@grs+1)& (0+255),f,b
  7996   00258C  2363               	addwfc	(___flmul@grs+2)& (0+255),f,b
  7997   00258E  2364               	addwfc	(___flmul@grs+3)& (0+255),f,b
  7998   002590                     
  7999                           ; BSR set to: 0
  8000   002590  516C               	movf	(___flmul@temp+1)& (0+255),w,b
  8001   002592  2767               	addwf	___flmul@prod& (0+255),f,b
  8002   002594  0E00               	movlw	0
  8003   002596  2368               	addwfc	(___flmul@prod+1)& (0+255),f,b
  8004   002598  2369               	addwfc	(___flmul@prod+2)& (0+255),f,b
  8005   00259A  236A               	addwfc	(___flmul@prod+3)& (0+255),f,b
  8006   00259C  504F               	movf	___flmul@a^0,w,c
  8007   00259E  024D               	mulwf	(___flmul@b+2)^0,c
  8008   0025A0  CFF3 F06B          	movff	prodl,___flmul@temp
  8009   0025A4  CFF4 F06C          	movff	prodh,___flmul@temp+1
  8010   0025A8                     
  8011                           ; BSR set to: 0
  8012   0025A8  516B               	movf	___flmul@temp& (0+255),w,b
  8013   0025AA  2761               	addwf	___flmul@grs& (0+255),f,b
  8014   0025AC  0E00               	movlw	0
  8015   0025AE  2362               	addwfc	(___flmul@grs+1)& (0+255),f,b
  8016   0025B0  2363               	addwfc	(___flmul@grs+2)& (0+255),f,b
  8017   0025B2  2364               	addwfc	(___flmul@grs+3)& (0+255),f,b
  8018   0025B4                     
  8019                           ; BSR set to: 0
  8020   0025B4  516C               	movf	(___flmul@temp+1)& (0+255),w,b
  8021   0025B6  2767               	addwf	___flmul@prod& (0+255),f,b
  8022   0025B8  0E00               	movlw	0
  8023   0025BA  2368               	addwfc	(___flmul@prod+1)& (0+255),f,b
  8024   0025BC  2369               	addwfc	(___flmul@prod+2)& (0+255),f,b
  8025   0025BE  236A               	addwfc	(___flmul@prod+3)& (0+255),f,b
  8026   0025C0                     
  8027                           ; BSR set to: 0
  8028   0025C0  C063  F064         	movff	___flmul@grs+2,___flmul@grs+3
  8029   0025C4  C062  F063         	movff	___flmul@grs+1,___flmul@grs+2
  8030   0025C8  C061  F062         	movff	___flmul@grs,___flmul@grs+1
  8031   0025CC  6B61               	clrf	___flmul@grs& (0+255),b
  8032   0025CE                     
  8033                           ; BSR set to: 0
  8034   0025CE  504F               	movf	___flmul@a^0,w,c
  8035   0025D0  024C               	mulwf	(___flmul@b+1)^0,c
  8036   0025D2  CFF3 F06B          	movff	prodl,___flmul@temp
  8037   0025D6  CFF4 F06C          	movff	prodh,___flmul@temp+1
  8038   0025DA                     
  8039                           ; BSR set to: 0
  8040   0025DA  516B               	movf	___flmul@temp& (0+255),w,b
  8041   0025DC  2761               	addwf	___flmul@grs& (0+255),f,b
  8042   0025DE  516C               	movf	(___flmul@temp+1)& (0+255),w,b
  8043   0025E0  2362               	addwfc	(___flmul@grs+1)& (0+255),f,b
  8044   0025E2  0E00               	movlw	0
  8045   0025E4  2363               	addwfc	(___flmul@grs+2)& (0+255),f,b
  8046   0025E6  0E00               	movlw	0
  8047   0025E8  2364               	addwfc	(___flmul@grs+3)& (0+255),f,b
  8048   0025EA                     
  8049                           ; BSR set to: 0
  8050   0025EA  5050               	movf	(___flmul@a+1)^0,w,c
  8051   0025EC  024B               	mulwf	___flmul@b^0,c
  8052   0025EE  CFF3 F06B          	movff	prodl,___flmul@temp
  8053   0025F2  CFF4 F06C          	movff	prodh,___flmul@temp+1
  8054   0025F6                     
  8055                           ; BSR set to: 0
  8056   0025F6  516B               	movf	___flmul@temp& (0+255),w,b
  8057   0025F8  2761               	addwf	___flmul@grs& (0+255),f,b
  8058   0025FA  516C               	movf	(___flmul@temp+1)& (0+255),w,b
  8059   0025FC  2362               	addwfc	(___flmul@grs+1)& (0+255),f,b
  8060   0025FE  0E00               	movlw	0
  8061   002600  2363               	addwfc	(___flmul@grs+2)& (0+255),f,b
  8062   002602  0E00               	movlw	0
  8063   002604  2364               	addwfc	(___flmul@grs+3)& (0+255),f,b
  8064   002606                     
  8065                           ; BSR set to: 0
  8066   002606  C063  F064         	movff	___flmul@grs+2,___flmul@grs+3
  8067   00260A  C062  F063         	movff	___flmul@grs+1,___flmul@grs+2
  8068   00260E  C061  F062         	movff	___flmul@grs,___flmul@grs+1
  8069   002612  6B61               	clrf	___flmul@grs& (0+255),b
  8070   002614  504F               	movf	___flmul@a^0,w,c
  8071   002616  024B               	mulwf	___flmul@b^0,c
  8072   002618  CFF3 F06B          	movff	prodl,___flmul@temp
  8073   00261C  CFF4 F06C          	movff	prodh,___flmul@temp+1
  8074   002620                     
  8075                           ; BSR set to: 0
  8076   002620  516B               	movf	___flmul@temp& (0+255),w,b
  8077   002622  2761               	addwf	___flmul@grs& (0+255),f,b
  8078   002624  516C               	movf	(___flmul@temp+1)& (0+255),w,b
  8079   002626  2362               	addwfc	(___flmul@grs+1)& (0+255),f,b
  8080   002628  0E00               	movlw	0
  8081   00262A  2363               	addwfc	(___flmul@grs+2)& (0+255),f,b
  8082   00262C  0E00               	movlw	0
  8083   00262E  2364               	addwfc	(___flmul@grs+3)& (0+255),f,b
  8084   002630                     
  8085                           ; BSR set to: 0
  8086   002630  5051               	movf	(___flmul@a+2)^0,w,c
  8087   002632  024C               	mulwf	(___flmul@b+1)^0,c
  8088   002634  CFF3 F06B          	movff	prodl,___flmul@temp
  8089   002638  CFF4 F06C          	movff	prodh,___flmul@temp+1
  8090   00263C  516B               	movf	___flmul@temp& (0+255),w,b
  8091   00263E  2767               	addwf	___flmul@prod& (0+255),f,b
  8092   002640  516C               	movf	(___flmul@temp+1)& (0+255),w,b
  8093   002642  2368               	addwfc	(___flmul@prod+1)& (0+255),f,b
  8094   002644  0E00               	movlw	0
  8095   002646  2369               	addwfc	(___flmul@prod+2)& (0+255),f,b
  8096   002648  0E00               	movlw	0
  8097   00264A  236A               	addwfc	(___flmul@prod+3)& (0+255),f,b
  8098   00264C                     
  8099                           ; BSR set to: 0
  8100   00264C  5050               	movf	(___flmul@a+1)^0,w,c
  8101   00264E  024D               	mulwf	(___flmul@b+2)^0,c
  8102   002650  CFF3 F06B          	movff	prodl,___flmul@temp
  8103   002654  CFF4 F06C          	movff	prodh,___flmul@temp+1
  8104   002658                     
  8105                           ; BSR set to: 0
  8106   002658  516B               	movf	___flmul@temp& (0+255),w,b
  8107   00265A  2767               	addwf	___flmul@prod& (0+255),f,b
  8108   00265C  516C               	movf	(___flmul@temp+1)& (0+255),w,b
  8109   00265E  2368               	addwfc	(___flmul@prod+1)& (0+255),f,b
  8110   002660  0E00               	movlw	0
  8111   002662  2369               	addwfc	(___flmul@prod+2)& (0+255),f,b
  8112   002664  0E00               	movlw	0
  8113   002666  236A               	addwfc	(___flmul@prod+3)& (0+255),f,b
  8114   002668  5051               	movf	(___flmul@a+2)^0,w,c
  8115   00266A  024D               	mulwf	(___flmul@b+2)^0,c
  8116   00266C  CFF3 F06B          	movff	prodl,___flmul@temp
  8117   002670  CFF4 F06C          	movff	prodh,___flmul@temp+1
  8118   002674                     
  8119                           ; BSR set to: 0
  8120   002674  516B               	movf	___flmul@temp& (0+255),w,b
  8121   002676  6E53               	movwf	??___flmul^0,c
  8122   002678  516C               	movf	(___flmul@temp+1)& (0+255),w,b
  8123   00267A  6E54               	movwf	(??___flmul+1)^0,c
  8124   00267C  6A55               	clrf	(??___flmul+2)^0,c
  8125   00267E  6A56               	clrf	(??___flmul+3)^0,c
  8126   002680  C055  F056         	movff	??___flmul+2,??___flmul+3
  8127   002684  C054  F055         	movff	??___flmul+1,??___flmul+2
  8128   002688  C053  F054         	movff	??___flmul,??___flmul+1
  8129   00268C  6A53               	clrf	??___flmul^0,c
  8130   00268E  5053               	movf	??___flmul^0,w,c
  8131   002690  2767               	addwf	___flmul@prod& (0+255),f,b
  8132   002692  5054               	movf	(??___flmul+1)^0,w,c
  8133   002694  2368               	addwfc	(___flmul@prod+1)& (0+255),f,b
  8134   002696  5055               	movf	(??___flmul+2)^0,w,c
  8135   002698  2369               	addwfc	(___flmul@prod+2)& (0+255),f,b
  8136   00269A  5056               	movf	(??___flmul+3)^0,w,c
  8137   00269C  236A               	addwfc	(___flmul@prod+3)& (0+255),f,b
  8138   00269E                     
  8139                           ; BSR set to: 0
  8140   00269E  C061  F053         	movff	___flmul@grs,??___flmul
  8141   0026A2  C062  F054         	movff	___flmul@grs+1,??___flmul+1
  8142   0026A6  C063  F055         	movff	___flmul@grs+2,??___flmul+2
  8143   0026AA  C064  F056         	movff	___flmul@grs+3,??___flmul+3
  8144   0026AE  0E19               	movlw	25
  8145   0026B0  EF5F  F013         	goto	u2940
  8146   0026B4                     u2945:
  8147   0026B4  90D8               	bcf	status,0,c
  8148   0026B6  3256               	rrcf	(??___flmul+3)^0,f,c
  8149   0026B8  3255               	rrcf	(??___flmul+2)^0,f,c
  8150   0026BA  3254               	rrcf	(??___flmul+1)^0,f,c
  8151   0026BC  3253               	rrcf	??___flmul^0,f,c
  8152   0026BE                     u2940:
  8153   0026BE  2EE8               	decfsz	wreg,f,c
  8154   0026C0  EF5A  F013         	goto	u2945
  8155   0026C4  5053               	movf	??___flmul^0,w,c
  8156   0026C6  2767               	addwf	___flmul@prod& (0+255),f,b
  8157   0026C8  5054               	movf	(??___flmul+1)^0,w,c
  8158   0026CA  2368               	addwfc	(___flmul@prod+1)& (0+255),f,b
  8159   0026CC  5055               	movf	(??___flmul+2)^0,w,c
  8160   0026CE  2369               	addwfc	(___flmul@prod+2)& (0+255),f,b
  8161   0026D0  5056               	movf	(??___flmul+3)^0,w,c
  8162   0026D2  236A               	addwfc	(___flmul@prod+3)& (0+255),f,b
  8163   0026D4                     
  8164                           ; BSR set to: 0
  8165   0026D4  C063  F064         	movff	___flmul@grs+2,___flmul@grs+3
  8166   0026D8  C062  F063         	movff	___flmul@grs+1,___flmul@grs+2
  8167   0026DC  C061  F062         	movff	___flmul@grs,___flmul@grs+1
  8168   0026E0  6B61               	clrf	___flmul@grs& (0+255),b
  8169   0026E2                     
  8170                           ; BSR set to: 0
  8171   0026E2  5165               	movf	___flmul@aexp& (0+255),w,b
  8172   0026E4  C066  F053         	movff	___flmul@bexp,??___flmul
  8173   0026E8  6A54               	clrf	(??___flmul+1)^0,c
  8174   0026EA  2653               	addwf	??___flmul^0,f,c
  8175   0026EC  0E00               	movlw	0
  8176   0026EE  2254               	addwfc	(??___flmul+1)^0,f,c
  8177   0026F0  0E82               	movlw	130
  8178   0026F2  2453               	addwf	??___flmul^0,w,c
  8179   0026F4  6F6B               	movwf	___flmul@temp& (0+255),b
  8180   0026F6  0EFF               	movlw	255
  8181   0026F8  2054               	addwfc	(??___flmul+1)^0,w,c
  8182   0026FA  6F6C               	movwf	(___flmul@temp+1)& (0+255),b
  8183   0026FC  EF95  F013         	goto	l3026
  8184   002700                     l3020:
  8185                           
  8186                           ; BSR set to: 0
  8187   002700  90D8               	bcf	status,0,c
  8188   002702  3767               	rlcf	___flmul@prod& (0+255),f,b
  8189   002704  3768               	rlcf	(___flmul@prod+1)& (0+255),f,b
  8190   002706  3769               	rlcf	(___flmul@prod+2)& (0+255),f,b
  8191   002708  376A               	rlcf	(___flmul@prod+3)& (0+255),f,b
  8192   00270A                     
  8193                           ; BSR set to: 0
  8194   00270A  AF64               	btfss	(___flmul@grs+3)& (0+255),7,b
  8195   00270C  EF8A  F013         	goto	u2951
  8196   002710  EF8C  F013         	goto	u2950
  8197   002714                     u2951:
  8198   002714  EF8D  F013         	goto	l847
  8199   002718                     u2950:
  8200   002718                     
  8201                           ; BSR set to: 0
  8202   002718  8167               	bsf	___flmul@prod& (0+255),0,b
  8203   00271A                     l847:
  8204                           
  8205                           ; BSR set to: 0
  8206   00271A  90D8               	bcf	status,0,c
  8207   00271C  3761               	rlcf	___flmul@grs& (0+255),f,b
  8208   00271E  3762               	rlcf	(___flmul@grs+1)& (0+255),f,b
  8209   002720  3763               	rlcf	(___flmul@grs+2)& (0+255),f,b
  8210   002722  3764               	rlcf	(___flmul@grs+3)& (0+255),f,b
  8211   002724  076B               	decf	___flmul@temp& (0+255),f,b
  8212   002726  A0D8               	btfss	status,0,c
  8213   002728  076C               	decf	(___flmul@temp+1)& (0+255),f,b
  8214   00272A                     l3026:
  8215                           
  8216                           ; BSR set to: 0
  8217   00272A  AF69               	btfss	(___flmul@prod+2)& (0+255),7,b
  8218   00272C  EF9A  F013         	goto	u2961
  8219   002730  EF9C  F013         	goto	u2960
  8220   002734                     u2961:
  8221   002734  EF80  F013         	goto	l3020
  8222   002738                     u2960:
  8223   002738                     
  8224                           ; BSR set to: 0
  8225   002738  0E00               	movlw	0
  8226   00273A  6F65               	movwf	___flmul@aexp& (0+255),b
  8227   00273C                     
  8228                           ; BSR set to: 0
  8229   00273C  AF64               	btfss	(___flmul@grs+3)& (0+255),7,b
  8230   00273E  EFA3  F013         	goto	u2971
  8231   002742  EFA5  F013         	goto	u2970
  8232   002746                     u2971:
  8233   002746  EFC9  F013         	goto	l849
  8234   00274A                     u2970:
  8235   00274A                     
  8236                           ; BSR set to: 0
  8237   00274A  0EFF               	movlw	255
  8238   00274C  1561               	andwf	___flmul@grs& (0+255),w,b
  8239   00274E  6E53               	movwf	??___flmul^0,c
  8240   002750  0EFF               	movlw	255
  8241   002752  1562               	andwf	(___flmul@grs+1)& (0+255),w,b
  8242   002754  6E54               	movwf	(??___flmul+1)^0,c
  8243   002756  0EFF               	movlw	255
  8244   002758  1563               	andwf	(___flmul@grs+2)& (0+255),w,b
  8245   00275A  6E55               	movwf	(??___flmul+2)^0,c
  8246   00275C  0E7F               	movlw	127
  8247   00275E  1564               	andwf	(___flmul@grs+3)& (0+255),w,b
  8248   002760  6E56               	movwf	(??___flmul+3)^0,c
  8249   002762  5053               	movf	??___flmul^0,w,c
  8250   002764  1054               	iorwf	(??___flmul+1)^0,w,c
  8251   002766  1055               	iorwf	(??___flmul+2)^0,w,c
  8252   002768  1056               	iorwf	(??___flmul+3)^0,w,c
  8253   00276A  B4D8               	btfsc	status,2,c
  8254   00276C  EFBA  F013         	goto	u2981
  8255   002770  EFBC  F013         	goto	u2980
  8256   002774                     u2981:
  8257   002774  EFC0  F013         	goto	l850
  8258   002778                     u2980:
  8259   002778                     l3034:
  8260                           
  8261                           ; BSR set to: 0
  8262   002778  0E01               	movlw	1
  8263   00277A  6F65               	movwf	___flmul@aexp& (0+255),b
  8264   00277C  EFC9  F013         	goto	l849
  8265   002780                     l850:
  8266                           
  8267                           ; BSR set to: 0
  8268   002780  A167               	btfss	___flmul@prod& (0+255),0,b
  8269   002782  EFC5  F013         	goto	u2991
  8270   002786  EFC7  F013         	goto	u2990
  8271   00278A                     u2991:
  8272   00278A  EFC9  F013         	goto	l849
  8273   00278E                     u2990:
  8274   00278E  EFBC  F013         	goto	l3034
  8275   002792                     l849:
  8276                           
  8277                           ; BSR set to: 0
  8278   002792  5165               	movf	___flmul@aexp& (0+255),w,b
  8279   002794  B4D8               	btfsc	status,2,c
  8280   002796  EFCF  F013         	goto	u3001
  8281   00279A  EFD1  F013         	goto	u3000
  8282   00279E                     u3001:
  8283   00279E  EFF5  F013         	goto	l3046
  8284   0027A2                     u3000:
  8285   0027A2                     
  8286                           ; BSR set to: 0
  8287   0027A2  0E01               	movlw	1
  8288   0027A4  2767               	addwf	___flmul@prod& (0+255),f,b
  8289   0027A6  0E00               	movlw	0
  8290   0027A8  2368               	addwfc	(___flmul@prod+1)& (0+255),f,b
  8291   0027AA  2369               	addwfc	(___flmul@prod+2)& (0+255),f,b
  8292   0027AC  236A               	addwfc	(___flmul@prod+3)& (0+255),f,b
  8293   0027AE                     
  8294                           ; BSR set to: 0
  8295   0027AE  A16A               	btfss	(___flmul@prod+3)& (0+255),0,b
  8296   0027B0  EFDC  F013         	goto	u3011
  8297   0027B4  EFDE  F013         	goto	u3010
  8298   0027B8                     u3011:
  8299   0027B8  EFF5  F013         	goto	l3046
  8300   0027BC                     u3010:
  8301   0027BC                     
  8302                           ; BSR set to: 0
  8303   0027BC  C067  F053         	movff	___flmul@prod,??___flmul
  8304   0027C0  C068  F054         	movff	___flmul@prod+1,??___flmul+1
  8305   0027C4  C069  F055         	movff	___flmul@prod+2,??___flmul+2
  8306   0027C8  C06A  F056         	movff	___flmul@prod+3,??___flmul+3
  8307   0027CC  3456               	rlcf	(??___flmul+3)^0,w,c
  8308   0027CE  3256               	rrcf	(??___flmul+3)^0,f,c
  8309   0027D0  3255               	rrcf	(??___flmul+2)^0,f,c
  8310   0027D2  3254               	rrcf	(??___flmul+1)^0,f,c
  8311   0027D4  3253               	rrcf	??___flmul^0,f,c
  8312   0027D6  C053  F067         	movff	??___flmul,___flmul@prod
  8313   0027DA  C054  F068         	movff	??___flmul+1,___flmul@prod+1
  8314   0027DE  C055  F069         	movff	??___flmul+2,___flmul@prod+2
  8315   0027E2  C056  F06A         	movff	??___flmul+3,___flmul@prod+3
  8316   0027E6                     
  8317                           ; BSR set to: 0
  8318   0027E6  4B6B               	infsnz	___flmul@temp& (0+255),f,b
  8319   0027E8  2B6C               	incf	(___flmul@temp+1)& (0+255),f,b
  8320   0027EA                     l3046:
  8321                           
  8322                           ; BSR set to: 0
  8323   0027EA  BF6C               	btfsc	(___flmul@temp+1)& (0+255),7,b
  8324   0027EC  EF00  F014         	goto	u3021
  8325   0027F0  516C               	movf	(___flmul@temp+1)& (0+255),w,b
  8326   0027F2  E108               	bnz	u3020
  8327   0027F4  296B               	incf	___flmul@temp& (0+255),w,b
  8328   0027F6  A0D8               	btfss	status,0,c
  8329   0027F8  EF00  F014         	goto	u3021
  8330   0027FC  EF02  F014         	goto	u3020
  8331   002800                     u3021:
  8332   002800  EF0C  F014         	goto	l3050
  8333   002804                     u3020:
  8334   002804                     
  8335                           ; BSR set to: 0
  8336   002804  0E00               	movlw	0
  8337   002806  6F67               	movwf	___flmul@prod& (0+255),b
  8338   002808  0E00               	movlw	0
  8339   00280A  6F68               	movwf	(___flmul@prod+1)& (0+255),b
  8340   00280C  0E80               	movlw	128
  8341   00280E  6F69               	movwf	(___flmul@prod+2)& (0+255),b
  8342   002810  0E7F               	movlw	127
  8343   002812  6F6A               	movwf	(___flmul@prod+3)& (0+255),b
  8344   002814  EF3A  F014         	goto	l3062
  8345   002818                     l3050:
  8346                           
  8347                           ; BSR set to: 0
  8348   002818  BF6C               	btfsc	(___flmul@temp+1)& (0+255),7,b
  8349   00281A  EF19  F014         	goto	u3030
  8350   00281E  516C               	movf	(___flmul@temp+1)& (0+255),w,b
  8351   002820  E106               	bnz	u3031
  8352   002822  056B               	decf	___flmul@temp& (0+255),w,b
  8353   002824  B0D8               	btfsc	status,0,c
  8354   002826  EF17  F014         	goto	u3031
  8355   00282A  EF19  F014         	goto	u3030
  8356   00282E                     u3031:
  8357   00282E  EF25  F014         	goto	l857
  8358   002832                     u3030:
  8359   002832                     
  8360                           ; BSR set to: 0
  8361   002832  0E00               	movlw	0
  8362   002834  6F67               	movwf	___flmul@prod& (0+255),b
  8363   002836  0E00               	movlw	0
  8364   002838  6F68               	movwf	(___flmul@prod+1)& (0+255),b
  8365   00283A  0E00               	movlw	0
  8366   00283C  6F69               	movwf	(___flmul@prod+2)& (0+255),b
  8367   00283E  0E00               	movlw	0
  8368   002840  6F6A               	movwf	(___flmul@prod+3)& (0+255),b
  8369   002842  0E00               	movlw	0
  8370   002844  6F60               	movwf	___flmul@sign& (0+255),b
  8371   002846  EF3A  F014         	goto	l3062
  8372   00284A                     l857:
  8373                           
  8374                           ; BSR set to: 0
  8375   00284A  C06B  F066         	movff	___flmul@temp,___flmul@bexp
  8376   00284E                     
  8377                           ; BSR set to: 0
  8378   00284E  0EFF               	movlw	255
  8379   002850  1767               	andwf	___flmul@prod& (0+255),f,b
  8380   002852  0EFF               	movlw	255
  8381   002854  1768               	andwf	(___flmul@prod+1)& (0+255),f,b
  8382   002856  0E7F               	movlw	127
  8383   002858  1769               	andwf	(___flmul@prod+2)& (0+255),f,b
  8384   00285A  0E00               	movlw	0
  8385   00285C  176A               	andwf	(___flmul@prod+3)& (0+255),f,b
  8386   00285E                     
  8387                           ; BSR set to: 0
  8388   00285E  A166               	btfss	___flmul@bexp& (0+255),0,b
  8389   002860  EF34  F014         	goto	u3041
  8390   002864  EF36  F014         	goto	u3040
  8391   002868                     u3041:
  8392   002868  EF37  F014         	goto	l3060
  8393   00286C                     u3040:
  8394   00286C                     
  8395                           ; BSR set to: 0
  8396   00286C  8F69               	bsf	(___flmul@prod+2)& (0+255),7,b
  8397   00286E                     l3060:
  8398                           
  8399                           ; BSR set to: 0
  8400   00286E  90D8               	bcf	status,0,c
  8401   002870  3166               	rrcf	___flmul@bexp& (0+255),w,b
  8402   002872  6F6A               	movwf	(___flmul@prod+3)& (0+255),b
  8403   002874                     l3062:
  8404                           
  8405                           ; BSR set to: 0
  8406   002874  5160               	movf	___flmul@sign& (0+255),w,b
  8407   002876  136A               	iorwf	(___flmul@prod+3)& (0+255),f,b
  8408   002878                     
  8409                           ; BSR set to: 0
  8410   002878  C067  F04B         	movff	___flmul@prod,?___flmul
  8411   00287C  C068  F04C         	movff	___flmul@prod+1,?___flmul+1
  8412   002880  C069  F04D         	movff	___flmul@prod+2,?___flmul+2
  8413   002884  C06A  F04E         	movff	___flmul@prod+3,?___flmul+3
  8414   002888                     l844:
  8415                           
  8416                           ; BSR set to: 0
  8417   002888  0012               	return		;funcret
  8418   00288A                     __end_of___flmul:
  8419                           	callstack 0
  8420                           
  8421 ;; *************** function ___fleq *****************
  8422 ;; Defined at:
  8423 ;;		line 4 in file "C:\Program Files\Microchip\xc8\v2.40\pic\sources\c99\common\fleq.c"
  8424 ;; Parameters:    Size  Location     Type
  8425 ;;  ff1             4    0[COMRAM] unsigned char 
  8426 ;;  ff2             4    4[COMRAM] unsigned char 
  8427 ;; Auto vars:     Size  Location     Type
  8428 ;;		None
  8429 ;; Return value:  Size  Location     Type
  8430 ;;		None               void
  8431 ;; Registers used:
  8432 ;;		wreg, status,2, status,0
  8433 ;; Tracked objects:
  8434 ;;		On entry : 0/0
  8435 ;;		On exit  : 0/0
  8436 ;;		Unchanged: 0/0
  8437 ;; Data sizes:     COMRAM   BANK0   BANK1   BANK2   BANK3   BANK4   BANK5   BANK6   BANK7   BANK8   BANK9  BANK10  BANK1
      +1  BANK12  BANK13
  8438 ;;      Params:         8       0       0       0       0       0       0       0       0       0       0       0       
      +0       0       0
  8439 ;;      Locals:         0       0       0       0       0       0       0       0       0       0       0       0       
      +0       0       0
  8440 ;;      Temps:          4       0       0       0       0       0       0       0       0       0       0       0       
      +0       0       0
  8441 ;;      Totals:        12       0       0       0       0       0       0       0       0       0       0       0       
      +0       0       0
  8442 ;;Total ram usage:       12 bytes
  8443 ;; Hardware stack levels used: 1
  8444 ;; This function calls:
  8445 ;;		Nothing
  8446 ;; This function is called by:
  8447 ;;		_RGB2Hue
  8448 ;;		_efgtoa
  8449 ;; This function uses a non-reentrant model
  8450 ;;
  8451                           
  8452                           	psect	text40
  8453   003E82                     __ptext40:
  8454                           	callstack 0
  8455   003E82                     ___fleq:
  8456                           	callstack 29
  8457   003E82  0E00               	movlw	0
  8458   003E84  1401               	andwf	___fleq@ff1^0,w,c
  8459   003E86  6E09               	movwf	??___fleq^0,c
  8460   003E88  0E00               	movlw	0
  8461   003E8A  1402               	andwf	(___fleq@ff1+1)^0,w,c
  8462   003E8C  6E0A               	movwf	(??___fleq+1)^0,c
  8463   003E8E  0E80               	movlw	128
  8464   003E90  1403               	andwf	(___fleq@ff1+2)^0,w,c
  8465   003E92  6E0B               	movwf	(??___fleq+2)^0,c
  8466   003E94  0E7F               	movlw	127
  8467   003E96  1404               	andwf	(___fleq@ff1+3)^0,w,c
  8468   003E98  6E0C               	movwf	(??___fleq+3)^0,c
  8469   003E9A  5009               	movf	??___fleq^0,w,c
  8470   003E9C  100A               	iorwf	(??___fleq+1)^0,w,c
  8471   003E9E  100B               	iorwf	(??___fleq+2)^0,w,c
  8472   003EA0  100C               	iorwf	(??___fleq+3)^0,w,c
  8473   003EA2  A4D8               	btfss	status,2,c
  8474   003EA4  EF56  F01F         	goto	u3051
  8475   003EA8  EF58  F01F         	goto	u3050
  8476   003EAC                     u3051:
  8477   003EAC  EF60  F01F         	goto	l3078
  8478   003EB0                     u3050:
  8479   003EB0  0E00               	movlw	0
  8480   003EB2  6E01               	movwf	___fleq@ff1^0,c
  8481   003EB4  0E00               	movlw	0
  8482   003EB6  6E02               	movwf	(___fleq@ff1+1)^0,c
  8483   003EB8  0E00               	movlw	0
  8484   003EBA  6E03               	movwf	(___fleq@ff1+2)^0,c
  8485   003EBC  0E00               	movlw	0
  8486   003EBE  6E04               	movwf	(___fleq@ff1+3)^0,c
  8487   003EC0                     l3078:
  8488   003EC0  0E00               	movlw	0
  8489   003EC2  1405               	andwf	___fleq@ff2^0,w,c
  8490   003EC4  6E09               	movwf	??___fleq^0,c
  8491   003EC6  0E00               	movlw	0
  8492   003EC8  1406               	andwf	(___fleq@ff2+1)^0,w,c
  8493   003ECA  6E0A               	movwf	(??___fleq+1)^0,c
  8494   003ECC  0E80               	movlw	128
  8495   003ECE  1407               	andwf	(___fleq@ff2+2)^0,w,c
  8496   003ED0  6E0B               	movwf	(??___fleq+2)^0,c
  8497   003ED2  0E7F               	movlw	127
  8498   003ED4  1408               	andwf	(___fleq@ff2+3)^0,w,c
  8499   003ED6  6E0C               	movwf	(??___fleq+3)^0,c
  8500   003ED8  5009               	movf	??___fleq^0,w,c
  8501   003EDA  100A               	iorwf	(??___fleq+1)^0,w,c
  8502   003EDC  100B               	iorwf	(??___fleq+2)^0,w,c
  8503   003EDE  100C               	iorwf	(??___fleq+3)^0,w,c
  8504   003EE0  A4D8               	btfss	status,2,c
  8505   003EE2  EF75  F01F         	goto	u3061
  8506   003EE6  EF77  F01F         	goto	u3060
  8507   003EEA                     u3061:
  8508   003EEA  EF7F  F01F         	goto	l3082
  8509   003EEE                     u3060:
  8510   003EEE  0E00               	movlw	0
  8511   003EF0  6E05               	movwf	___fleq@ff2^0,c
  8512   003EF2  0E00               	movlw	0
  8513   003EF4  6E06               	movwf	(___fleq@ff2+1)^0,c
  8514   003EF6  0E00               	movlw	0
  8515   003EF8  6E07               	movwf	(___fleq@ff2+2)^0,c
  8516   003EFA  0E00               	movlw	0
  8517   003EFC  6E08               	movwf	(___fleq@ff2+3)^0,c
  8518   003EFE                     l3082:
  8519   003EFE  5005               	movf	___fleq@ff2^0,w,c
  8520   003F00  1801               	xorwf	___fleq@ff1^0,w,c
  8521   003F02  E10F               	bnz	u3070
  8522   003F04  5006               	movf	(___fleq@ff2+1)^0,w,c
  8523   003F06  1802               	xorwf	(___fleq@ff1+1)^0,w,c
  8524   003F08  E10C               	bnz	u3070
  8525   003F0A  5007               	movf	(___fleq@ff2+2)^0,w,c
  8526   003F0C  1803               	xorwf	(___fleq@ff1+2)^0,w,c
  8527   003F0E  E109               	bnz	u3070
  8528   003F10  5008               	movf	(___fleq@ff2+3)^0,w,c
  8529   003F12  1804               	xorwf	(___fleq@ff1+3)^0,w,c
  8530   003F14  B4D8               	btfsc	status,2,c
  8531   003F16  EF8F  F01F         	goto	u3071
  8532   003F1A  EF91  F01F         	goto	u3070
  8533   003F1E                     u3071:
  8534   003F1E  EF94  F01F         	goto	l3086
  8535   003F22                     u3070:
  8536   003F22  90D8               	bcf	status,0,c
  8537   003F24  EF95  F01F         	goto	l485
  8538   003F28                     l3086:
  8539   003F28  80D8               	bsf	status,0,c
  8540   003F2A                     l485:
  8541   003F2A  0012               	return		;funcret
  8542   003F2C                     __end_of___fleq:
  8543                           	callstack 0
  8544                           
  8545 ;; *************** function ___fldiv *****************
  8546 ;; Defined at:
  8547 ;;		line 11 in file "C:\Program Files\Microchip\xc8\v2.40\pic\sources\c99\common\sprcdiv.c"
  8548 ;; Parameters:    Size  Location     Type
  8549 ;;  b               4   49[COMRAM] unsigned char 
  8550 ;;  a               4   53[COMRAM] unsigned char 
  8551 ;; Auto vars:     Size  Location     Type
  8552 ;;  grs             4   68[COMRAM] unsigned long 
  8553 ;;  rem             4   61[COMRAM] unsigned long 
  8554 ;;  new_exp         2   66[COMRAM] short 
  8555 ;;  aexp            1   73[COMRAM] unsigned char 
  8556 ;;  bexp            1   72[COMRAM] unsigned char 
  8557 ;;  sign            1   65[COMRAM] unsigned char 
  8558 ;; Return value:  Size  Location     Type
  8559 ;;                  4   49[COMRAM] unsigned char 
  8560 ;; Registers used:
  8561 ;;		wreg, status,2, status,0
  8562 ;; Tracked objects:
  8563 ;;		On entry : 0/0
  8564 ;;		On exit  : 0/0
  8565 ;;		Unchanged: 0/0
  8566 ;; Data sizes:     COMRAM   BANK0   BANK1   BANK2   BANK3   BANK4   BANK5   BANK6   BANK7   BANK8   BANK9  BANK10  BANK1
      +1  BANK12  BANK13
  8567 ;;      Params:         8       0       0       0       0       0       0       0       0       0       0       0       
      +0       0       0
  8568 ;;      Locals:        13       0       0       0       0       0       0       0       0       0       0       0       
      +0       0       0
  8569 ;;      Temps:          4       0       0       0       0       0       0       0       0       0       0       0       
      +0       0       0
  8570 ;;      Totals:        25       0       0       0       0       0       0       0       0       0       0       0       
      +0       0       0
  8571 ;;Total ram usage:       25 bytes
  8572 ;; Hardware stack levels used: 1
  8573 ;; This function calls:
  8574 ;;		Nothing
  8575 ;; This function is called by:
  8576 ;;		_RGB2Hue
  8577 ;;		_efgtoa
  8578 ;; This function uses a non-reentrant model
  8579 ;;
  8580                           
  8581                           	psect	text41
  8582   002C7E                     __ptext41:
  8583                           	callstack 0
  8584   002C7E                     ___fldiv:
  8585                           	callstack 29
  8586   002C7E  5035               	movf	(___fldiv@b+3)^0,w,c
  8587   002C80  0B80               	andlw	128
  8588   002C82  6E42               	movwf	___fldiv@sign^0,c
  8589   002C84  5035               	movf	(___fldiv@b+3)^0,w,c
  8590   002C86  2435               	addwf	(___fldiv@b+3)^0,w,c
  8591   002C88  6E49               	movwf	___fldiv@bexp^0,c
  8592   002C8A  AE34               	btfss	(___fldiv@b+2)^0,7,c
  8593   002C8C  EF4A  F016         	goto	u2631
  8594   002C90  EF4C  F016         	goto	u2630
  8595   002C94                     u2631:
  8596   002C94  EF4D  F016         	goto	l2806
  8597   002C98                     u2630:
  8598   002C98  8049               	bsf	___fldiv@bexp^0,0,c
  8599   002C9A                     l2806:
  8600   002C9A  5049               	movf	___fldiv@bexp^0,w,c
  8601   002C9C  B4D8               	btfsc	status,2,c
  8602   002C9E  EF53  F016         	goto	u2641
  8603   002CA2  EF55  F016         	goto	u2640
  8604   002CA6                     u2641:
  8605   002CA6  EF6A  F016         	goto	l2816
  8606   002CAA                     u2640:
  8607   002CAA  2849               	incf	___fldiv@bexp^0,w,c
  8608   002CAC  A4D8               	btfss	status,2,c
  8609   002CAE  EF5B  F016         	goto	u2651
  8610   002CB2  EF5D  F016         	goto	u2650
  8611   002CB6                     u2651:
  8612   002CB6  EF65  F016         	goto	l2812
  8613   002CBA                     u2650:
  8614   002CBA  0E00               	movlw	0
  8615   002CBC  6E32               	movwf	___fldiv@b^0,c
  8616   002CBE  0E00               	movlw	0
  8617   002CC0  6E33               	movwf	(___fldiv@b+1)^0,c
  8618   002CC2  0E00               	movlw	0
  8619   002CC4  6E34               	movwf	(___fldiv@b+2)^0,c
  8620   002CC6  0E00               	movlw	0
  8621   002CC8  6E35               	movwf	(___fldiv@b+3)^0,c
  8622   002CCA                     l2812:
  8623   002CCA  8E34               	bsf	(___fldiv@b+2)^0,7,c
  8624   002CCC  0E00               	movlw	0
  8625   002CCE  6E35               	movwf	(___fldiv@b+3)^0,c
  8626   002CD0  EF72  F016         	goto	l2818
  8627   002CD4                     l2816:
  8628   002CD4  0E00               	movlw	0
  8629   002CD6  6E32               	movwf	___fldiv@b^0,c
  8630   002CD8  0E00               	movlw	0
  8631   002CDA  6E33               	movwf	(___fldiv@b+1)^0,c
  8632   002CDC  0E00               	movlw	0
  8633   002CDE  6E34               	movwf	(___fldiv@b+2)^0,c
  8634   002CE0  0E00               	movlw	0
  8635   002CE2  6E35               	movwf	(___fldiv@b+3)^0,c
  8636   002CE4                     l2818:
  8637   002CE4  5039               	movf	(___fldiv@a+3)^0,w,c
  8638   002CE6  0B80               	andlw	128
  8639   002CE8  1A42               	xorwf	___fldiv@sign^0,f,c
  8640   002CEA  5039               	movf	(___fldiv@a+3)^0,w,c
  8641   002CEC  2439               	addwf	(___fldiv@a+3)^0,w,c
  8642   002CEE  6E4A               	movwf	___fldiv@aexp^0,c
  8643   002CF0  AE38               	btfss	(___fldiv@a+2)^0,7,c
  8644   002CF2  EF7D  F016         	goto	u2661
  8645   002CF6  EF7F  F016         	goto	u2660
  8646   002CFA                     u2661:
  8647   002CFA  EF80  F016         	goto	l2826
  8648   002CFE                     u2660:
  8649   002CFE  804A               	bsf	___fldiv@aexp^0,0,c
  8650   002D00                     l2826:
  8651   002D00  504A               	movf	___fldiv@aexp^0,w,c
  8652   002D02  B4D8               	btfsc	status,2,c
  8653   002D04  EF86  F016         	goto	u2671
  8654   002D08  EF88  F016         	goto	u2670
  8655   002D0C                     u2671:
  8656   002D0C  EF9D  F016         	goto	l2836
  8657   002D10                     u2670:
  8658   002D10  284A               	incf	___fldiv@aexp^0,w,c
  8659   002D12  A4D8               	btfss	status,2,c
  8660   002D14  EF8E  F016         	goto	u2681
  8661   002D18  EF90  F016         	goto	u2680
  8662   002D1C                     u2681:
  8663   002D1C  EF98  F016         	goto	l2832
  8664   002D20                     u2680:
  8665   002D20  0E00               	movlw	0
  8666   002D22  6E36               	movwf	___fldiv@a^0,c
  8667   002D24  0E00               	movlw	0
  8668   002D26  6E37               	movwf	(___fldiv@a+1)^0,c
  8669   002D28  0E00               	movlw	0
  8670   002D2A  6E38               	movwf	(___fldiv@a+2)^0,c
  8671   002D2C  0E00               	movlw	0
  8672   002D2E  6E39               	movwf	(___fldiv@a+3)^0,c
  8673   002D30                     l2832:
  8674   002D30  8E38               	bsf	(___fldiv@a+2)^0,7,c
  8675   002D32  0E00               	movlw	0
  8676   002D34  6E39               	movwf	(___fldiv@a+3)^0,c
  8677   002D36  EFA5  F016         	goto	l2838
  8678   002D3A                     l2836:
  8679   002D3A  0E00               	movlw	0
  8680   002D3C  6E36               	movwf	___fldiv@a^0,c
  8681   002D3E  0E00               	movlw	0
  8682   002D40  6E37               	movwf	(___fldiv@a+1)^0,c
  8683   002D42  0E00               	movlw	0
  8684   002D44  6E38               	movwf	(___fldiv@a+2)^0,c
  8685   002D46  0E00               	movlw	0
  8686   002D48  6E39               	movwf	(___fldiv@a+3)^0,c
  8687   002D4A                     l2838:
  8688   002D4A  5036               	movf	___fldiv@a^0,w,c
  8689   002D4C  1037               	iorwf	(___fldiv@a+1)^0,w,c
  8690   002D4E  1038               	iorwf	(___fldiv@a+2)^0,w,c
  8691   002D50  1039               	iorwf	(___fldiv@a+3)^0,w,c
  8692   002D52  A4D8               	btfss	status,2,c
  8693   002D54  EFAE  F016         	goto	u2691
  8694   002D58  EFB0  F016         	goto	u2690
  8695   002D5C                     u2691:
  8696   002D5C  EFC8  F016         	goto	l2850
  8697   002D60                     u2690:
  8698   002D60  0E00               	movlw	0
  8699   002D62  6E32               	movwf	___fldiv@b^0,c
  8700   002D64  0E00               	movlw	0
  8701   002D66  6E33               	movwf	(___fldiv@b+1)^0,c
  8702   002D68  0E00               	movlw	0
  8703   002D6A  6E34               	movwf	(___fldiv@b+2)^0,c
  8704   002D6C  0E00               	movlw	0
  8705   002D6E  6E35               	movwf	(___fldiv@b+3)^0,c
  8706   002D70  0E80               	movlw	128
  8707   002D72  1234               	iorwf	(___fldiv@b+2)^0,f,c
  8708   002D74  0E7F               	movlw	127
  8709   002D76  1235               	iorwf	(___fldiv@b+3)^0,f,c
  8710   002D78                     l2844:
  8711   002D78  5042               	movf	___fldiv@sign^0,w,c
  8712   002D7A  1235               	iorwf	(___fldiv@b+3)^0,f,c
  8713   002D7C  C032  F032         	movff	___fldiv@b,?___fldiv
  8714   002D80  C033  F033         	movff	___fldiv@b+1,?___fldiv+1
  8715   002D84  C034  F034         	movff	___fldiv@b+2,?___fldiv+2
  8716   002D88  C035  F035         	movff	___fldiv@b+3,?___fldiv+3
  8717   002D8C  EF0B  F018         	goto	l808
  8718   002D90                     l2850:
  8719   002D90  5049               	movf	___fldiv@bexp^0,w,c
  8720   002D92  A4D8               	btfss	status,2,c
  8721   002D94  EFCE  F016         	goto	u2701
  8722   002D98  EFD0  F016         	goto	u2700
  8723   002D9C                     u2701:
  8724   002D9C  EFDA  F016         	goto	l2858
  8725   002DA0                     u2700:
  8726   002DA0  0E00               	movlw	0
  8727   002DA2  6E32               	movwf	?___fldiv^0,c
  8728   002DA4  0E00               	movlw	0
  8729   002DA6  6E33               	movwf	(?___fldiv+1)^0,c
  8730   002DA8  0E00               	movlw	0
  8731   002DAA  6E34               	movwf	(?___fldiv+2)^0,c
  8732   002DAC  0E00               	movlw	0
  8733   002DAE  6E35               	movwf	(?___fldiv+3)^0,c
  8734   002DB0  EF0B  F018         	goto	l808
  8735   002DB4                     l2858:
  8736   002DB4  504A               	movf	___fldiv@aexp^0,w,c
  8737   002DB6  C049  F03A         	movff	___fldiv@bexp,??___fldiv
  8738   002DBA  6A3B               	clrf	(??___fldiv+1)^0,c
  8739   002DBC  5E3A               	subwf	??___fldiv^0,f,c
  8740   002DBE  0E00               	movlw	0
  8741   002DC0  5A3B               	subwfb	(??___fldiv+1)^0,f,c
  8742   002DC2  0E7F               	movlw	127
  8743   002DC4  243A               	addwf	??___fldiv^0,w,c
  8744   002DC6  6E43               	movwf	___fldiv@new_exp^0,c
  8745   002DC8  0E00               	movlw	0
  8746   002DCA  203B               	addwfc	(??___fldiv+1)^0,w,c
  8747   002DCC  6E44               	movwf	(___fldiv@new_exp+1)^0,c
  8748   002DCE  C032  F03E         	movff	___fldiv@b,___fldiv@rem
  8749   002DD2  C033  F03F         	movff	___fldiv@b+1,___fldiv@rem+1
  8750   002DD6  C034  F040         	movff	___fldiv@b+2,___fldiv@rem+2
  8751   002DDA  C035  F041         	movff	___fldiv@b+3,___fldiv@rem+3
  8752   002DDE  0E00               	movlw	0
  8753   002DE0  6E32               	movwf	___fldiv@b^0,c
  8754   002DE2  0E00               	movlw	0
  8755   002DE4  6E33               	movwf	(___fldiv@b+1)^0,c
  8756   002DE6  0E00               	movlw	0
  8757   002DE8  6E34               	movwf	(___fldiv@b+2)^0,c
  8758   002DEA  0E00               	movlw	0
  8759   002DEC  6E35               	movwf	(___fldiv@b+3)^0,c
  8760   002DEE  0E00               	movlw	0
  8761   002DF0  6E45               	movwf	___fldiv@grs^0,c
  8762   002DF2  0E00               	movlw	0
  8763   002DF4  6E46               	movwf	(___fldiv@grs+1)^0,c
  8764   002DF6  0E00               	movlw	0
  8765   002DF8  6E47               	movwf	(___fldiv@grs+2)^0,c
  8766   002DFA  0E00               	movlw	0
  8767   002DFC  6E48               	movwf	(___fldiv@grs+3)^0,c
  8768   002DFE  0E00               	movlw	0
  8769   002E00  6E4A               	movwf	___fldiv@aexp^0,c
  8770   002E02  EF3B  F017         	goto	l810
  8771   002E06                     l2868:
  8772   002E06  504A               	movf	___fldiv@aexp^0,w,c
  8773   002E08  B4D8               	btfsc	status,2,c
  8774   002E0A  EF09  F017         	goto	u2711
  8775   002E0E  EF0B  F017         	goto	u2710
  8776   002E12                     u2711:
  8777   002E12  EF22  F017         	goto	l2876
  8778   002E16                     u2710:
  8779   002E16  90D8               	bcf	status,0,c
  8780   002E18  363E               	rlcf	___fldiv@rem^0,f,c
  8781   002E1A  363F               	rlcf	(___fldiv@rem+1)^0,f,c
  8782   002E1C  3640               	rlcf	(___fldiv@rem+2)^0,f,c
  8783   002E1E  3641               	rlcf	(___fldiv@rem+3)^0,f,c
  8784   002E20  90D8               	bcf	status,0,c
  8785   002E22  3632               	rlcf	___fldiv@b^0,f,c
  8786   002E24  3633               	rlcf	(___fldiv@b+1)^0,f,c
  8787   002E26  3634               	rlcf	(___fldiv@b+2)^0,f,c
  8788   002E28  3635               	rlcf	(___fldiv@b+3)^0,f,c
  8789   002E2A  AE48               	btfss	(___fldiv@grs+3)^0,7,c
  8790   002E2C  EF1A  F017         	goto	u2721
  8791   002E30  EF1C  F017         	goto	u2720
  8792   002E34                     u2721:
  8793   002E34  EF1D  F017         	goto	l813
  8794   002E38                     u2720:
  8795   002E38  8032               	bsf	___fldiv@b^0,0,c
  8796   002E3A                     l813:
  8797   002E3A  90D8               	bcf	status,0,c
  8798   002E3C  3645               	rlcf	___fldiv@grs^0,f,c
  8799   002E3E  3646               	rlcf	(___fldiv@grs+1)^0,f,c
  8800   002E40  3647               	rlcf	(___fldiv@grs+2)^0,f,c
  8801   002E42  3648               	rlcf	(___fldiv@grs+3)^0,f,c
  8802   002E44                     l2876:
  8803   002E44  5036               	movf	___fldiv@a^0,w,c
  8804   002E46  5C3E               	subwf	___fldiv@rem^0,w,c
  8805   002E48  5037               	movf	(___fldiv@a+1)^0,w,c
  8806   002E4A  583F               	subwfb	(___fldiv@rem+1)^0,w,c
  8807   002E4C  5038               	movf	(___fldiv@a+2)^0,w,c
  8808   002E4E  5840               	subwfb	(___fldiv@rem+2)^0,w,c
  8809   002E50  5039               	movf	(___fldiv@a+3)^0,w,c
  8810   002E52  5841               	subwfb	(___fldiv@rem+3)^0,w,c
  8811   002E54  A0D8               	btfss	status,0,c
  8812   002E56  EF2F  F017         	goto	u2731
  8813   002E5A  EF31  F017         	goto	u2730
  8814   002E5E                     u2731:
  8815   002E5E  EF3A  F017         	goto	l2882
  8816   002E62                     u2730:
  8817   002E62  8C48               	bsf	(___fldiv@grs+3)^0,6,c
  8818   002E64  5036               	movf	___fldiv@a^0,w,c
  8819   002E66  5E3E               	subwf	___fldiv@rem^0,f,c
  8820   002E68  5037               	movf	(___fldiv@a+1)^0,w,c
  8821   002E6A  5A3F               	subwfb	(___fldiv@rem+1)^0,f,c
  8822   002E6C  5038               	movf	(___fldiv@a+2)^0,w,c
  8823   002E6E  5A40               	subwfb	(___fldiv@rem+2)^0,f,c
  8824   002E70  5039               	movf	(___fldiv@a+3)^0,w,c
  8825   002E72  5A41               	subwfb	(___fldiv@rem+3)^0,f,c
  8826   002E74                     l2882:
  8827   002E74  2A4A               	incf	___fldiv@aexp^0,f,c
  8828   002E76                     l810:
  8829   002E76  0E19               	movlw	25
  8830   002E78  644A               	cpfsgt	___fldiv@aexp^0,c
  8831   002E7A  EF41  F017         	goto	u2741
  8832   002E7E  EF43  F017         	goto	u2740
  8833   002E82                     u2741:
  8834   002E82  EF03  F017         	goto	l2868
  8835   002E86                     u2740:
  8836   002E86  503E               	movf	___fldiv@rem^0,w,c
  8837   002E88  103F               	iorwf	(___fldiv@rem+1)^0,w,c
  8838   002E8A  1040               	iorwf	(___fldiv@rem+2)^0,w,c
  8839   002E8C  1041               	iorwf	(___fldiv@rem+3)^0,w,c
  8840   002E8E  B4D8               	btfsc	status,2,c
  8841   002E90  EF4C  F017         	goto	u2751
  8842   002E94  EF4E  F017         	goto	u2750
  8843   002E98                     u2751:
  8844   002E98  EF66  F017         	goto	l2894
  8845   002E9C                     u2750:
  8846   002E9C  8045               	bsf	___fldiv@grs^0,0,c
  8847   002E9E  EF66  F017         	goto	l2894
  8848   002EA2                     l2888:
  8849   002EA2  90D8               	bcf	status,0,c
  8850   002EA4  3632               	rlcf	___fldiv@b^0,f,c
  8851   002EA6  3633               	rlcf	(___fldiv@b+1)^0,f,c
  8852   002EA8  3634               	rlcf	(___fldiv@b+2)^0,f,c
  8853   002EAA  3635               	rlcf	(___fldiv@b+3)^0,f,c
  8854   002EAC  AE48               	btfss	(___fldiv@grs+3)^0,7,c
  8855   002EAE  EF5B  F017         	goto	u2761
  8856   002EB2  EF5D  F017         	goto	u2760
  8857   002EB6                     u2761:
  8858   002EB6  EF5E  F017         	goto	l819
  8859   002EBA                     u2760:
  8860   002EBA  8032               	bsf	___fldiv@b^0,0,c
  8861   002EBC                     l819:
  8862   002EBC  90D8               	bcf	status,0,c
  8863   002EBE  3645               	rlcf	___fldiv@grs^0,f,c
  8864   002EC0  3646               	rlcf	(___fldiv@grs+1)^0,f,c
  8865   002EC2  3647               	rlcf	(___fldiv@grs+2)^0,f,c
  8866   002EC4  3648               	rlcf	(___fldiv@grs+3)^0,f,c
  8867   002EC6  0643               	decf	___fldiv@new_exp^0,f,c
  8868   002EC8  A0D8               	btfss	status,0,c
  8869   002ECA  0644               	decf	(___fldiv@new_exp+1)^0,f,c
  8870   002ECC                     l2894:
  8871   002ECC  AE34               	btfss	(___fldiv@b+2)^0,7,c
  8872   002ECE  EF6B  F017         	goto	u2771
  8873   002ED2  EF6D  F017         	goto	u2770
  8874   002ED6                     u2771:
  8875   002ED6  EF51  F017         	goto	l2888
  8876   002EDA                     u2770:
  8877   002EDA  0E00               	movlw	0
  8878   002EDC  6E4A               	movwf	___fldiv@aexp^0,c
  8879   002EDE  AE48               	btfss	(___fldiv@grs+3)^0,7,c
  8880   002EE0  EF74  F017         	goto	u2781
  8881   002EE4  EF76  F017         	goto	u2780
  8882   002EE8                     u2781:
  8883   002EE8  EF9A  F017         	goto	l821
  8884   002EEC                     u2780:
  8885   002EEC  0EFF               	movlw	255
  8886   002EEE  1445               	andwf	___fldiv@grs^0,w,c
  8887   002EF0  6E3A               	movwf	??___fldiv^0,c
  8888   002EF2  0EFF               	movlw	255
  8889   002EF4  1446               	andwf	(___fldiv@grs+1)^0,w,c
  8890   002EF6  6E3B               	movwf	(??___fldiv+1)^0,c
  8891   002EF8  0EFF               	movlw	255
  8892   002EFA  1447               	andwf	(___fldiv@grs+2)^0,w,c
  8893   002EFC  6E3C               	movwf	(??___fldiv+2)^0,c
  8894   002EFE  0E7F               	movlw	127
  8895   002F00  1448               	andwf	(___fldiv@grs+3)^0,w,c
  8896   002F02  6E3D               	movwf	(??___fldiv+3)^0,c
  8897   002F04  503A               	movf	??___fldiv^0,w,c
  8898   002F06  103B               	iorwf	(??___fldiv+1)^0,w,c
  8899   002F08  103C               	iorwf	(??___fldiv+2)^0,w,c
  8900   002F0A  103D               	iorwf	(??___fldiv+3)^0,w,c
  8901   002F0C  B4D8               	btfsc	status,2,c
  8902   002F0E  EF8B  F017         	goto	u2791
  8903   002F12  EF8D  F017         	goto	u2790
  8904   002F16                     u2791:
  8905   002F16  EF91  F017         	goto	l822
  8906   002F1A                     u2790:
  8907   002F1A                     l2902:
  8908   002F1A  0E01               	movlw	1
  8909   002F1C  6E4A               	movwf	___fldiv@aexp^0,c
  8910   002F1E  EF9A  F017         	goto	l821
  8911   002F22                     l822:
  8912   002F22  A032               	btfss	___fldiv@b^0,0,c
  8913   002F24  EF96  F017         	goto	u2801
  8914   002F28  EF98  F017         	goto	u2800
  8915   002F2C                     u2801:
  8916   002F2C  EF9A  F017         	goto	l821
  8917   002F30                     u2800:
  8918   002F30  EF8D  F017         	goto	l2902
  8919   002F34                     l821:
  8920   002F34  504A               	movf	___fldiv@aexp^0,w,c
  8921   002F36  B4D8               	btfsc	status,2,c
  8922   002F38  EFA0  F017         	goto	u2811
  8923   002F3C  EFA2  F017         	goto	u2810
  8924   002F40                     u2811:
  8925   002F40  EFC6  F017         	goto	l2914
  8926   002F44                     u2810:
  8927   002F44  0E01               	movlw	1
  8928   002F46  2632               	addwf	___fldiv@b^0,f,c
  8929   002F48  0E00               	movlw	0
  8930   002F4A  2233               	addwfc	(___fldiv@b+1)^0,f,c
  8931   002F4C  2234               	addwfc	(___fldiv@b+2)^0,f,c
  8932   002F4E  2235               	addwfc	(___fldiv@b+3)^0,f,c
  8933   002F50  A035               	btfss	(___fldiv@b+3)^0,0,c
  8934   002F52  EFAD  F017         	goto	u2821
  8935   002F56  EFAF  F017         	goto	u2820
  8936   002F5A                     u2821:
  8937   002F5A  EFC6  F017         	goto	l2914
  8938   002F5E                     u2820:
  8939   002F5E  C032  F03A         	movff	___fldiv@b,??___fldiv
  8940   002F62  C033  F03B         	movff	___fldiv@b+1,??___fldiv+1
  8941   002F66  C034  F03C         	movff	___fldiv@b+2,??___fldiv+2
  8942   002F6A  C035  F03D         	movff	___fldiv@b+3,??___fldiv+3
  8943   002F6E  343D               	rlcf	(??___fldiv+3)^0,w,c
  8944   002F70  323D               	rrcf	(??___fldiv+3)^0,f,c
  8945   002F72  323C               	rrcf	(??___fldiv+2)^0,f,c
  8946   002F74  323B               	rrcf	(??___fldiv+1)^0,f,c
  8947   002F76  323A               	rrcf	??___fldiv^0,f,c
  8948   002F78  C03A  F032         	movff	??___fldiv,___fldiv@b
  8949   002F7C  C03B  F033         	movff	??___fldiv+1,___fldiv@b+1
  8950   002F80  C03C  F034         	movff	??___fldiv+2,___fldiv@b+2
  8951   002F84  C03D  F035         	movff	??___fldiv+3,___fldiv@b+3
  8952   002F88  4A43               	infsnz	___fldiv@new_exp^0,f,c
  8953   002F8A  2A44               	incf	(___fldiv@new_exp+1)^0,f,c
  8954   002F8C                     l2914:
  8955   002F8C  BE44               	btfsc	(___fldiv@new_exp+1)^0,7,c
  8956   002F8E  EFD1  F017         	goto	u2831
  8957   002F92  5044               	movf	(___fldiv@new_exp+1)^0,w,c
  8958   002F94  E108               	bnz	u2830
  8959   002F96  2843               	incf	___fldiv@new_exp^0,w,c
  8960   002F98  A0D8               	btfss	status,0,c
  8961   002F9A  EFD1  F017         	goto	u2831
  8962   002F9E  EFD3  F017         	goto	u2830
  8963   002FA2                     u2831:
  8964   002FA2  EFDE  F017         	goto	l2918
  8965   002FA6                     u2830:
  8966   002FA6  0E00               	movlw	0
  8967   002FA8  6E44               	movwf	(___fldiv@new_exp+1)^0,c
  8968   002FAA  6843               	setf	___fldiv@new_exp^0,c
  8969   002FAC  0E00               	movlw	0
  8970   002FAE  6E32               	movwf	___fldiv@b^0,c
  8971   002FB0  0E00               	movlw	0
  8972   002FB2  6E33               	movwf	(___fldiv@b+1)^0,c
  8973   002FB4  0E00               	movlw	0
  8974   002FB6  6E34               	movwf	(___fldiv@b+2)^0,c
  8975   002FB8  0E00               	movlw	0
  8976   002FBA  6E35               	movwf	(___fldiv@b+3)^0,c
  8977   002FBC                     l2918:
  8978   002FBC  BE44               	btfsc	(___fldiv@new_exp+1)^0,7,c
  8979   002FBE  EFEB  F017         	goto	u2840
  8980   002FC2  5044               	movf	(___fldiv@new_exp+1)^0,w,c
  8981   002FC4  E106               	bnz	u2841
  8982   002FC6  0443               	decf	___fldiv@new_exp^0,w,c
  8983   002FC8  B0D8               	btfsc	status,0,c
  8984   002FCA  EFE9  F017         	goto	u2841
  8985   002FCE  EFEB  F017         	goto	u2840
  8986   002FD2                     u2841:
  8987   002FD2  EFF9  F017         	goto	l2922
  8988   002FD6                     u2840:
  8989   002FD6  0E00               	movlw	0
  8990   002FD8  6E44               	movwf	(___fldiv@new_exp+1)^0,c
  8991   002FDA  0E00               	movlw	0
  8992   002FDC  6E43               	movwf	___fldiv@new_exp^0,c
  8993   002FDE  0E00               	movlw	0
  8994   002FE0  6E32               	movwf	___fldiv@b^0,c
  8995   002FE2  0E00               	movlw	0
  8996   002FE4  6E33               	movwf	(___fldiv@b+1)^0,c
  8997   002FE6  0E00               	movlw	0
  8998   002FE8  6E34               	movwf	(___fldiv@b+2)^0,c
  8999   002FEA  0E00               	movlw	0
  9000   002FEC  6E35               	movwf	(___fldiv@b+3)^0,c
  9001   002FEE  0E00               	movlw	0
  9002   002FF0  6E42               	movwf	___fldiv@sign^0,c
  9003   002FF2                     l2922:
  9004   002FF2  C043  F049         	movff	___fldiv@new_exp,___fldiv@bexp
  9005   002FF6  A049               	btfss	___fldiv@bexp^0,0,c
  9006   002FF8  EF00  F018         	goto	u2851
  9007   002FFC  EF02  F018         	goto	u2850
  9008   003000                     u2851:
  9009   003000  EF05  F018         	goto	l2928
  9010   003004                     u2850:
  9011   003004  8E34               	bsf	(___fldiv@b+2)^0,7,c
  9012   003006  EF06  F018         	goto	l2930
  9013   00300A                     l2928:
  9014   00300A  9E34               	bcf	(___fldiv@b+2)^0,7,c
  9015   00300C                     l2930:
  9016   00300C  90D8               	bcf	status,0,c
  9017   00300E  3049               	rrcf	___fldiv@bexp^0,w,c
  9018   003010  6E35               	movwf	(___fldiv@b+3)^0,c
  9019   003012  EFBC  F016         	goto	l2844
  9020   003016                     l808:
  9021   003016  0012               	return		;funcret
  9022   003018                     __end_of___fldiv:
  9023                           	callstack 0
  9024                           
  9025 ;; *************** function _sendStringSerial4 *****************
  9026 ;; Defined at:
  9027 ;;		line 48 in file "serial.c"
  9028 ;; Parameters:    Size  Location     Type
  9029 ;;  string          2    1[COMRAM] PTR unsigned char 
  9030 ;;		 -> main@data(80), 
  9031 ;; Auto vars:     Size  Location     Type
  9032 ;;		None
  9033 ;; Return value:  Size  Location     Type
  9034 ;;                  1    wreg      void 
  9035 ;; Registers used:
  9036 ;;		wreg, fsr2l, fsr2h, status,2, status,0, cstack
  9037 ;; Tracked objects:
  9038 ;;		On entry : 0/0
  9039 ;;		On exit  : 0/0
  9040 ;;		Unchanged: 0/0
  9041 ;; Data sizes:     COMRAM   BANK0   BANK1   BANK2   BANK3   BANK4   BANK5   BANK6   BANK7   BANK8   BANK9  BANK10  BANK1
      +1  BANK12  BANK13
  9042 ;;      Params:         2       0       0       0       0       0       0       0       0       0       0       0       
      +0       0       0
  9043 ;;      Locals:         0       0       0       0       0       0       0       0       0       0       0       0       
      +0       0       0
  9044 ;;      Temps:          0       0       0       0       0       0       0       0       0       0       0       0       
      +0       0       0
  9045 ;;      Totals:         2       0       0       0       0       0       0       0       0       0       0       0       
      +0       0       0
  9046 ;;Total ram usage:        2 bytes
  9047 ;; Hardware stack levels used: 1
  9048 ;; Hardware stack levels required when called: 1
  9049 ;; This function calls:
  9050 ;;		_sendCharSerial4
  9051 ;; This function is called by:
  9052 ;;		_Color2String
  9053 ;; This function uses a non-reentrant model
  9054 ;;
  9055                           
  9056                           	psect	text42
  9057   0044C2                     __ptext42:
  9058                           	callstack 0
  9059   0044C2                     _sendStringSerial4:
  9060                           	callstack 28
  9061   0044C2                     
  9062                           ;serial.c: 51:     while(*string != 0){
  9063   0044C2  EF70  F022         	goto	l3770
  9064   0044C6                     l3764:
  9065                           
  9066                           ;serial.c: 53:   sendCharSerial4(*string++);
  9067   0044C6  C002  FFD9         	movff	sendStringSerial4@string,fsr2l
  9068   0044CA  C003  FFDA         	movff	sendStringSerial4@string+1,fsr2h
  9069   0044CE  50DF               	movf	indf2,w,c
  9070   0044D0  ECC7  F022         	call	_sendCharSerial4
  9071   0044D4  4A02               	infsnz	sendStringSerial4@string^0,f,c
  9072   0044D6  2A03               	incf	(sendStringSerial4@string+1)^0,f,c
  9073   0044D8                     
  9074                           ;serial.c: 54:         _delay((unsigned long)((20)*(64000000/4000000.0)));
  9075   0044D8  0E6A               	movlw	106
  9076   0044DA                     u4387:
  9077   0044DA  2EE8               	decfsz	wreg,f,c
  9078   0044DC  D7FE               	bra	u4387
  9079   0044DE  D000               	nop2	
  9080   0044E0                     l3770:
  9081                           
  9082                           ;serial.c: 51:     while(*string != 0){
  9083   0044E0  C002  FFD9         	movff	sendStringSerial4@string,fsr2l
  9084   0044E4  C003  FFDA         	movff	sendStringSerial4@string+1,fsr2h
  9085   0044E8  50DF               	movf	indf2,w,c
  9086   0044EA  A4D8               	btfss	status,2,c
  9087   0044EC  EF7A  F022         	goto	u4141
  9088   0044F0  EF7C  F022         	goto	u4140
  9089   0044F4                     u4141:
  9090   0044F4  EF63  F022         	goto	l3764
  9091   0044F8                     u4140:
  9092   0044F8  0012               	return		;funcret
  9093   0044FA                     __end_of_sendStringSerial4:
  9094                           	callstack 0
  9095                           
  9096 ;; *************** function _sendCharSerial4 *****************
  9097 ;; Defined at:
  9098 ;;		line 34 in file "serial.c"
  9099 ;; Parameters:    Size  Location     Type
  9100 ;;  charToSend      1    wreg     unsigned char 
  9101 ;; Auto vars:     Size  Location     Type
  9102 ;;  charToSend      1    0[COMRAM] unsigned char 
  9103 ;; Return value:  Size  Location     Type
  9104 ;;                  1    wreg      void 
  9105 ;; Registers used:
  9106 ;;		wreg
  9107 ;; Tracked objects:
  9108 ;;		On entry : 0/0
  9109 ;;		On exit  : 0/0
  9110 ;;		Unchanged: 0/0
  9111 ;; Data sizes:     COMRAM   BANK0   BANK1   BANK2   BANK3   BANK4   BANK5   BANK6   BANK7   BANK8   BANK9  BANK10  BANK1
      +1  BANK12  BANK13
  9112 ;;      Params:         0       0       0       0       0       0       0       0       0       0       0       0       
      +0       0       0
  9113 ;;      Locals:         1       0       0       0       0       0       0       0       0       0       0       0       
      +0       0       0
  9114 ;;      Temps:          0       0       0       0       0       0       0       0       0       0       0       0       
      +0       0       0
  9115 ;;      Totals:         1       0       0       0       0       0       0       0       0       0       0       0       
      +0       0       0
  9116 ;;Total ram usage:        1 bytes
  9117 ;; Hardware stack levels used: 1
  9118 ;; This function calls:
  9119 ;;		Nothing
  9120 ;; This function is called by:
  9121 ;;		_sendStringSerial4
  9122 ;; This function uses a non-reentrant model
  9123 ;;
  9124                           
  9125                           	psect	text43
  9126   00458E                     __ptext43:
  9127                           	callstack 0
  9128   00458E                     _sendCharSerial4:
  9129                           	callstack 28
  9130                           
  9131                           ;incstack = 0
  9132                           ;sendCharSerial4@charToSend stored from wreg
  9133   00458E  6E01               	movwf	sendCharSerial4@charToSend^0,c
  9134   004590                     l211:
  9135   004590  010E               	movlb	14	; () banked
  9136   004592  A537               	btfss	55,2,b	;volatile
  9137   004594  EFCE  F022         	goto	u3981
  9138   004598  EFD0  F022         	goto	u3980
  9139   00459C                     u3981:
  9140   00459C  EFC8  F022         	goto	l211
  9141   0045A0                     u3980:
  9142   0045A0                     
  9143                           ; BSR set to: 14
  9144                           ;serial.c: 36:     TX4REG = charToSend;
  9145   0045A0  C001  FEE4         	movff	sendCharSerial4@charToSend,3812	;volatile
  9146   0045A4                     
  9147                           ; BSR set to: 14
  9148   0045A4  0012               	return		;funcret
  9149   0045A6                     __end_of_sendCharSerial4:
  9150                           	callstack 0
  9151                           
  9152 ;; *************** function _Hue2Colour *****************
  9153 ;; Defined at:
  9154 ;;		line 53 in file "colorfunctions.c"
  9155 ;; Parameters:    Size  Location     Type
  9156 ;;  cf              2   17[BANK0 ] PTR struct RGBC_rel
  9157 ;;		 -> colorf(20), 
  9158 ;; Auto vars:     Size  Location     Type
  9159 ;;  colourname      2   19[BANK0 ] PTR unsigned char 
  9160 ;;		 -> STR_16(10), STR_15(11), STR_14(7), STR_13(7), 
  9161 ;;		 -> STR_12(5), STR_11(9), STR_10(4), STR_9(1), 
  9162 ;; Return value:  Size  Location     Type
  9163 ;;                  2   17[BANK0 ] PTR unsigned char 
  9164 ;; Registers used:
  9165 ;;		wreg, fsr2l, fsr2h, status,2, status,0, cstack
  9166 ;; Tracked objects:
  9167 ;;		On entry : 0/0
  9168 ;;		On exit  : 0/0
  9169 ;;		Unchanged: 0/0
  9170 ;; Data sizes:     COMRAM   BANK0   BANK1   BANK2   BANK3   BANK4   BANK5   BANK6   BANK7   BANK8   BANK9  BANK10  BANK1
      +1  BANK12  BANK13
  9171 ;;      Params:         0       2       0       0       0       0       0       0       0       0       0       0       
      +0       0       0
  9172 ;;      Locals:         0       2       0       0       0       0       0       0       0       0       0       0       
      +0       0       0
  9173 ;;      Temps:          0       0       0       0       0       0       0       0       0       0       0       0       
      +0       0       0
  9174 ;;      Totals:         0       4       0       0       0       0       0       0       0       0       0       0       
      +0       0       0
  9175 ;;Total ram usage:        4 bytes
  9176 ;; Hardware stack levels used: 1
  9177 ;; Hardware stack levels required when called: 1
  9178 ;; This function calls:
  9179 ;;		___flge
  9180 ;; This function is called by:
  9181 ;;		_Color2String
  9182 ;; This function uses a non-reentrant model
  9183 ;;
  9184                           
  9185                           	psect	text44
  9186   00288A                     __ptext44:
  9187                           	callstack 0
  9188   00288A                     _Hue2Colour:
  9189                           	callstack 28
  9190   00288A                     
  9191                           ;colorfunctions.c: 53: char* Hue2Colour(struct RGBC_rel *cf);colorfunctions.c: 54: {;col
      +                          orfunctions.c: 55:     char* colourname = "";
  9192   00288A  0E2E               	movlw	low (STR_33+45)
  9193   00288C  0100               	movlb	0	; () banked
  9194   00288E  6F73               	movwf	Hue2Colour@colourname& (0+255),b
  9195   002890  0E0E               	movlw	high (STR_33+45)
  9196   002892  6F74               	movwf	(Hue2Colour@colourname+1)& (0+255),b
  9197   002894                     
  9198                           ; BSR set to: 0
  9199                           ;colorfunctions.c: 57:     if (((cf->h)>352)&&((cf->h)<360))
  9200   002894  0E00               	movlw	0
  9201   002896  6E57               	movwf	___flge@ff1^0,c
  9202   002898  0E00               	movlw	0
  9203   00289A  6E58               	movwf	(___flge@ff1+1)^0,c
  9204   00289C  0EB0               	movlw	176
  9205   00289E  6E59               	movwf	(___flge@ff1+2)^0,c
  9206   0028A0  0E43               	movlw	67
  9207   0028A2  6E5A               	movwf	(___flge@ff1+3)^0,c
  9208   0028A4  EE20 F010          	lfsr	2,16
  9209   0028A8  5171               	movf	Hue2Colour@cf& (0+255),w,b
  9210   0028AA  26D9               	addwf	fsr2l,f,c
  9211   0028AC  5172               	movf	(Hue2Colour@cf+1)& (0+255),w,b
  9212   0028AE  22DA               	addwfc	fsr2h,f,c
  9213   0028B0  CFDE F05B          	movff	postinc2,___flge@ff2
  9214   0028B4  CFDE F05C          	movff	postinc2,___flge@ff2+1
  9215   0028B8  CFDE F05D          	movff	postinc2,___flge@ff2+2
  9216   0028BC  CFDE F05E          	movff	postinc2,___flge@ff2+3
  9217   0028C0  EC9C  F01C         	call	___flge	;wreg free
  9218   0028C4  B0D8               	btfsc	status,0,c
  9219   0028C6  EF67  F014         	goto	u4001
  9220   0028CA  EF69  F014         	goto	u4000
  9221   0028CE                     u4001:
  9222   0028CE  EF90  F014         	goto	l3712
  9223   0028D2                     u4000:
  9224   0028D2  0100               	movlb	0	; () banked
  9225   0028D4  EE20 F010          	lfsr	2,16
  9226   0028D8  5171               	movf	Hue2Colour@cf& (0+255),w,b
  9227   0028DA  26D9               	addwf	fsr2l,f,c
  9228   0028DC  5172               	movf	(Hue2Colour@cf+1)& (0+255),w,b
  9229   0028DE  22DA               	addwfc	fsr2h,f,c
  9230   0028E0  CFDE F057          	movff	postinc2,___flge@ff1
  9231   0028E4  CFDE F058          	movff	postinc2,___flge@ff1+1
  9232   0028E8  CFDE F059          	movff	postinc2,___flge@ff1+2
  9233   0028EC  CFDE F05A          	movff	postinc2,___flge@ff1+3
  9234   0028F0  0E00               	movlw	0
  9235   0028F2  6E5B               	movwf	___flge@ff2^0,c
  9236   0028F4  0E00               	movlw	0
  9237   0028F6  6E5C               	movwf	(___flge@ff2+1)^0,c
  9238   0028F8  0EB4               	movlw	180
  9239   0028FA  6E5D               	movwf	(___flge@ff2+2)^0,c
  9240   0028FC  0E43               	movlw	67
  9241   0028FE  6E5E               	movwf	(___flge@ff2+3)^0,c
  9242   002900  EC9C  F01C         	call	___flge	;wreg free
  9243   002904  B0D8               	btfsc	status,0,c
  9244   002906  EF87  F014         	goto	u4011
  9245   00290A  EF89  F014         	goto	u4010
  9246   00290E                     u4011:
  9247   00290E  EF90  F014         	goto	l3712
  9248   002912                     u4010:
  9249   002912                     
  9250                           ;colorfunctions.c: 58:     {;colorfunctions.c: 59:         colourname = "Red";
  9251   002912  0E72               	movlw	low STR_1
  9252   002914  0100               	movlb	0	; () banked
  9253   002916  6F73               	movwf	Hue2Colour@colourname& (0+255),b
  9254   002918  0E0E               	movlw	high STR_1
  9255   00291A  6F74               	movwf	(Hue2Colour@colourname+1)& (0+255),b
  9256                           
  9257                           ;colorfunctions.c: 60:     }
  9258   00291C  EF3A  F016         	goto	l67
  9259   002920                     l3712:
  9260   002920  0E00               	movlw	0
  9261   002922  6E57               	movwf	___flge@ff1^0,c
  9262   002924  0E00               	movlw	0
  9263   002926  6E58               	movwf	(___flge@ff1+1)^0,c
  9264   002928  0ED0               	movlw	208
  9265   00292A  6E59               	movwf	(___flge@ff1+2)^0,c
  9266   00292C  0E41               	movlw	65
  9267   00292E  6E5A               	movwf	(___flge@ff1+3)^0,c
  9268   002930  0100               	movlb	0	; () banked
  9269   002932  EE20 F010          	lfsr	2,16
  9270   002936  5171               	movf	Hue2Colour@cf& (0+255),w,b
  9271   002938  26D9               	addwf	fsr2l,f,c
  9272   00293A  5172               	movf	(Hue2Colour@cf+1)& (0+255),w,b
  9273   00293C  22DA               	addwfc	fsr2h,f,c
  9274   00293E  CFDE F05B          	movff	postinc2,___flge@ff2
  9275   002942  CFDE F05C          	movff	postinc2,___flge@ff2+1
  9276   002946  CFDE F05D          	movff	postinc2,___flge@ff2+2
  9277   00294A  CFDE F05E          	movff	postinc2,___flge@ff2+3
  9278   00294E  EC9C  F01C         	call	___flge	;wreg free
  9279   002952  B0D8               	btfsc	status,0,c
  9280   002954  EFAE  F014         	goto	u4021
  9281   002958  EFB0  F014         	goto	u4020
  9282   00295C                     u4021:
  9283   00295C  EFD7  F014         	goto	l3718
  9284   002960                     u4020:
  9285   002960  0100               	movlb	0	; () banked
  9286   002962  EE20 F010          	lfsr	2,16
  9287   002966  5171               	movf	Hue2Colour@cf& (0+255),w,b
  9288   002968  26D9               	addwf	fsr2l,f,c
  9289   00296A  5172               	movf	(Hue2Colour@cf+1)& (0+255),w,b
  9290   00296C  22DA               	addwfc	fsr2h,f,c
  9291   00296E  CFDE F057          	movff	postinc2,___flge@ff1
  9292   002972  CFDE F058          	movff	postinc2,___flge@ff1+1
  9293   002976  CFDE F059          	movff	postinc2,___flge@ff1+2
  9294   00297A  CFDE F05A          	movff	postinc2,___flge@ff1+3
  9295   00297E  0E00               	movlw	0
  9296   002980  6E5B               	movwf	___flge@ff2^0,c
  9297   002982  0E00               	movlw	0
  9298   002984  6E5C               	movwf	(___flge@ff2+1)^0,c
  9299   002986  0EE8               	movlw	232
  9300   002988  6E5D               	movwf	(___flge@ff2+2)^0,c
  9301   00298A  0E41               	movlw	65
  9302   00298C  6E5E               	movwf	(___flge@ff2+3)^0,c
  9303   00298E  EC9C  F01C         	call	___flge	;wreg free
  9304   002992  B0D8               	btfsc	status,0,c
  9305   002994  EFCE  F014         	goto	u4031
  9306   002998  EFD0  F014         	goto	u4030
  9307   00299C                     u4031:
  9308   00299C  EFD7  F014         	goto	l3718
  9309   0029A0                     u4030:
  9310   0029A0                     
  9311                           ;colorfunctions.c: 62:     {;colorfunctions.c: 63:         colourname = "Eggshell";
  9312   0029A0  0E44               	movlw	low STR_2
  9313   0029A2  0100               	movlb	0	; () banked
  9314   0029A4  6F73               	movwf	Hue2Colour@colourname& (0+255),b
  9315   0029A6  0E0E               	movlw	high STR_2
  9316   0029A8  6F74               	movwf	(Hue2Colour@colourname+1)& (0+255),b
  9317                           
  9318                           ;colorfunctions.c: 64:     }
  9319   0029AA  EF3A  F016         	goto	l67
  9320   0029AE                     l3718:
  9321   0029AE  0E00               	movlw	0
  9322   0029B0  6E57               	movwf	___flge@ff1^0,c
  9323   0029B2  0E00               	movlw	0
  9324   0029B4  6E58               	movwf	(___flge@ff1+1)^0,c
  9325   0029B6  0E70               	movlw	112
  9326   0029B8  6E59               	movwf	(___flge@ff1+2)^0,c
  9327   0029BA  0E41               	movlw	65
  9328   0029BC  6E5A               	movwf	(___flge@ff1+3)^0,c
  9329   0029BE  0100               	movlb	0	; () banked
  9330   0029C0  EE20 F010          	lfsr	2,16
  9331   0029C4  5171               	movf	Hue2Colour@cf& (0+255),w,b
  9332   0029C6  26D9               	addwf	fsr2l,f,c
  9333   0029C8  5172               	movf	(Hue2Colour@cf+1)& (0+255),w,b
  9334   0029CA  22DA               	addwfc	fsr2h,f,c
  9335   0029CC  CFDE F05B          	movff	postinc2,___flge@ff2
  9336   0029D0  CFDE F05C          	movff	postinc2,___flge@ff2+1
  9337   0029D4  CFDE F05D          	movff	postinc2,___flge@ff2+2
  9338   0029D8  CFDE F05E          	movff	postinc2,___flge@ff2+3
  9339   0029DC  EC9C  F01C         	call	___flge	;wreg free
  9340   0029E0  B0D8               	btfsc	status,0,c
  9341   0029E2  EFF5  F014         	goto	u4041
  9342   0029E6  EFF7  F014         	goto	u4040
  9343   0029EA                     u4041:
  9344   0029EA  EF1E  F015         	goto	l3724
  9345   0029EE                     u4040:
  9346   0029EE  0100               	movlb	0	; () banked
  9347   0029F0  EE20 F010          	lfsr	2,16
  9348   0029F4  5171               	movf	Hue2Colour@cf& (0+255),w,b
  9349   0029F6  26D9               	addwf	fsr2l,f,c
  9350   0029F8  5172               	movf	(Hue2Colour@cf+1)& (0+255),w,b
  9351   0029FA  22DA               	addwfc	fsr2h,f,c
  9352   0029FC  CFDE F057          	movff	postinc2,___flge@ff1
  9353   002A00  CFDE F058          	movff	postinc2,___flge@ff1+1
  9354   002A04  CFDE F059          	movff	postinc2,___flge@ff1+2
  9355   002A08  CFDE F05A          	movff	postinc2,___flge@ff1+3
  9356   002A0C  0E00               	movlw	0
  9357   002A0E  6E5B               	movwf	___flge@ff2^0,c
  9358   002A10  0E00               	movlw	0
  9359   002A12  6E5C               	movwf	(___flge@ff2+1)^0,c
  9360   002A14  0E98               	movlw	152
  9361   002A16  6E5D               	movwf	(___flge@ff2+2)^0,c
  9362   002A18  0E41               	movlw	65
  9363   002A1A  6E5E               	movwf	(___flge@ff2+3)^0,c
  9364   002A1C  EC9C  F01C         	call	___flge	;wreg free
  9365   002A20  B0D8               	btfsc	status,0,c
  9366   002A22  EF15  F015         	goto	u4051
  9367   002A26  EF17  F015         	goto	u4050
  9368   002A2A                     u4051:
  9369   002A2A  EF1E  F015         	goto	l3724
  9370   002A2E                     u4050:
  9371   002A2E                     
  9372                           ;colorfunctions.c: 66:     {;colorfunctions.c: 67:         colourname = "Pink";
  9373   002A2E  0E61               	movlw	low STR_3
  9374   002A30  0100               	movlb	0	; () banked
  9375   002A32  6F73               	movwf	Hue2Colour@colourname& (0+255),b
  9376   002A34  0E0E               	movlw	high STR_3
  9377   002A36  6F74               	movwf	(Hue2Colour@colourname+1)& (0+255),b
  9378                           
  9379                           ;colorfunctions.c: 68:     }
  9380   002A38  EF3A  F016         	goto	l67
  9381   002A3C                     l3724:
  9382   002A3C  0E00               	movlw	0
  9383   002A3E  6E57               	movwf	___flge@ff1^0,c
  9384   002A40  0E00               	movlw	0
  9385   002A42  6E58               	movwf	(___flge@ff1+1)^0,c
  9386   002A44  0EA8               	movlw	168
  9387   002A46  6E59               	movwf	(___flge@ff1+2)^0,c
  9388   002A48  0E41               	movlw	65
  9389   002A4A  6E5A               	movwf	(___flge@ff1+3)^0,c
  9390   002A4C  0100               	movlb	0	; () banked
  9391   002A4E  EE20 F010          	lfsr	2,16
  9392   002A52  5171               	movf	Hue2Colour@cf& (0+255),w,b
  9393   002A54  26D9               	addwf	fsr2l,f,c
  9394   002A56  5172               	movf	(Hue2Colour@cf+1)& (0+255),w,b
  9395   002A58  22DA               	addwfc	fsr2h,f,c
  9396   002A5A  CFDE F05B          	movff	postinc2,___flge@ff2
  9397   002A5E  CFDE F05C          	movff	postinc2,___flge@ff2+1
  9398   002A62  CFDE F05D          	movff	postinc2,___flge@ff2+2
  9399   002A66  CFDE F05E          	movff	postinc2,___flge@ff2+3
  9400   002A6A  EC9C  F01C         	call	___flge	;wreg free
  9401   002A6E  B0D8               	btfsc	status,0,c
  9402   002A70  EF3C  F015         	goto	u4061
  9403   002A74  EF3E  F015         	goto	u4060
  9404   002A78                     u4061:
  9405   002A78  EF65  F015         	goto	l3730
  9406   002A7C                     u4060:
  9407   002A7C  0100               	movlb	0	; () banked
  9408   002A7E  EE20 F010          	lfsr	2,16
  9409   002A82  5171               	movf	Hue2Colour@cf& (0+255),w,b
  9410   002A84  26D9               	addwf	fsr2l,f,c
  9411   002A86  5172               	movf	(Hue2Colour@cf+1)& (0+255),w,b
  9412   002A88  22DA               	addwfc	fsr2h,f,c
  9413   002A8A  CFDE F057          	movff	postinc2,___flge@ff1
  9414   002A8E  CFDE F058          	movff	postinc2,___flge@ff1+1
  9415   002A92  CFDE F059          	movff	postinc2,___flge@ff1+2
  9416   002A96  CFDE F05A          	movff	postinc2,___flge@ff1+3
  9417   002A9A  0E00               	movlw	0
  9418   002A9C  6E5B               	movwf	___flge@ff2^0,c
  9419   002A9E  0E00               	movlw	0
  9420   002AA0  6E5C               	movwf	(___flge@ff2+1)^0,c
  9421   002AA2  0EC8               	movlw	200
  9422   002AA4  6E5D               	movwf	(___flge@ff2+2)^0,c
  9423   002AA6  0E41               	movlw	65
  9424   002AA8  6E5E               	movwf	(___flge@ff2+3)^0,c
  9425   002AAA  EC9C  F01C         	call	___flge	;wreg free
  9426   002AAE  B0D8               	btfsc	status,0,c
  9427   002AB0  EF5C  F015         	goto	u4071
  9428   002AB4  EF5E  F015         	goto	u4070
  9429   002AB8                     u4071:
  9430   002AB8  EF65  F015         	goto	l3730
  9431   002ABC                     u4070:
  9432   002ABC                     
  9433                           ;colorfunctions.c: 70:     {;colorfunctions.c: 71:         colourname = "Yellow";
  9434   002ABC  0E54               	movlw	low STR_4
  9435   002ABE  0100               	movlb	0	; () banked
  9436   002AC0  6F73               	movwf	Hue2Colour@colourname& (0+255),b
  9437   002AC2  0E0E               	movlw	high STR_4
  9438   002AC4  6F74               	movwf	(Hue2Colour@colourname+1)& (0+255),b
  9439                           
  9440                           ;colorfunctions.c: 72:     }
  9441   002AC6  EF3A  F016         	goto	l67
  9442   002ACA                     l3730:
  9443   002ACA  0E00               	movlw	0
  9444   002ACC  6E57               	movwf	___flge@ff1^0,c
  9445   002ACE  0E00               	movlw	0
  9446   002AD0  6E58               	movwf	(___flge@ff1+1)^0,c
  9447   002AD2  0EE0               	movlw	224
  9448   002AD4  6E59               	movwf	(___flge@ff1+2)^0,c
  9449   002AD6  0E40               	movlw	64
  9450   002AD8  6E5A               	movwf	(___flge@ff1+3)^0,c
  9451   002ADA  0100               	movlb	0	; () banked
  9452   002ADC  EE20 F010          	lfsr	2,16
  9453   002AE0  5171               	movf	Hue2Colour@cf& (0+255),w,b
  9454   002AE2  26D9               	addwf	fsr2l,f,c
  9455   002AE4  5172               	movf	(Hue2Colour@cf+1)& (0+255),w,b
  9456   002AE6  22DA               	addwfc	fsr2h,f,c
  9457   002AE8  CFDE F05B          	movff	postinc2,___flge@ff2
  9458   002AEC  CFDE F05C          	movff	postinc2,___flge@ff2+1
  9459   002AF0  CFDE F05D          	movff	postinc2,___flge@ff2+2
  9460   002AF4  CFDE F05E          	movff	postinc2,___flge@ff2+3
  9461   002AF8  EC9C  F01C         	call	___flge	;wreg free
  9462   002AFC  B0D8               	btfsc	status,0,c
  9463   002AFE  EF83  F015         	goto	u4081
  9464   002B02  EF85  F015         	goto	u4080
  9465   002B06                     u4081:
  9466   002B06  EFAC  F015         	goto	l3736
  9467   002B0A                     u4080:
  9468   002B0A  0100               	movlb	0	; () banked
  9469   002B0C  EE20 F010          	lfsr	2,16
  9470   002B10  5171               	movf	Hue2Colour@cf& (0+255),w,b
  9471   002B12  26D9               	addwf	fsr2l,f,c
  9472   002B14  5172               	movf	(Hue2Colour@cf+1)& (0+255),w,b
  9473   002B16  22DA               	addwfc	fsr2h,f,c
  9474   002B18  CFDE F057          	movff	postinc2,___flge@ff1
  9475   002B1C  CFDE F058          	movff	postinc2,___flge@ff1+1
  9476   002B20  CFDE F059          	movff	postinc2,___flge@ff1+2
  9477   002B24  CFDE F05A          	movff	postinc2,___flge@ff1+3
  9478   002B28  0E00               	movlw	0
  9479   002B2A  6E5B               	movwf	___flge@ff2^0,c
  9480   002B2C  0E00               	movlw	0
  9481   002B2E  6E5C               	movwf	(___flge@ff2+1)^0,c
  9482   002B30  0E10               	movlw	16
  9483   002B32  6E5D               	movwf	(___flge@ff2+2)^0,c
  9484   002B34  0E41               	movlw	65
  9485   002B36  6E5E               	movwf	(___flge@ff2+3)^0,c
  9486   002B38  EC9C  F01C         	call	___flge	;wreg free
  9487   002B3C  B0D8               	btfsc	status,0,c
  9488   002B3E  EFA3  F015         	goto	u4091
  9489   002B42  EFA5  F015         	goto	u4090
  9490   002B46                     u4091:
  9491   002B46  EFAC  F015         	goto	l3736
  9492   002B4A                     u4090:
  9493   002B4A                     
  9494                           ;colorfunctions.c: 74:     {;colorfunctions.c: 75:         colourname = "Orange";
  9495   002B4A  0E4D               	movlw	low STR_5
  9496   002B4C  0100               	movlb	0	; () banked
  9497   002B4E  6F73               	movwf	Hue2Colour@colourname& (0+255),b
  9498   002B50  0E0E               	movlw	high STR_5
  9499   002B52  6F74               	movwf	(Hue2Colour@colourname+1)& (0+255),b
  9500                           
  9501                           ;colorfunctions.c: 76:     }
  9502   002B54  EF3A  F016         	goto	l67
  9503   002B58                     l3736:
  9504   002B58  0E00               	movlw	0
  9505   002B5A  6E57               	movwf	___flge@ff1^0,c
  9506   002B5C  0E00               	movlw	0
  9507   002B5E  6E58               	movwf	(___flge@ff1+1)^0,c
  9508   002B60  0EAA               	movlw	170
  9509   002B62  6E59               	movwf	(___flge@ff1+2)^0,c
  9510   002B64  0E42               	movlw	66
  9511   002B66  6E5A               	movwf	(___flge@ff1+3)^0,c
  9512   002B68  0100               	movlb	0	; () banked
  9513   002B6A  EE20 F010          	lfsr	2,16
  9514   002B6E  5171               	movf	Hue2Colour@cf& (0+255),w,b
  9515   002B70  26D9               	addwf	fsr2l,f,c
  9516   002B72  5172               	movf	(Hue2Colour@cf+1)& (0+255),w,b
  9517   002B74  22DA               	addwfc	fsr2h,f,c
  9518   002B76  CFDE F05B          	movff	postinc2,___flge@ff2
  9519   002B7A  CFDE F05C          	movff	postinc2,___flge@ff2+1
  9520   002B7E  CFDE F05D          	movff	postinc2,___flge@ff2+2
  9521   002B82  CFDE F05E          	movff	postinc2,___flge@ff2+3
  9522   002B86  EC9C  F01C         	call	___flge	;wreg free
  9523   002B8A  B0D8               	btfsc	status,0,c
  9524   002B8C  EFCA  F015         	goto	u4101
  9525   002B90  EFCC  F015         	goto	u4100
  9526   002B94                     u4101:
  9527   002B94  EFF3  F015         	goto	l3742
  9528   002B98                     u4100:
  9529   002B98  0100               	movlb	0	; () banked
  9530   002B9A  EE20 F010          	lfsr	2,16
  9531   002B9E  5171               	movf	Hue2Colour@cf& (0+255),w,b
  9532   002BA0  26D9               	addwf	fsr2l,f,c
  9533   002BA2  5172               	movf	(Hue2Colour@cf+1)& (0+255),w,b
  9534   002BA4  22DA               	addwfc	fsr2h,f,c
  9535   002BA6  CFDE F057          	movff	postinc2,___flge@ff1
  9536   002BAA  CFDE F058          	movff	postinc2,___flge@ff1+1
  9537   002BAE  CFDE F059          	movff	postinc2,___flge@ff1+2
  9538   002BB2  CFDE F05A          	movff	postinc2,___flge@ff1+3
  9539   002BB6  0E00               	movlw	0
  9540   002BB8  6E5B               	movwf	___flge@ff2^0,c
  9541   002BBA  0E00               	movlw	0
  9542   002BBC  6E5C               	movwf	(___flge@ff2+1)^0,c
  9543   002BBE  0EBC               	movlw	188
  9544   002BC0  6E5D               	movwf	(___flge@ff2+2)^0,c
  9545   002BC2  0E42               	movlw	66
  9546   002BC4  6E5E               	movwf	(___flge@ff2+3)^0,c
  9547   002BC6  EC9C  F01C         	call	___flge	;wreg free
  9548   002BCA  B0D8               	btfsc	status,0,c
  9549   002BCC  EFEA  F015         	goto	u4111
  9550   002BD0  EFEC  F015         	goto	u4110
  9551   002BD4                     u4111:
  9552   002BD4  EFF3  F015         	goto	l3742
  9553   002BD8                     u4110:
  9554   002BD8                     
  9555                           ;colorfunctions.c: 78:     {;colorfunctions.c: 79:         colourname = "Light Blue";
  9556   002BD8  0E2F               	movlw	low STR_6
  9557   002BDA  0100               	movlb	0	; () banked
  9558   002BDC  6F73               	movwf	Hue2Colour@colourname& (0+255),b
  9559   002BDE  0E0E               	movlw	high STR_6
  9560   002BE0  6F74               	movwf	(Hue2Colour@colourname+1)& (0+255),b
  9561                           
  9562                           ;colorfunctions.c: 80:     }
  9563   002BE2  EF3A  F016         	goto	l67
  9564   002BE6                     l3742:
  9565   002BE6  0E00               	movlw	0
  9566   002BE8  6E57               	movwf	___flge@ff1^0,c
  9567   002BEA  0E00               	movlw	0
  9568   002BEC  6E58               	movwf	(___flge@ff1+1)^0,c
  9569   002BEE  0E11               	movlw	17
  9570   002BF0  6E59               	movwf	(___flge@ff1+2)^0,c
  9571   002BF2  0E43               	movlw	67
  9572   002BF4  6E5A               	movwf	(___flge@ff1+3)^0,c
  9573   002BF6  0100               	movlb	0	; () banked
  9574   002BF8  EE20 F010          	lfsr	2,16
  9575   002BFC  5171               	movf	Hue2Colour@cf& (0+255),w,b
  9576   002BFE  26D9               	addwf	fsr2l,f,c
  9577   002C00  5172               	movf	(Hue2Colour@cf+1)& (0+255),w,b
  9578   002C02  22DA               	addwfc	fsr2h,f,c
  9579   002C04  CFDE F05B          	movff	postinc2,___flge@ff2
  9580   002C08  CFDE F05C          	movff	postinc2,___flge@ff2+1
  9581   002C0C  CFDE F05D          	movff	postinc2,___flge@ff2+2
  9582   002C10  CFDE F05E          	movff	postinc2,___flge@ff2+3
  9583   002C14  EC9C  F01C         	call	___flge	;wreg free
  9584   002C18  B0D8               	btfsc	status,0,c
  9585   002C1A  EF11  F016         	goto	u4121
  9586   002C1E  EF13  F016         	goto	u4120
  9587   002C22                     u4121:
  9588   002C22  EF3A  F016         	goto	l73
  9589   002C26                     u4120:
  9590   002C26  0100               	movlb	0	; () banked
  9591   002C28  EE20 F010          	lfsr	2,16
  9592   002C2C  5171               	movf	Hue2Colour@cf& (0+255),w,b
  9593   002C2E  26D9               	addwf	fsr2l,f,c
  9594   002C30  5172               	movf	(Hue2Colour@cf+1)& (0+255),w,b
  9595   002C32  22DA               	addwfc	fsr2h,f,c
  9596   002C34  CFDE F057          	movff	postinc2,___flge@ff1
  9597   002C38  CFDE F058          	movff	postinc2,___flge@ff1+1
  9598   002C3C  CFDE F059          	movff	postinc2,___flge@ff1+2
  9599   002C40  CFDE F05A          	movff	postinc2,___flge@ff1+3
  9600   002C44  0E00               	movlw	0
  9601   002C46  6E5B               	movwf	___flge@ff2^0,c
  9602   002C48  0E00               	movlw	0
  9603   002C4A  6E5C               	movwf	(___flge@ff2+1)^0,c
  9604   002C4C  0E24               	movlw	36
  9605   002C4E  6E5D               	movwf	(___flge@ff2+2)^0,c
  9606   002C50  0E43               	movlw	67
  9607   002C52  6E5E               	movwf	(___flge@ff2+3)^0,c
  9608   002C54  EC9C  F01C         	call	___flge	;wreg free
  9609   002C58  B0D8               	btfsc	status,0,c
  9610   002C5A  EF31  F016         	goto	u4131
  9611   002C5E  EF33  F016         	goto	u4130
  9612   002C62                     u4131:
  9613   002C62  EF3A  F016         	goto	l73
  9614   002C66                     u4130:
  9615   002C66                     
  9616                           ;colorfunctions.c: 82:     {;colorfunctions.c: 83:         colourname = "Dark Blue";
  9617   002C66  0E3A               	movlw	low STR_7
  9618   002C68  0100               	movlb	0	; () banked
  9619   002C6A  6F73               	movwf	Hue2Colour@colourname& (0+255),b
  9620   002C6C  0E0E               	movlw	high STR_7
  9621   002C6E  6F74               	movwf	(Hue2Colour@colourname+1)& (0+255),b
  9622   002C70  EF3A  F016         	goto	l67
  9623   002C74                     l73:
  9624   002C74                     l67:
  9625                           
  9626                           ;colorfunctions.c: 86:     return colourname;
  9627   002C74  C073  F071         	movff	Hue2Colour@colourname,?_Hue2Colour
  9628   002C78  C074  F072         	movff	Hue2Colour@colourname+1,?_Hue2Colour+1
  9629   002C7C  0012               	return		;funcret
  9630   002C7E                     __end_of_Hue2Colour:
  9631                           	callstack 0
  9632                           
  9633 ;; *************** function ___flge *****************
  9634 ;; Defined at:
  9635 ;;		line 4 in file "C:\Program Files\Microchip\xc8\v2.40\pic\sources\c99\common\flge.c"
  9636 ;; Parameters:    Size  Location     Type
  9637 ;;  ff1             4   86[COMRAM] PTR unsigned char 
  9638 ;;  ff2             4   90[COMRAM] PTR unsigned char 
  9639 ;; Auto vars:     Size  Location     Type
  9640 ;;		None
  9641 ;; Return value:  Size  Location     Type
  9642 ;;		None               void
  9643 ;; Registers used:
  9644 ;;		wreg, status,2, status,0
  9645 ;; Tracked objects:
  9646 ;;		On entry : 0/0
  9647 ;;		On exit  : 0/0
  9648 ;;		Unchanged: 0/0
  9649 ;; Data sizes:     COMRAM   BANK0   BANK1   BANK2   BANK3   BANK4   BANK5   BANK6   BANK7   BANK8   BANK9  BANK10  BANK1
      +1  BANK12  BANK13
  9650 ;;      Params:         8       0       0       0       0       0       0       0       0       0       0       0       
      +0       0       0
  9651 ;;      Locals:         0       0       0       0       0       0       0       0       0       0       0       0       
      +0       0       0
  9652 ;;      Temps:          0       4       0       0       0       0       0       0       0       0       0       0       
      +0       0       0
  9653 ;;      Totals:         8       4       0       0       0       0       0       0       0       0       0       0       
      +0       0       0
  9654 ;;Total ram usage:       12 bytes
  9655 ;; Hardware stack levels used: 1
  9656 ;; This function calls:
  9657 ;;		Nothing
  9658 ;; This function is called by:
  9659 ;;		_RGB2Hue
  9660 ;;		_Hue2Colour
  9661 ;;		_efgtoa
  9662 ;; This function uses a non-reentrant model
  9663 ;;
  9664                           
  9665                           	psect	text45
  9666   003938                     __ptext45:
  9667                           	callstack 0
  9668   003938                     ___flge:
  9669                           	callstack 29
  9670   003938  0E00               	movlw	0
  9671   00393A  1457               	andwf	___flge@ff1^0,w,c
  9672   00393C  0100               	movlb	0	; () banked
  9673   00393E  6F6D               	movwf	??___flge& (0+255),b
  9674   003940  0E00               	movlw	0
  9675   003942  1458               	andwf	(___flge@ff1+1)^0,w,c
  9676   003944  6F6E               	movwf	(??___flge+1)& (0+255),b
  9677   003946  0E80               	movlw	128
  9678   003948  1459               	andwf	(___flge@ff1+2)^0,w,c
  9679   00394A  6F6F               	movwf	(??___flge+2)& (0+255),b
  9680   00394C  0E7F               	movlw	127
  9681   00394E  145A               	andwf	(___flge@ff1+3)^0,w,c
  9682   003950  6F70               	movwf	(??___flge+3)& (0+255),b
  9683   003952  516D               	movf	??___flge& (0+255),w,b
  9684   003954  116E               	iorwf	(??___flge+1)& (0+255),w,b
  9685   003956  116F               	iorwf	(??___flge+2)& (0+255),w,b
  9686   003958  1170               	iorwf	(??___flge+3)& (0+255),w,b
  9687   00395A  A4D8               	btfss	status,2,c
  9688   00395C  EFB2  F01C         	goto	u3081
  9689   003960  EFB4  F01C         	goto	u3080
  9690   003964                     u3081:
  9691   003964  EFBC  F01C         	goto	l3094
  9692   003968                     u3080:
  9693   003968                     
  9694                           ; BSR set to: 0
  9695   003968  0E00               	movlw	0
  9696   00396A  6E57               	movwf	___flge@ff1^0,c
  9697   00396C  0E00               	movlw	0
  9698   00396E  6E58               	movwf	(___flge@ff1+1)^0,c
  9699   003970  0E00               	movlw	0
  9700   003972  6E59               	movwf	(___flge@ff1+2)^0,c
  9701   003974  0E00               	movlw	0
  9702   003976  6E5A               	movwf	(___flge@ff1+3)^0,c
  9703   003978                     l3094:
  9704                           
  9705                           ; BSR set to: 0
  9706   003978  0E00               	movlw	0
  9707   00397A  145B               	andwf	___flge@ff2^0,w,c
  9708   00397C  6F6D               	movwf	??___flge& (0+255),b
  9709   00397E  0E00               	movlw	0
  9710   003980  145C               	andwf	(___flge@ff2+1)^0,w,c
  9711   003982  6F6E               	movwf	(??___flge+1)& (0+255),b
  9712   003984  0E80               	movlw	128
  9713   003986  145D               	andwf	(___flge@ff2+2)^0,w,c
  9714   003988  6F6F               	movwf	(??___flge+2)& (0+255),b
  9715   00398A  0E7F               	movlw	127
  9716   00398C  145E               	andwf	(___flge@ff2+3)^0,w,c
  9717   00398E  6F70               	movwf	(??___flge+3)& (0+255),b
  9718   003990  516D               	movf	??___flge& (0+255),w,b
  9719   003992  116E               	iorwf	(??___flge+1)& (0+255),w,b
  9720   003994  116F               	iorwf	(??___flge+2)& (0+255),w,b
  9721   003996  1170               	iorwf	(??___flge+3)& (0+255),w,b
  9722   003998  A4D8               	btfss	status,2,c
  9723   00399A  EFD1  F01C         	goto	u3091
  9724   00399E  EFD3  F01C         	goto	u3090
  9725   0039A2                     u3091:
  9726   0039A2  EFDB  F01C         	goto	l3098
  9727   0039A6                     u3090:
  9728   0039A6                     
  9729                           ; BSR set to: 0
  9730   0039A6  0E00               	movlw	0
  9731   0039A8  6E5B               	movwf	___flge@ff2^0,c
  9732   0039AA  0E00               	movlw	0
  9733   0039AC  6E5C               	movwf	(___flge@ff2+1)^0,c
  9734   0039AE  0E00               	movlw	0
  9735   0039B0  6E5D               	movwf	(___flge@ff2+2)^0,c
  9736   0039B2  0E00               	movlw	0
  9737   0039B4  6E5E               	movwf	(___flge@ff2+3)^0,c
  9738   0039B6                     l3098:
  9739                           
  9740                           ; BSR set to: 0
  9741   0039B6  AE5A               	btfss	(___flge@ff1+3)^0,7,c
  9742   0039B8  EFE0  F01C         	goto	u3101
  9743   0039BC  EFE2  F01C         	goto	u3100
  9744   0039C0                     u3101:
  9745   0039C0  EFEB  F01C         	goto	l3102
  9746   0039C4                     u3100:
  9747   0039C4                     
  9748                           ; BSR set to: 0
  9749   0039C4  6C57               	negf	___flge@ff1^0,c
  9750   0039C6  1E58               	comf	(___flge@ff1+1)^0,f,c
  9751   0039C8  B0D8               	btfsc	status,0,c
  9752   0039CA  2A58               	incf	(___flge@ff1+1)^0,f,c
  9753   0039CC  1E59               	comf	(___flge@ff1+2)^0,f,c
  9754   0039CE  B0D8               	btfsc	status,0,c
  9755   0039D0  2A59               	incf	(___flge@ff1+2)^0,f,c
  9756   0039D2  0E80               	movlw	128
  9757   0039D4  565A               	subfwb	(___flge@ff1+3)^0,f,c
  9758   0039D6                     l3102:
  9759                           
  9760                           ; BSR set to: 0
  9761   0039D6  AE5E               	btfss	(___flge@ff2+3)^0,7,c
  9762   0039D8  EFF0  F01C         	goto	u3111
  9763   0039DC  EFF2  F01C         	goto	u3110
  9764   0039E0                     u3111:
  9765   0039E0  EFFB  F01C         	goto	l491
  9766   0039E4                     u3110:
  9767   0039E4                     
  9768                           ; BSR set to: 0
  9769   0039E4  6C5B               	negf	___flge@ff2^0,c
  9770   0039E6  1E5C               	comf	(___flge@ff2+1)^0,f,c
  9771   0039E8  B0D8               	btfsc	status,0,c
  9772   0039EA  2A5C               	incf	(___flge@ff2+1)^0,f,c
  9773   0039EC  1E5D               	comf	(___flge@ff2+2)^0,f,c
  9774   0039EE  B0D8               	btfsc	status,0,c
  9775   0039F0  2A5D               	incf	(___flge@ff2+2)^0,f,c
  9776   0039F2  0E80               	movlw	128
  9777   0039F4  565E               	subfwb	(___flge@ff2+3)^0,f,c
  9778   0039F6                     l491:
  9779                           
  9780                           ; BSR set to: 0
  9781   0039F6  0E00               	movlw	0
  9782   0039F8  1A57               	xorwf	___flge@ff1^0,f,c
  9783   0039FA  0E00               	movlw	0
  9784   0039FC  1A58               	xorwf	(___flge@ff1+1)^0,f,c
  9785   0039FE  0E00               	movlw	0
  9786   003A00  1A59               	xorwf	(___flge@ff1+2)^0,f,c
  9787   003A02  0E80               	movlw	128
  9788   003A04  1A5A               	xorwf	(___flge@ff1+3)^0,f,c
  9789   003A06  0E00               	movlw	0
  9790   003A08  1A5B               	xorwf	___flge@ff2^0,f,c
  9791   003A0A  0E00               	movlw	0
  9792   003A0C  1A5C               	xorwf	(___flge@ff2+1)^0,f,c
  9793   003A0E  0E00               	movlw	0
  9794   003A10  1A5D               	xorwf	(___flge@ff2+2)^0,f,c
  9795   003A12  0E80               	movlw	128
  9796   003A14  1A5E               	xorwf	(___flge@ff2+3)^0,f,c
  9797   003A16  505B               	movf	___flge@ff2^0,w,c
  9798   003A18  5C57               	subwf	___flge@ff1^0,w,c
  9799   003A1A  505C               	movf	(___flge@ff2+1)^0,w,c
  9800   003A1C  5858               	subwfb	(___flge@ff1+1)^0,w,c
  9801   003A1E  505D               	movf	(___flge@ff2+2)^0,w,c
  9802   003A20  5859               	subwfb	(___flge@ff1+2)^0,w,c
  9803   003A22  505E               	movf	(___flge@ff2+3)^0,w,c
  9804   003A24  585A               	subwfb	(___flge@ff1+3)^0,w,c
  9805   003A26  B0D8               	btfsc	status,0,c
  9806   003A28  EF18  F01D         	goto	u3121
  9807   003A2C  EF1A  F01D         	goto	u3120
  9808   003A30                     u3121:
  9809   003A30  EF1D  F01D         	goto	l3108
  9810   003A34                     u3120:
  9811   003A34                     
  9812                           ; BSR set to: 0
  9813   003A34  90D8               	bcf	status,0,c
  9814   003A36  EF1E  F01D         	goto	l496
  9815   003A3A                     l3108:
  9816                           
  9817                           ; BSR set to: 0
  9818   003A3A  80D8               	bsf	status,0,c
  9819   003A3C                     l496:
  9820                           
  9821                           ; BSR set to: 0
  9822   003A3C  0012               	return		;funcret
  9823   003A3E                     __end_of___flge:
  9824                           	callstack 0
  9825                           
  9826                           	psect	param0
  9827   000000                     
  9828                           	psect	idloc
  9829                           
  9830                           ;Config register IDLOC0 @ 0x200000
  9831                           ;	unspecified, using default values
  9832   200000                     	org	2097152
  9833   200000  0FFF               	dw	4095
  9834                           
  9835                           ;Config register IDLOC1 @ 0x200002
  9836                           ;	unspecified, using default values
  9837   200002                     	org	2097154
  9838   200002  0FFF               	dw	4095
  9839                           
  9840                           ;Config register IDLOC2 @ 0x200004
  9841                           ;	unspecified, using default values
  9842   200004                     	org	2097156
  9843   200004  0FFF               	dw	4095
  9844                           
  9845                           ;Config register IDLOC3 @ 0x200006
  9846                           ;	unspecified, using default values
  9847   200006                     	org	2097158
  9848   200006  0FFF               	dw	4095
  9849                           
  9850                           ;Config register IDLOC4 @ 0x200008
  9851                           ;	unspecified, using default values
  9852   200008                     	org	2097160
  9853   200008  0FFF               	dw	4095
  9854                           
  9855                           ;Config register IDLOC5 @ 0x20000A
  9856                           ;	unspecified, using default values
  9857   20000A                     	org	2097162
  9858   20000A  0FFF               	dw	4095
  9859                           
  9860                           ;Config register IDLOC6 @ 0x20000C
  9861                           ;	unspecified, using default values
  9862   20000C                     	org	2097164
  9863   20000C  0FFF               	dw	4095
  9864                           
  9865                           ;Config register IDLOC7 @ 0x20000E
  9866                           ;	unspecified, using default values
  9867   20000E                     	org	2097166
  9868   20000E  0FFF               	dw	4095
  9869                           
  9870                           	psect	config
  9871                           
  9872                           ;Config register CONFIG1L @ 0x300000
  9873                           ;	External Oscillator mode Selection bits
  9874                           ;	FEXTOSC = HS, HS (crystal oscillator) above 8 MHz; PFM set to high power
  9875                           ;	Power-up default value for COSC bits
  9876                           ;	RSTOSC = EXTOSC_4PLL, EXTOSC with 4x PLL, with EXTOSC operating per FEXTOSC bits
  9877   300000                     	org	3145728
  9878   300000  AA                 	db	170
  9879                           
  9880                           ;Config register CONFIG1H @ 0x300001
  9881                           ;	unspecified, using default values
  9882                           ;	Clock Out Enable bit
  9883                           ;	CLKOUTEN = 0x1, unprogrammed default
  9884                           ;	Clock Switch Enable bit
  9885                           ;	CSWEN = 0x1, unprogrammed default
  9886                           ;	Fail-Safe Clock Monitor Enable bit
  9887                           ;	FCMEN = 0x1, unprogrammed default
  9888   300001                     	org	3145729
  9889   300001  FF                 	db	255
  9890                           
  9891                           ;Config register CONFIG2L @ 0x300002
  9892                           ;	unspecified, using default values
  9893                           ;	Master Clear Enable bit
  9894                           ;	MCLRE = 0x1, unprogrammed default
  9895                           ;	Power-up Timer Enable bit
  9896                           ;	PWRTE = 0x1, unprogrammed default
  9897                           ;	Low-power BOR enable bit
  9898                           ;	LPBOREN = 0x1, unprogrammed default
  9899                           ;	Brown-out Reset Enable bits
  9900                           ;	BOREN = 0x3, unprogrammed default
  9901   300002                     	org	3145730
  9902   300002  FF                 	db	255
  9903                           
  9904                           ;Config register CONFIG2H @ 0x300003
  9905                           ;	unspecified, using default values
  9906                           ;	Brown Out Reset Voltage selection bits
  9907                           ;	BORV = 0x3, unprogrammed default
  9908                           ;	ZCD Disable bit
  9909                           ;	ZCD = 0x1, unprogrammed default
  9910                           ;	PPSLOCK bit One-Way Set Enable bit
  9911                           ;	PPS1WAY = 0x1, unprogrammed default
  9912                           ;	Stack Full/Underflow Reset Enable bit
  9913                           ;	STVREN = 0x1, unprogrammed default
  9914                           ;	Debugger Enable bit
  9915                           ;	DEBUG = 0x1, unprogrammed default
  9916                           ;	Extended Instruction Set Enable bit
  9917                           ;	XINST = 0x1, unprogrammed default
  9918   300003                     	org	3145731
  9919   300003  FF                 	db	255
  9920                           
  9921                           ;Config register CONFIG3L @ 0x300004
  9922                           ;	WDT Period Select bits
  9923                           ;	WDTCPS = WDTCPS_31, Divider ratio 1:65536; software control of WDTPS
  9924                           ;	WDT operating mode
  9925                           ;	WDTE = OFF, WDT Disabled
  9926   300004                     	org	3145732
  9927   300004  9F                 	db	159
  9928                           
  9929                           ;Config register CONFIG3H @ 0x300005
  9930                           ;	unspecified, using default values
  9931                           ;	WDT Window Select bits
  9932                           ;	WDTCWS = 0x7, unprogrammed default
  9933                           ;	WDT input clock selector
  9934                           ;	WDTCCS = 0x7, unprogrammed default
  9935   300005                     	org	3145733
  9936   300005  FF                 	db	255
  9937                           
  9938                           ;Config register CONFIG4L @ 0x300006
  9939                           ;	unspecified, using default values
  9940                           ;	Write Protection Block 0
  9941                           ;	WRT0 = 0x1, unprogrammed default
  9942                           ;	Write Protection Block 1
  9943                           ;	WRT1 = 0x1, unprogrammed default
  9944                           ;	Write Protection Block 2
  9945                           ;	WRT2 = 0x1, unprogrammed default
  9946                           ;	Write Protection Block 3
  9947                           ;	WRT3 = 0x1, unprogrammed default
  9948                           ;	Write Protection Block 3
  9949                           ;	WRT4 = 0x1, unprogrammed default
  9950                           ;	Write Protection Block 3
  9951                           ;	WRT5 = 0x1, unprogrammed default
  9952                           ;	Write Protection Block 3
  9953                           ;	WRT6 = 0x1, unprogrammed default
  9954                           ;	Write Protection Block 3
  9955                           ;	WRT7 = 0x1, unprogrammed default
  9956   300006                     	org	3145734
  9957   300006  FF                 	db	255
  9958                           
  9959                           ;Config register CONFIG4H @ 0x300007
  9960                           ;	unspecified, using default values
  9961                           ;	Configuration Register Write Protection bit
  9962                           ;	WRTC = 0x1, unprogrammed default
  9963                           ;	Boot Block Write Protection bit
  9964                           ;	WRTB = 0x1, unprogrammed default
  9965                           ;	Data EEPROM Write Protection bit
  9966                           ;	WRTD = 0x1, unprogrammed default
  9967                           ;	Scanner Enable bit
  9968                           ;	SCANE = 0x1, unprogrammed default
  9969                           ;	Low Voltage Programming Enable bit
  9970                           ;	LVP = 0x1, unprogrammed default
  9971   300007                     	org	3145735
  9972   300007  FF                 	db	255
  9973                           
  9974                           ;Config register CONFIG5L @ 0x300008
  9975                           ;	unspecified, using default values
  9976                           ;	UserNVM Program Memory Code Protection bit
  9977                           ;	CP = 0x1, unprogrammed default
  9978                           ;	DataNVM Memory Code Protection bit
  9979                           ;	CPD = 0x1, unprogrammed default
  9980   300008                     	org	3145736
  9981   300008  FF                 	db	255
  9982                           
  9983                           ;Config register CONFIG5H @ 0x300009
  9984                           ;	unspecified, using default values
  9985   300009                     	org	3145737
  9986   300009  FF                 	db	255
  9987                           
  9988                           ;Config register CONFIG6L @ 0x30000A
  9989                           ;	unspecified, using default values
  9990                           ;	Table Read Protection Block 0
  9991                           ;	EBTR0 = 0x1, unprogrammed default
  9992                           ;	Table Read Protection Block 1
  9993                           ;	EBTR1 = 0x1, unprogrammed default
  9994                           ;	Table Read Protection Block 2
  9995                           ;	EBTR2 = 0x1, unprogrammed default
  9996                           ;	Table Read Protection Block 3
  9997                           ;	EBTR3 = 0x1, unprogrammed default
  9998                           ;	Table Read Protection Block 4
  9999                           ;	EBTR4 = 0x1, unprogrammed default
 10000                           ;	Table Read Protection Block 5
 10001                           ;	EBTR5 = 0x1, unprogrammed default
 10002                           ;	Table Read Protection Block 6
 10003                           ;	EBTR6 = 0x1, unprogrammed default
 10004                           ;	Table Read Protection Block 7
 10005                           ;	EBTR7 = 0x1, unprogrammed default
 10006   30000A                     	org	3145738
 10007   30000A  FF                 	db	255
 10008                           
 10009                           ;Config register CONFIG6H @ 0x30000B
 10010                           ;	unspecified, using default values
 10011                           ;	Boot Block Table Read Protection bit
 10012                           ;	EBTRB = 0x1, unprogrammed default
 10013   30000B                     	org	3145739
 10014   30000B  FF                 	db	255
 10015                           tosu	equ	0xFFF
 10016                           tosh	equ	0xFFE
 10017                           tosl	equ	0xFFD
 10018                           stkptr	equ	0xFFC
 10019                           pclatu	equ	0xFFB
 10020                           pclath	equ	0xFFA
 10021                           pcl	equ	0xFF9
 10022                           tblptru	equ	0xFF8
 10023                           tblptrh	equ	0xFF7
 10024                           tblptrl	equ	0xFF6
 10025                           tablat	equ	0xFF5
 10026                           prodh	equ	0xFF4
 10027                           prodl	equ	0xFF3
 10028                           indf0	equ	0xFEF
 10029                           postinc0	equ	0xFEE
 10030                           postdec0	equ	0xFED
 10031                           preinc0	equ	0xFEC
 10032                           plusw0	equ	0xFEB
 10033                           fsr0h	equ	0xFEA
 10034                           fsr0l	equ	0xFE9
 10035                           wreg	equ	0xFE8
 10036                           indf1	equ	0xFE7
 10037                           postinc1	equ	0xFE6
 10038                           postdec1	equ	0xFE5
 10039                           preinc1	equ	0xFE4
 10040                           plusw1	equ	0xFE3
 10041                           fsr1h	equ	0xFE2
 10042                           fsr1l	equ	0xFE1
 10043                           bsr	equ	0xFE0
 10044                           indf2	equ	0xFDF
 10045                           postinc2	equ	0xFDE
 10046                           postdec2	equ	0xFDD
 10047                           preinc2	equ	0xFDC
 10048                           plusw2	equ	0xFDB
 10049                           fsr2h	equ	0xFDA
 10050                           fsr2l	equ	0xFD9
 10051                           status	equ	0xFD8

Data Sizes:
    Strings     117
    Constant    0
    Data        23
    BSS         113
    Persistent  0
    Stack       0

Auto Spaces:
    Space          Size  Autos    Used
    COMRAM           95     94      94
    BANK0           160    142     155
    BANK1           256     80     203
    BANK2           256      0       0
    BANK3           256      0       0
    BANK4           256      0       0
    BANK5           256      0       0
    BANK6           256      0       0
    BANK7           256      0       0
    BANK8           256      0       0
    BANK9           256      0       0
    BANK10          256      0       0
    BANK11          256      0       0
    BANK12          256      0       0
    BANK13          234      0       0

Pointer List with Targets:

    strncmp@_r	PTR const unsigned char  size(2) Largest target is 4
		 -> STR_42(CODE[4]), 

    strncmp@r	PTR const unsigned char  size(2) Largest target is 4
		 -> STR_42(CODE[4]), 

    strncmp@_l	PTR const unsigned char  size(2) Largest target is 46
		 -> STR_33(CODE[46]), 

    strncmp@l	PTR const unsigned char  size(2) Largest target is 46
		 -> STR_33(CODE[46]), 

    strlen@s	PTR const unsigned char  size(2) Largest target is 7
		 -> colorf.Bf(BANK1[4]), colorf.Gf(BANK1[4]), colorf.Rf(BANK1[4]), stoa@nuls(COMRAM[7]), 
		 -> ?_sprintf(BANK0[2]), colorf(BANK1[20]), STR_16(CODE[10]), STR_15(CODE[11]), 
		 -> STR_14(CODE[7]), STR_13(CODE[7]), STR_12(CODE[5]), STR_11(CODE[9]), 
		 -> STR_10(CODE[4]), STR_9(CODE[1]), 

    strlen@a	PTR const unsigned char  size(2) Largest target is 7
		 -> colorf.Bf(BANK1[4]), colorf.Gf(BANK1[4]), colorf.Rf(BANK1[4]), stoa@nuls(COMRAM[7]), 
		 -> ?_sprintf(BANK0[2]), colorf(BANK1[20]), STR_16(CODE[10]), STR_15(CODE[11]), 
		 -> STR_14(CODE[7]), STR_13(CODE[7]), STR_12(CODE[5]), STR_11(CODE[9]), 
		 -> STR_10(CODE[4]), STR_9(CODE[1]), 

    strcpy@dest	PTR unsigned char  size(2) Largest target is 80
		 -> dbuf(BANK1[80]), 

    strcpy@d	PTR unsigned char  size(2) Largest target is 80
		 -> dbuf(BANK1[80]), 

    strcpy@src	PTR const unsigned char  size(2) Largest target is 4
		 -> STR_37(CODE[4]), STR_34(CODE[4]), 

    strcpy@s	PTR const unsigned char  size(2) Largest target is 4
		 -> STR_37(CODE[4]), STR_34(CODE[4]), 

    fputs@s	PTR const unsigned char  size(2) Largest target is 80
		 -> dbuf(BANK1[80]), 

    fputs@fp	PTR struct _IO_FILE size(2) Largest target is 11
		 -> sprintf@f(BANK0[11]), 

    fputc@fp...source	PTR const unsigned char  size(2) Largest target is 0

    fputc@fp...buffer	PTR unsigned char  size(2) Largest target is 0

    fputc@fp	PTR struct _IO_FILE size(2) Largest target is 11
		 -> sprintf@f(BANK0[11]), 

    memcpy@d1	PTR void  size(2) Largest target is 80
		 -> dbuf(BANK1[80]), 

    memcpy@d	PTR unsigned char  size(2) Largest target is 80
		 -> dbuf(BANK1[80]), 

    memcpy@s1	PTR const void  size(2) Largest target is 80
		 -> dbuf(BANK1[80]), 

    memcpy@s	PTR const unsigned char  size(2) Largest target is 80
		 -> dbuf(BANK1[80]), 

    vfprintf@ap	PTR PTR void  size(2) Largest target is 2
		 -> sprintf@ap(BANK0[2]), 

    vfprintf@fp	PTR struct _IO_FILE size(2) Largest target is 11
		 -> sprintf@f(BANK0[11]), 

    vfprintf@fmt	PTR const unsigned char  size(2) Largest target is 46
		 -> STR_33(CODE[46]), 

    vfprintf@cfmt	PTR unsigned char  size(2) Largest target is 46
		 -> STR_33(CODE[46]), 

    vfpfcnvrt@cp	PTR unsigned char  size(2) Largest target is 46
		 -> STR_33(CODE[46]), 

    vfpfcnvrt@ap	PTR PTR void  size(2) Largest target is 2
		 -> sprintf@ap(BANK0[2]), 

    vfpfcnvrt@fp	PTR struct _IO_FILE size(2) Largest target is 11
		 -> sprintf@f(BANK0[11]), 

    vfpfcnvrt@fmt	PTR PTR unsigned char  size(2) Largest target is 2
		 -> vfprintf@cfmt(BANK0[2]), 

    S1333$vp	PTR void  size(2) Largest target is 0

    convarg.vp	PTR void  size(2) Largest target is 0

    stoa@fp	PTR struct _IO_FILE size(2) Largest target is 11
		 -> sprintf@f(BANK0[11]), 

    stoa@s	PTR unsigned char  size(2) Largest target is 2
		 -> colorf.Bf(BANK1[4]), colorf.Gf(BANK1[4]), colorf.Rf(BANK1[4]), ?_sprintf(BANK0[2]), 
		 -> colorf(BANK1[20]), STR_16(CODE[10]), STR_15(CODE[11]), STR_14(CODE[7]), 
		 -> STR_13(CODE[7]), STR_12(CODE[5]), STR_11(CODE[9]), STR_10(CODE[4]), 
		 -> STR_9(CODE[1]), 

    stoa@cp	PTR unsigned char  size(2) Largest target is 7
		 -> colorf.Bf(BANK1[4]), colorf.Gf(BANK1[4]), colorf.Rf(BANK1[4]), stoa@nuls(COMRAM[7]), 
		 -> ?_sprintf(BANK0[2]), colorf(BANK1[20]), STR_16(CODE[10]), STR_15(CODE[11]), 
		 -> STR_14(CODE[7]), STR_13(CODE[7]), STR_12(CODE[5]), STR_11(CODE[9]), 
		 -> STR_10(CODE[4]), STR_9(CODE[1]), 

    sp__memcpy	PTR void  size(2) Largest target is 80
		 -> dbuf(BANK1[80]), 

    efgtoa@fp	PTR struct _IO_FILE size(2) Largest target is 11
		 -> sprintf@f(BANK0[11]), 

    sp__strcpy	PTR unsigned char  size(2) Largest target is 80
		 -> dbuf(BANK1[80]), 

    pad@buf	PTR unsigned char  size(2) Largest target is 80
		 -> dbuf(BANK1[80]), 

    pad@fp	PTR struct _IO_FILE size(2) Largest target is 11
		 -> sprintf@f(BANK0[11]), 

    sprintf@fmt	PTR const unsigned char  size(2) Largest target is 46
		 -> STR_33(CODE[46]), 

    sprintf@s	PTR unsigned char  size(2) Largest target is 80
		 -> main@data(BANK1[80]), 

    sprintf@ap	PTR void [1] size(2) Largest target is 2
		 -> ?_sprintf(BANK0[2]), 

    S1249$source	PTR const unsigned char  size(2) Largest target is 0

    f...source	PTR const unsigned char  size(2) Largest target is 0

    S1249$buffer	PTR unsigned char  size(2) Largest target is 0

    f...buffer	PTR unsigned char  size(2) Largest target is 0

    sendStringSerial4@string	PTR unsigned char  size(2) Largest target is 80
		 -> main@data(BANK1[80]), 

    Color2String@buf	PTR unsigned char  size(2) Largest target is 80
		 -> main@data(BANK1[80]), 

    Color2String@cf	PTR struct RGBC_rel size(2) Largest target is 20
		 -> colorf(BANK1[20]), 

    Color2String@colourname	PTR unsigned char  size(2) Largest target is 11
		 -> STR_16(CODE[10]), STR_15(CODE[11]), STR_14(CODE[7]), STR_13(CODE[7]), 
		 -> STR_12(CODE[5]), STR_11(CODE[9]), STR_10(CODE[4]), STR_9(CODE[1]), 

    sp__Hue2Colour	PTR unsigned char  size(2) Largest target is 11
		 -> STR_16(CODE[10]), STR_15(CODE[11]), STR_14(CODE[7]), STR_13(CODE[7]), 
		 -> STR_12(CODE[5]), STR_11(CODE[9]), STR_10(CODE[4]), STR_9(CODE[1]), 

    Hue2Colour@cf	PTR struct RGBC_rel size(2) Largest target is 20
		 -> colorf(BANK1[20]), 

    Hue2Colour@colourname	PTR unsigned char  size(2) Largest target is 11
		 -> STR_16(CODE[10]), STR_15(CODE[11]), STR_14(CODE[7]), STR_13(CODE[7]), 
		 -> STR_12(CODE[5]), STR_11(CODE[9]), STR_10(CODE[4]), STR_9(CODE[1]), 

    RGB2Hue@cf	PTR struct RGBC_rel size(2) Largest target is 20
		 -> colorf(BANK1[20]), 

    colour_read_all@cf	PTR struct RGBC_rel size(2) Largest target is 20
		 -> colorf(BANK1[20]), 

    Colourslist	PTR unsigned char [8] size(2) Largest target is 11
		 -> STR_32(CODE[6]), STR_31(CODE[10]), STR_30(CODE[11]), STR_29(CODE[7]), 
		 -> STR_28(CODE[7]), STR_27(CODE[5]), STR_26(CODE[9]), STR_25(CODE[4]), 
		 -> STR_24(CODE[6]), STR_23(CODE[10]), STR_22(CODE[11]), STR_21(CODE[7]), 
		 -> STR_20(CODE[7]), STR_19(CODE[5]), STR_18(CODE[9]), STR_17(CODE[4]), 
		 -> STR_8(CODE[6]), STR_7(CODE[10]), STR_6(CODE[11]), STR_5(CODE[7]), 
		 -> STR_4(CODE[7]), STR_3(CODE[5]), STR_2(CODE[9]), STR_1(CODE[4]), 


Critical Paths under _main in COMRAM

    _colour_read_all->___xxtofl
    _color_read_Red->_I2C_2_Master_Read
    _color_read_Green->_I2C_2_Master_Read
    _color_read_Clear->_I2C_2_Master_Read
    _color_read_Blue->_I2C_2_Master_Read
    _I2C_2_Master_RepStart->_I2C_2_Master_Idle
    _I2C_2_Master_Read->_I2C_2_Master_Idle
    _color_click_init->_color_writetoaddr
    _color_writetoaddr->_I2C_2_Master_Write
    _I2C_2_Master_Write->_I2C_2_Master_Idle
    _I2C_2_Master_Stop->_I2C_2_Master_Idle
    _I2C_2_Master_Start->_I2C_2_Master_Idle
    _RGB2Hue->___flge
    ___xxtofl->_color_read_Blue
    ___xxtofl->_color_read_Clear
    ___xxtofl->_color_read_Green
    ___xxtofl->_color_read_Red
    _stoa->_fputc
    _efgtoa->___flge
    _efgtoa->_floorf
    _pad->_fputs
    _fputs->_fputc
    _floorf->___fldiv
    ___flsub->___fladd
    ___fladd->___xxtofl
    ___flmul->___fldiv
    ___fldiv->___flsub
    _sendStringSerial4->_sendCharSerial4
    _Hue2Colour->___flge
    ___flge->___flmul

Critical Paths under _main in BANK0

    _main->_Color2String
    _RGB2Hue->___flge
    _Color2String->_sprintf
    _sprintf->_vfprintf
    _vfprintf->_vfpfcnvrt
    _vfpfcnvrt->_efgtoa
    _efgtoa->___flge
    _Hue2Colour->___flge
    ___flge->___flmul

Critical Paths under _main in BANK1

    None.

Critical Paths under _main in BANK2

    None.

Critical Paths under _main in BANK3

    None.

Critical Paths under _main in BANK4

    None.

Critical Paths under _main in BANK5

    None.

Critical Paths under _main in BANK6

    None.

Critical Paths under _main in BANK7

    None.

Critical Paths under _main in BANK8

    None.

Critical Paths under _main in BANK9

    None.

Critical Paths under _main in BANK10

    None.

Critical Paths under _main in BANK11

    None.

Critical Paths under _main in BANK12

    None.

Critical Paths under _main in BANK13

    None.

Call Graph Tables:

 ---------------------------------------------------------------------------------
 (Depth) Function   	        Calls       Base Space   Used Autos Params    Refs
 ---------------------------------------------------------------------------------
 (0) _main                                                82    82      0   51478
                                            140 BANK0      2     2      0
                                              0 BANK1     80    80      0
                       _Color2String
                  _I2C_2_Master_Init
                            _RGB2Hue
                   _color_click_init
                    _colour_read_all
                         _initUSART4
 ---------------------------------------------------------------------------------
 (1) _initUSART4                                           0     0      0       0
 ---------------------------------------------------------------------------------
 (1) _colour_read_all                                     18    16      2    1518
                                             25 COMRAM    14    12      2
                           ___xxtofl
                    _color_read_Blue
                   _color_read_Clear
                   _color_read_Green
                     _color_read_Red
 ---------------------------------------------------------------------------------
 (2) _color_read_Red                                       7     5      2     113
                                              4 COMRAM     7     5      2
                  _I2C_2_Master_Read
              _I2C_2_Master_RepStart
                 _I2C_2_Master_Start
                  _I2C_2_Master_Stop
                 _I2C_2_Master_Write
 ---------------------------------------------------------------------------------
 (2) _color_read_Green                                     7     5      2     113
                                              4 COMRAM     7     5      2
                  _I2C_2_Master_Read
              _I2C_2_Master_RepStart
                 _I2C_2_Master_Start
                  _I2C_2_Master_Stop
                 _I2C_2_Master_Write
 ---------------------------------------------------------------------------------
 (2) _color_read_Clear                                     7     5      2     113
                                              4 COMRAM     7     5      2
                  _I2C_2_Master_Read
              _I2C_2_Master_RepStart
                 _I2C_2_Master_Start
                  _I2C_2_Master_Stop
                 _I2C_2_Master_Write
 ---------------------------------------------------------------------------------
 (2) _color_read_Blue                                      7     5      2     113
                                              4 COMRAM     7     5      2
                  _I2C_2_Master_Read
              _I2C_2_Master_RepStart
                 _I2C_2_Master_Start
                  _I2C_2_Master_Stop
                 _I2C_2_Master_Write
 ---------------------------------------------------------------------------------
 (3) _I2C_2_Master_RepStart                                0     0      0       0
                  _I2C_2_Master_Idle
 ---------------------------------------------------------------------------------
 (3) _I2C_2_Master_Read                                    3     3      0      45
                                              1 COMRAM     3     3      0
                  _I2C_2_Master_Idle
 ---------------------------------------------------------------------------------
 (1) _color_click_init                                     1     1      0     370
                                              4 COMRAM     1     1      0
                  _I2C_2_Master_Init
                  _color_writetoaddr
 ---------------------------------------------------------------------------------
 (2) _color_writetoaddr                                    2     1      1     370
                                              2 COMRAM     2     1      1
                 _I2C_2_Master_Start
                  _I2C_2_Master_Stop
                 _I2C_2_Master_Write
 ---------------------------------------------------------------------------------
 (3) _I2C_2_Master_Write                                   1     1      0      22
                                              1 COMRAM     1     1      0
                  _I2C_2_Master_Idle
 ---------------------------------------------------------------------------------
 (3) _I2C_2_Master_Stop                                    0     0      0       0
                  _I2C_2_Master_Idle
 ---------------------------------------------------------------------------------
 (3) _I2C_2_Master_Start                                   0     0      0       0
                  _I2C_2_Master_Idle
 ---------------------------------------------------------------------------------
 (4) _I2C_2_Master_Idle                                    1     1      0       0
                                              0 COMRAM     1     1      0
 ---------------------------------------------------------------------------------
 (2) _I2C_2_Master_Init                                    0     0      0       0
 ---------------------------------------------------------------------------------
 (1) _RGB2Hue                                             14    12      2   17797
                                             17 BANK0     14    12      2
                            ___fladd
                            ___fldiv
                             ___fleq
                             ___flge
                            ___flmul
                            ___flsub
                            ___fltol
                           ___xxtofl
 ---------------------------------------------------------------------------------
 (2) ___xxtofl                                            14    10      4     854
                                             11 COMRAM    14    10      4
                    _color_read_Blue (ARG)
                   _color_read_Clear (ARG)
                   _color_read_Green (ARG)
                     _color_read_Red (ARG)
 ---------------------------------------------------------------------------------
 (1) _Color2String                                         6     2      4   31765
                                            134 BANK0      6     2      4
                         _Hue2Colour
                  _sendStringSerial4
                            _sprintf
 ---------------------------------------------------------------------------------
 (2) _sprintf                                             37    15     22   27933
                                             99 BANK0     35    13     22
                           _vfprintf
 ---------------------------------------------------------------------------------
 (3) _vfprintf                                             8     2      6   27578
                                             91 BANK0      8     2      6
                          _vfpfcnvrt
 ---------------------------------------------------------------------------------
 (4) _vfpfcnvrt                                           25    19      6   27223
                                             70 BANK0     21    15      6
                             _efgtoa
                              _fputc
                               _stoa
                            _strncmp
 ---------------------------------------------------------------------------------
 (5) _strncmp                                             11     5      6     453
                                              0 COMRAM    11     5      6
 ---------------------------------------------------------------------------------
 (5) _stoa                                                22    18      4    1670
                                              9 COMRAM    22    18      4
                              _fputc
                             _strlen
 ---------------------------------------------------------------------------------
 (6) _strlen                                               4     2      2     166
                                              0 COMRAM     4     2      2
 ---------------------------------------------------------------------------------
 (5) _efgtoa                                              54    47      7   23305
                                             17 BANK0     53    46      7
                            ___fladd
                            ___fldiv
                             ___fleq
                             ___flge
                            ___flmul
                            ___flneg
                            ___flsub
                            ___fltol
                      ___fpclassifyf
                             _floorf
                               _labs
                             _memcpy
                                _pad
                             _strcpy
 ---------------------------------------------------------------------------------
 (6) _strcpy                                               8     4      4     400
                                              0 COMRAM     8     4      4
 ---------------------------------------------------------------------------------
 (6) _pad                                                 11     5      6    3063
                                             16 COMRAM    11     5      6
                              _fputc
                              _fputs
 ---------------------------------------------------------------------------------
 (7) _fputs                                                7     3      4    1235
                                              9 COMRAM     7     3      4
                              _fputc
 ---------------------------------------------------------------------------------
 (6) _fputc                                                9     5      4     986
                                              0 COMRAM     9     5      4
                              _putch
 ---------------------------------------------------------------------------------
 (7) _putch                                                1     1      0       0
 ---------------------------------------------------------------------------------
 (6) _memcpy                                              11     5      6     371
                                              0 COMRAM    11     5      6
 ---------------------------------------------------------------------------------
 (6) _labs                                                 8     4      4     294
                                              0 COMRAM     8     4      4
 ---------------------------------------------------------------------------------
 (6) _floorf                                              20    16      4     490
                                             74 COMRAM    20    16      4
                            ___fldiv (ARG)
 ---------------------------------------------------------------------------------
 (6) ___fpclassifyf                                       14    10      4     287
                                              0 COMRAM    14    10      4
 ---------------------------------------------------------------------------------
 (2) ___fltol                                             10     6      4     751
                                              0 COMRAM    10     6      4
 ---------------------------------------------------------------------------------
 (2) ___flsub                                              8     0      8    3477
                                             41 COMRAM     8     0      8
                            ___fladd
 ---------------------------------------------------------------------------------
 (3) ___fladd                                             16     8      8    2708
                                             25 COMRAM    16     8      8
                           ___xxtofl (ARG)
 ---------------------------------------------------------------------------------
 (6) ___flneg                                              4     0      4     121
                                              0 COMRAM     4     0      4
 ---------------------------------------------------------------------------------
 (2) ___flmul                                             25    17      8    2798
                                             74 COMRAM    12     4      8
                                              0 BANK0     13    13      0
                            ___fladd (ARG)
                            ___fldiv (ARG)
                            ___flsub (ARG)
                           ___xxtofl (ARG)
 ---------------------------------------------------------------------------------
 (2) ___fleq                                              12     4      8     842
                                              0 COMRAM    12     4      8
 ---------------------------------------------------------------------------------
 (2) ___fldiv                                             25    17      8    2301
                                             49 COMRAM    25    17      8
                            ___fladd (ARG)
                            ___flsub (ARG)
                           ___xxtofl (ARG)
 ---------------------------------------------------------------------------------
 (2) _sendStringSerial4                                    2     0      2     143
                                              1 COMRAM     2     0      2
                    _sendCharSerial4
 ---------------------------------------------------------------------------------
 (3) _sendCharSerial4                                      1     1      0      22
                                              0 COMRAM     1     1      0
 ---------------------------------------------------------------------------------
 (2) _Hue2Colour                                           4     2      2    3360
                                             17 BANK0      4     2      2
                             ___flge
 ---------------------------------------------------------------------------------
 (2) ___flge                                              12     4      8    2946
                                             86 COMRAM     8     0      8
                                             13 BANK0      4     4      0
                            ___flmul (ARG)
 ---------------------------------------------------------------------------------
 Estimated maximum stack depth 7
 ---------------------------------------------------------------------------------

 Call Graph Graphs:

 _main (ROOT)
   _Color2String
     _Hue2Colour
       ___flge
         ___flmul (ARG)
           ___fladd (ARG)
             ___xxtofl (ARG)
               _color_read_Blue (ARG)
                 _I2C_2_Master_Read
                   _I2C_2_Master_Idle
                 _I2C_2_Master_RepStart
                   _I2C_2_Master_Idle
                 _I2C_2_Master_Start
                   _I2C_2_Master_Idle
                 _I2C_2_Master_Stop
                   _I2C_2_Master_Idle
                 _I2C_2_Master_Write
                   _I2C_2_Master_Idle
               _color_read_Clear (ARG)
                 _I2C_2_Master_Read
                 _I2C_2_Master_RepStart
                 _I2C_2_Master_Start
                 _I2C_2_Master_Stop
                 _I2C_2_Master_Write
               _color_read_Green (ARG)
                 _I2C_2_Master_Read
                 _I2C_2_Master_RepStart
                 _I2C_2_Master_Start
                 _I2C_2_Master_Stop
                 _I2C_2_Master_Write
               _color_read_Red (ARG)
                 _I2C_2_Master_Read
                 _I2C_2_Master_RepStart
                 _I2C_2_Master_Start
                 _I2C_2_Master_Stop
                 _I2C_2_Master_Write
           ___fldiv (ARG)
             ___fladd (ARG)
             ___flsub (ARG)
               ___fladd
             ___xxtofl (ARG)
           ___flsub (ARG)
           ___xxtofl (ARG)
     _sendStringSerial4
       _sendCharSerial4
     _sprintf
       _vfprintf
         _vfpfcnvrt
           _efgtoa
             ___fladd
             ___fldiv
             ___fleq
             ___flge
             ___flmul
             ___flneg
             ___flsub
             ___fltol
             ___fpclassifyf
             _floorf
               ___fldiv (ARG)
             _labs
             _memcpy
             _pad
               _fputc
                 _putch
               _fputs
                 _fputc
             _strcpy
           _fputc
           _stoa
             _fputc
             _strlen
           _strncmp
   _I2C_2_Master_Init
   _RGB2Hue
     ___fladd
     ___fldiv
     ___fleq
     ___flge
     ___flmul
     ___flsub
     ___fltol
     ___xxtofl
   _color_click_init
     _I2C_2_Master_Init
     _color_writetoaddr
       _I2C_2_Master_Start
       _I2C_2_Master_Stop
       _I2C_2_Master_Write
   _colour_read_all
     ___xxtofl
     _color_read_Blue
     _color_read_Clear
     _color_read_Green
     _color_read_Red
   _initUSART4

 Address spaces:
Name               Size   Autos  Total    Cost      Usage
BIGRAM             DE9      0       0      48        0.0%
EEDATA             400      0       0       0        0.0%
BITBANK12          100      0       0      28        0.0%
BANK12             100      0       0      29        0.0%
BITBANK11          100      0       0      26        0.0%
BANK11             100      0       0      27        0.0%
BITBANK10          100      0       0      24        0.0%
BANK10             100      0       0      25        0.0%
BITBANK9           100      0       0      22        0.0%
BANK9              100      0       0      23        0.0%
BITBANK8           100      0       0      20        0.0%
BANK8              100      0       0      21        0.0%
BITBANK7           100      0       0      18        0.0%
BANK7              100      0       0      19        0.0%
BITBANK6           100      0       0      16        0.0%
BANK6              100      0       0      17        0.0%
BITBANK5           100      0       0      14        0.0%
BANK5              100      0       0      15        0.0%
BITBANK4           100      0       0      12        0.0%
BANK4              100      0       0      13        0.0%
BITBANK3           100      0       0      10        0.0%
BANK3              100      0       0      11        0.0%
BITBANK2           100      0       0       8        0.0%
BANK2              100      0       0       9        0.0%
BITBANK1           100      0       0       6        0.0%
BANK1              100     50      CB       7       79.3%
BITBANK13           EA      0       0      30        0.0%
BANK13              EA      0       0      31        0.0%
BITBANK0            A0      0       0       4        0.0%
BANK0               A0     8E      9B       5       96.9%
BITBIGSFRhlllh      8F      0       0      37        0.0%
BITBIGSFRhhh        78      0       0      32        0.0%
BITCOMRAM           5F      0       0       0        0.0%
COMRAM              5F     5E      5E       1       98.9%
BITBIGSFRlllhh      36      0       0      41        0.0%
BITBIGSFRllh        2D      0       0      40        0.0%
BITBIGSFRlllhll     2A      0       0      43        0.0%
BITBIGSFRlllll      26      0       0      46        0.0%
BITBIGSFRlllhll     19      0       0      44        0.0%
BITBIGSFRlllhlh      C      0       0      42        0.0%
BITBIGSFRhlllll      8      0       0      38        0.0%
BITBIGSFRllllh       6      0       0      45        0.0%
BITBIGSFRhllh        4      0       0      36        0.0%
BITBIGSFRhlhh        1      0       0      34        0.0%
BITBIGSFRhlhl        1      0       0      35        0.0%
BITBIGSFRhhl         1      0       0      33        0.0%
BITBIGSFRlh          1      0       0      39        0.0%
BIGSFR               0      0       0     200        0.0%
BITSFR_3             0      0       0     200        0.0%
SFR_3                0      0       0     200        0.0%
BITSFR_2             0      0       0     200        0.0%
SFR_2                0      0       0     200        0.0%
BITSFR_1             0      0       0     200        0.0%
SFR_1                0      0       0     200        0.0%
BITSFR               0      0       0     200        0.0%
SFR                  0      0       0     200        0.0%
STACK                0      0       0       2        0.0%
NULL                 0      0       0       0        0.0%
ABS                  0      0     1C4      47        0.0%
DATA                 0      0     1C4       3        0.0%
CODE                 0      0       0       0        0.0%


Microchip Technology PIC18 Macro Assembler V2.40 build 20220703182018 
Symbol Table                                                                                   Thu Mar 09 21:38:10 2023

               _color_read_Red 411E                   ___fldiv@aexp 004A                   ___fldiv@bexp 0049  
                 ___fldiv@sign 0042                _color_read_Blue 420E                             l22 458C  
                           l31 425C                             l25 416C                             l34 420C  
                           l19 4488                             l28 41BC                             l55 1AD0  
                           l63 1F9C                             l73 2C74                             l49 3D0A  
                           l67 2C74                             l79 2C7C               _color_read_Clear 41BE  
             _color_read_Green 416E                            l112 454A                            l121 45DC  
                          l106 4522                            l202 456C                            l211 4590  
                          l115 45E6                            l124 45C8                            l109 4524  
                          l214 45A4                            l118 45D2                            l223 44F8  
                          l127 440C                            l217 3E80                            l500 44C0  
                          l523 3936                            l810 2E76                            l491 39F6  
                          l821 2F34                            l813 2E3A                            l485 3F2A  
                          l822 2F22                            l496 3A3C                            l808 3016  
                          l840 2524                            l904 411C                            l850 2780  
                          l754 218C                            l819 2EBC                            l771 22A6  
                          l763 245C                            l755 217A                            l844 2888  
                          l780 2376                            l756 2140                            l781 2364  
                          l942 3FA4                            l847 271A                            l857 284A  
                          l849 2792                            l953 1870                            l881 3598  
                          l938 3F4E                            l796 4342                            l956 120A  
                          l884 36F4                            l958 1050                            l895 368C  
                          l888 3630                            l986 1652                            _pad 3F2C  
                          wreg 000FE8                   ___flmul@aexp 0065                   ___flmul@bexp 0066  
                 ___flmul@sign 0060                   ___flmul@temp 006B                   ___flmul@prod 0067  
              __end_of_RGB2Hue 1F9E                   ___fltol@exp1 000A                           l1001 3776  
                         l1003 377E                           l1012 3830                           l1102 43CA  
                         l1111 4386                           l1023 332E                           l1105 45E8  
                         l1121 3C30                           l1117 42AC                           l1045 40CA  
                         l1062 3540                           l1055 3B3A                           l3000 25F6  
                         l1065 3484                           l1073 4064                           l3010 2658  
                         l3002 2606                           l1082 42FC                           l3100 39C4  
                         l3020 2700                           l3012 2674                           l3004 2620  
                         l1076 4074                           l3102 39D6                           l3030 273C  
                         l3022 270A                           l3014 269E                           l3006 2630  
                         l1094 3DD4                           l3104 39E4                           l3040 27AE  
                         l3032 274A                           l3024 2718                           l3016 26D4  
                         l3008 264C                           l3112 448A                           l3120 3832  
                         l3200 4344                           l3106 3A34                           l3050 2818  
                         l3042 27BC                           l3034 2778                           l3026 272A  
                         l3018 26E2                           l3114 44A0                           l3130 3888  
                         l3122 3848                           l3210 3350                           l3202 4354  
                         l3108 3A3A                           l3060 286E                           l3052 2832  
                         l3044 27E6                           l3028 2738                           l3116 44B0  
                         l3132 3898                           l3220 3438                           l3212 33A6  
                         l3204 4010                           l3300 0F9A                           l4020 3258  
                         l3054 284E                           l3062 2874                           l3038 27A2  
                         l3046 27EA                           l3070 430E                           l3142 38C2  
                         l3134 389C                           l3126 385C                           l3230 3520  
                         l3222 3474                           l3214 33BA                           l3206 402E  
                         l3310 0FE4                           l3302 0FC0                           l4022 32E2  
                         l3080 3EEE                           l3064 2878                           l3056 285E  
                         l3048 2804                           l2600 1FDA                           l3160 3926  
                         l3152 38EA                           l3144 38CC                           l3136 38AA  
                         l3128 3886                           l3232 3530                           l3216 33C8  
                         l3224 34A8                           l3208 3330                           l3240 42CE  
                         l3400 1532                           l3320 101A                           l3304 0FD2  
                         l3090 3938                           l3082 3EFE                           l3074 3E82  
                         l3058 286C                           l2610 200A                           l2602 1FEA  
                         l3154 38F6                           l3146 38D6                           l3226 34E4  
                         l3242 42D2                           l3170 3F5A                           l3410 1596  
                         l3402 1566                           l3330 10D8                           l3306 0FD6  
                         l3250 426A                           l4018 319A                           l3092 3968  
                         l3084 3F22                           l3076 3EB0                           l2700 21DC  
                         l2620 2034                           l2612 201C                           l2604 1FEC  
                         l3068 42FE                           l3156 3906                           l3180 3A5E  
                         l3228 34F8                           l3244 42DE                           l3236 42AE  
                         l3172 3F6E                           l3164 3F2C                           l3420 1648  
                         l3412 159C                           l3404 157A                           l3340 1198  
                         l3332 110A                           l3324 1060                           l3308 0FDC  
                         l3260 0E7E                           l3252 426E                           l3500 37AA  
                         l3094 3978                           l3086 3F28                           l3078 3EC0  
                         l2710 220A                           l2702 21EA                           l2622 2044  
                         l2630 206E                           l2614 201E                           l2606 1FF4  
                         l3158 3916                           l3182 3A9C                           l3190 3ADC  
                         l3238 42C2                           l3246 42E2                           l3174 3F72  
                         l3166 3F3A                           l3430 168C                           l3422 1664  
                         l3414 15A4                           l3406 157E                           l3350 122E  
                         l3334 1148                           l3326 1066                           l3318 1000  
                         l3270 0ECE                           l3262 0E8E                           l3254 42A0  
                         l3510 3812                           l3502 37C8                           l3096 39A6  
                         l2800 2C7E                           l2720 2276                           l2712 2214  
                         l2704 21F6                           l2640 20A6                           l2632 207E  
                         l2624 2054                           l2616 2024                           l2608 2004  
                         l3192 3AEE                           l3184 3AC4                           l3176 3F90  
                         l3168 3F46                           l3432 1694                           l3424 1672  
                         l3440 16B4                           l3416 15B0                           l3408 158E  
                         l3360 1262                           l3352 1236                           l3336 115C  
                         l3344 11D8                           l3328 109A                           l3280 0F0A  
                         l3272 0ED6                           l3264 0E9C                           l3248 425E  
                         l3504 37D4                           l3520 3B80                           l3512 3B3C  
                         l3098 39B6                           l2810 2CBA                           l2802 2C8A  
                         l2722 2286                           l2706 21FA                           l2714 221A  
                         l2650 20BA                           l2642 20AA                           l2634 2090  
                         l2626 2064                           l2618 2032                           l3186 3AD0  
                         l3178 3A3E                           l3450 173A                           l3442 16C6  
                         l3434 16A4                           l3426 1682                           l3418 1628  
                         l3370 12AC                           l3362 127A                           l3354 123E  
                         l3346 1212                           l3338 1190                           l3290 0F50  
                         l3274 0EE6                           l3282 0F0E                           l3266 0EA0  
                         l3258 0E78                           l3506 380A                           l3522 3BA0  
                         l3514 3B66                           l2900 2EEC                           l2820 2CEA  
                         l2812 2CCA                           l2804 2C98                           l2740 2308  
                         l2732 22E0                           l2716 2240                           l2724 2296  
                         l2708 2208                           l2660 20CE                           l2652 20BE  
                         l2644 20AE                           l2636 209E                           l2628 2066  
                         l3196 3B32                           l2580 3D30                           l3460 17B4  
                         l3452 176E                           l3444 16D8                           l3436 16A8  
                         l3428 1686                           l3372 12C0                           l3380 13B6  
                         l3364 128C                           l3356 1242                           l3348 1222  
                         l3292 0F58                           l3284 0F34                           l3276 0EF6  
                         l3268 0EC4                           l3508 380E                           l3524 3BC0  
                         l3540 304E                           l3532 4524                           l3700 4204  
                         l3710 2912                           l2910 2F5E                           l2902 2F1A  
                         l2830 2D20                           l2822 2CF0                           l2814 2CCC  
                         l2806 2C9A                           l2742 2310                           l2734 22EA  
                         l2726 22BC                           l2718 2274                           l2750 2334  
                         l2670 20E2                           l2662 20D2                           l2654 20C2  
                         l2646 20B2                           l2638 20A2                           l2590 1F9E  
                         l2582 3D3A                           l3470 1822                           l3462 17BC  
                         l3454 1776                           l3446 16DC                           l3438 16AE  
                         l3390 1482                           l3382 13D4                           l3374 1324  
                         l3358 1254                           l3366 1294                           l3294 0F70  
                         l3286 0F46                           l3278 0F02                           l3526 3BD2  
                         l3518 3B72                           l3550 30E6                           l3542 305C  
                         l3534 4534                           l3622 45DE                           l3630 45D4  
                         l3720 29EE                           l3712 2920                           l3704 288A  
                         l2920 2FD6                           l2912 2F88                           l2840 2D60  
                         l2832 2D30                           l2824 2CFE                           l2808 2CAA  
                         l2816 2CD4                           l2760 2386                           l2752 2338  
                         l2744 2314                           l2736 22F8                           l2728 22CC  
                         l2680 215A                           l2672 210C                           l2664 20D6  
                         l2656 20C6                           l2648 20B6                           l2592 1FAA  
                         l2584 3D58                           l2576 3D0C                           l3472 1832  
                         l3464 17CC                           l3448 16E2                           l3456 177A  
                         l3392 1492                           l3384 1408                           l3376 137C  
                         l3368 129C                           l3296 0F7A                           l3288 0F4A  
                         l3480 36F6                           l3528 3C04                           l3552 30F4  
                         l3560 3146                           l3544 3060                           l3536 3018  
                         l3800 367C                           l3624 45E2                           l3632 45D8  
                         l3640 43D2                           l3730 2ACA                           l3722 2A2E  
                         l3714 2960                           l3706 2894                           l2930 300C  
                         l2922 2FF2                           l2906 2F44                           l2914 2F8C  
                         l2842 2D70                           l2850 2D90                           l2834 2D32  
                         l2826 2D00                           l2818 2CE4                           l2770 23EC  
                         l2762 2392                           l2754 2346                           l2746 2324  
                         l2738 22FA                           l2690 219A                           l2682 215E  
                         l2674 2128                           l2666 20DA                           l2658 20CA  
                         l2594 1FB8                           l2586 3D8E                           l2578 3D1E  
                         l3474 1848                           l3466 17FC                           l3458 1798  
                         l3394 14A2                           l3386 143A                           l3378 13B0  
                         l3490 373E                           l3482 3708                           l3562 3156  
                         l3554 30FE                           l3546 3088                           l3538 3040  
                         l3810 36D4                           l3802 369A                           l3626 45C0  
                         l3642 43DA                           l3634 45CA                           l3740 2BD8  
                         l3732 2B0A                           l3724 2A3C                           l3716 29A0  
                         l3708 28D2                           l3652 4590                           l2924 2FF6  
                         l2916 2FA6                           l2908 2F50                           l2860 2DCE  
                         l2852 2DA0                           l2844 2D78                           l2828 2D10  
                         l2836 2D3A                           l2940 246C                           l2780 2434  
                         l2772 23FC                           l2764 23A0                           l2756 235C  
                         l2748 2326                           l2692 21AA                           l2684 216C  
                         l2676 2138                           l2668 20DE                           l2596 1FBA  
                         l3476 1850                           l3468 180A                           l3396 14D6  
                         l3388 1450                           l3492 3746                           l3484 3710  
                         l3564 316C                           l3572 3184                           l3556 310E  
                         l3548 30BE                           l3660 40A0                           l3900 3E74  
                         l3812 36E2                           l3804 369C                           l3628 45C4  
                         l3820 4450                           l3644 43E2                           l3636 45CE  
                         l3742 2BE6                           l3734 2B4A                           l3726 2A7C  
                         l3718 29AE                           l3654 45A0                           l2926 3004  
                         l2918 2FBC                           l2870 2E16                           l2862 2DDE  
                         l2854 2DA0                           l2846 2D7C                           l2838 2D4A  
                         l2950 24AC                           l2942 247A                           l2782 2436  
                         l2774 241C                           l2766 23DA                           l2686 216E  
                         l2678 214E                           l2598 1FCA                           l3398 152C  
                         l3494 3754                           l3486 3722                           l3582 3244  
                         l3566 3174                           l3574 31B8                           l3662 40C0  
                         l3750 40CC                           l3814 36E4                           l3806 36A0  
                         l3670 450A                           l3822 445A                           l3646 4408  
                         l3638 43CE                           l3830 3C32                           l3910 3FB4  
                         l3902 3FA6                           ?_pad 0011                           l3744 2C26  
                         l3736 2B58                           l3728 2ABC                           l2928 300A  
                         l2880 2E64                           l2872 2E2A                           l2864 2DEE  
                         l2960 24DC                           l2952 24B2                           l2944 247C  
                         l2784 243C                           l2776 2420                           l2768 23DC  
                         l2696 21BE                           l2688 2178                           l2792 4388  
                         l3496 3792                           l3488 372A                           l3592 32C0  
                         l3584 326E                           l3576 31DC                           l3568 317C  
                         l3656 4076                           l3752 40DE                           l3808 36C4  
                         l3840 18BA                           l3672 450C                           l3824 446A  
                         l3648 440A                           l3680 411E                           l3832 3CBA  
                         l3920 3FBE                           l3912 3FB6                           l3904 3FAA  
                         l3746 2C66                           l3738 2B98                           l3770 44E0  
                         l3762 44C2                           l2890 2EAC                           l2882 2E74  
                         l2874 2E38                           l2866 2DFE                           l2858 2DB4  
                         l2970 2514                           l2962 24DE                           l2954 24C2  
                         l2946 248C                           l2938 245E                           l2786 244A  
                         l2778 242E                           l2698 21CE                           l2794 4394  
                         l3498 37A6                           l3586 328E                           l3578 3210  
                         l3594 32F0                           l3658 4082                           l3754 40E6  
                         l3850 19BC                           l3842 1902                           l3674 450E  
                         l3666 44FA                           l3826 4474                           l3818 444C  
                         l3682 4164                           l3834 3CD2                           l3922 3FCA  
                         l3914 3FB8                           l3906 3FAE                           l3764 44C6  
                         l2892 2EBA                           l2884 2E86                           l2876 2E44  
                         l2868 2E06                           l2980 2564                           l2972 2534  
                         l2964 24EE                           l2956 24C8                           l2948 249C  
                         l2788 244C                           l2796 43A6                           l3756 40EE  
                         l3780 35BE                           l3772 3544                           l3860 1B18  
                         l3852 19E4                           l3844 1924                           l3676 4510  
                         l3668 4504                           l3828 447E                           l3692 420E  
                         l3836 3CEE                           l3924 3FD8                           l3916 3FBA  
                         l3908 3FB2                           l3766 44D4                           l2886 2E9C  
                         l2894 2ECC                           l2878 2E62                           l2990 25B4  
                         l2982 256E                           l2974 2544                           l2966 24FE  
                         l2958 24CE                           l2798 43AA                           l3598 3302  
                         l3758 410A                           l3790 3618                           l3774 3554  
                         l3870 1CE6                           l3862 1B60                           l3854 1A2C  
                         l3846 192E                           l3838 1872                           l3678 4570  
                         l3694 4254                           l3686 416E                           l3926 3FEE  
                         l3918 3FBC                           l3768 44D8                           l2896 2EDA  
                         l2888 2EA2                           l2992 25C0                           l2984 2584  
                         l2968 250E                           l3792 361A                           l3784 35D2  
                         l3776 3562                           l3880 1F4E                           l3872 1DA4  
                         l3864 1B84                           l3856 1A78                           l3848 1974  
                         l3688 41B4                           l2898 2EDE                           l2994 25CE  
                         l2986 2590                           l2978 2558                           l3794 3626  
                         l3786 35DA                           l3778 35A8                           l3874 1E0E  
                         l3866 1C52                           l3858 1AA6                           l3698 41BE  
                         l3890 4566                           l3882 454C                           l2996 25DA  
                         l2988 25A8                           l3796 3662                           l3788 35E6  
                         l3876 1ECC                           l3868 1C9A                           l3892 4568  
                         l3884 4550                           l2998 25EA                           l3798 366E  
                         l3878 1F32                           l3894 456A                           l3886 455A  
                         l3896 3DD6                           l3888 455C                           l3898 3DEA  
                         STR_1 0E72                           STR_2 0E44                           STR_3 0E61  
                         STR_4 0E54                           STR_5 0E4D                           STR_6 0E2F  
                         STR_7 0E3A                           STR_8 0E5B                           STR_9 0E2E  
                         u3000 27A2                           u2200 3D30                           u3001 279E  
                         u2201 3D2C                           u3010 27BC                           u2210 3D58  
                         u3011 27B8                           u2211 3D54                           u3100 39C4  
                         u3020 2804                           u2300 2090                           u2220 3D8E  
                         u3101 39C0                           u3021 2800                           u2301 208C  
                         u2221 3D8A                           u3110 39E4                           u3030 2832  
                         u2310 209E                           u2230 1FB8                           u3111 39E0  
                         u3031 282E                           u2311 209A                           u2231 1FB4  
                         u3120 3A34                           u4000 28D2                           u3040 286C  
                         u2400 21DC                           u2320 210C                           u2240 1FCA  
                         u3200 3916                   _BAUD4CONbits 000EE9                           u3121 3A30  
                         u4001 28CE                           u3041 2868                           u2401 21D8  
                         u2321 2108                           u2241 1FC6                           u3201 3912  
                         u4010 2912                           u3050 3EB0                           u3130 44A0  
                         u2410 21EA                           u2330 2124                           u2250 1FDA  
                         u3210 3F3A                           u4011 290E                           u3051 3EAC  
                         u3131 449C                           u2411 21E6                           u2331 211E  
                         u2251 1FD6                           u3211 3F36                           u4100 2B98  
                         u4020 2960                           u3060 3EEE                           u2500 2334  
                         u2420 2208                           u2340 2126                           u2260 201C  
                         u3140 3848                           u3220 3F90                           u3300 4386  
                         u4101 2B94                           u4021 295C                           u3061 3EEA  
                         u2501 2330                           u2421 2204                           u2261 2018  
                         u3141 3844                           u3221 3F8C                           u3301 4382  
                         u4110 2BD8                           u4030 29A0                           u3070 3F22  
                         u2510 2346                           u2430 2240                           u2350 214E  
                         u2270 2032                           u3150 387C                           u3230 3A7E  
                         u3310 402E                           u2190 3D1E                           u4111 2BD4  
                         u4031 299C                           u3071 3F1E                           u2511 2342  
                         u2431 223C                           u2351 214A                           u2271 202E  
                         u3311 402A                           u2191 3D1A                           u3080 3968  
                         u4120 2C26                           u4040 29EE                           u2600 242E  
                         u2520 235C                           u2440 2286                           u2360 216C  
                         u2280 2044                           u3160 38AA                           u3240 3A9C  
                         u3400 34E4                           u3320 3378                           u4200 367C  
                         u3081 3964                           u4121 2C22                           u4041 29EA  
                         u2601 242A                           u2521 2358                           u2441 2282  
                         u2361 2168                           u2281 2040                           u3161 38A6  
                         u3241 3A98                           u3401 34E0                           u4201 3678  
                         u3090 39A6                           u4130 2C66                           u4050 2A2E  
                         u2610 244A                           u2530 2372                           u2450 22BC  
                         u2370 218C                           u2290 2054                           u3170 38BE  
                         u3250 3AC4                           u3410 3520                           u3330 33A6  
                         u4210 368C                           u3091 39A2                           u4131 2C62  
                         u4051 2A2A                           u2611 2446                           u2531 236E  
                         u2451 22B8                           u2371 2188                           u2291 2050  
                         u3171 38BA                           u3155 3872                           u3251 3AC0  
                         u3235 3A74                           u3411 351C                           u3331 33A2  
                         u4211 3688                           u4060 2A7C                           u4140 44F8  
                         u2700 2DA0                           u2540 2386                           u2460 22CC  
                         u2380 219A                           u3180 38E6                           u3260 3AEE  
                         u3340 33C8                           u3420 42FC                           u2620 43CA  
                         u3500 0FC0                           u4220 369A                           u4300 1A78  
                         u4061 2A78                           u4141 44F4                           u2701 2D9C  
                         u2541 2382                           u2461 22C8                           u2381 2196  
                         u3181 38E2                           u3261 3AEA                           u3341 33C4  
                         u3325 336E                           u3421 42F8                           u2621 43C6  
                         u3501 0FBC                           u4221 3696                           u4301 1A74  
                         u4070 2ABC                           u2710 2E16                           u2630 2C98  
                         u2550 23A0                           u2470 22F8                           u2390 21AA  
                         u3190 3906                           u3510 0FD2                           u3430 4290  
                         u4230 36D4                           u4150 3554                           u4310 1B18  
                         u4071 2AB8                           u2711 2E12                           u2631 2C94  
                         u2551 239C                           u2471 22F4                           u2391 21A6  
                         u3191 3902                           u3511 0FCE                           u4231 36D0  
                         u4151 3550                           u4311 1B14                           u4080 2B0A  
                         u2800 2F30                           u2720 2E38                           u2640 2CAA  
                         u2560 23DA                           u2480 2308                           u3280 3B28  
                         u3360 3434                           u3600 1262                           u3520 104C  
                         u3440 42A0                           u4240 36E2                           u4160 3562  
                         u4320 1B60                           u4081 2B06                           u2801 2F2C  
                         u2721 2E34                           u2641 2CA6                           u2561 23D6  
                         u2481 2304                           u3281 3B22                           u3361 3430  
                         u3601 125E                           u3521 1048                           u3441 429C  
                         u4241 36DE                           u4161 355E                           u4321 1B5C  
                         u4090 2B4A                           u2810 2F44                           u2730 2E62  
                         u2650 2CBA                           u2570 23EC                           u2490 2324  
                         u3290 3B2A                           u3370 3458                           u3610 128C  
                         u3530 10D8                           u3450 0E9C                           u4170 35BE  
                         u4330 1C9A                           u4250 18BA                           u4091 2B46  
                         u2811 2F40                           u2731 2E5E                           u2651 2CB6  
                         u2571 23E8                           u2491 2320                           u3275 3B00  
                         u3355 33DC                           u3611 1288                           u3531 10D4  
                         u3451 0E98                           u4171 35BA                           u4331 1C96  
                         u4251 18B6                           u2820 2F5E                           u2740 2E86  
                         u2660 2CFE                           u2900 24EE                           u2580 23FC  
                         u3380 3474                           u3356 33E6                           u3700 1672  
                         u3620 13D4                           u3540 110A                           u3460 0EE6  
                         u4180 3614                           u4340 1CE6                           u4260 1902  
                         u2821 2F5A                           u2741 2E82                           u2661 2CFA  
                         u2901 24EA                           u2581 23F8                           u3381 3470  
                         u3357 33F6                           u3701 166E                           u3621 13D0  
                         u3541 1106                           u3461 0EE2                           u3437 4286  
                         u4181 3610                           u4341 1CE2                           u4261 18FE  
                         u2830 2FA6                           u2750 2E9C                           u2670 2D10  
                         u2910 24FE                           u2590 241C                           u3390 34C8  
                         u3710 16C6                           u3630 143A                           u3550 1148  
                         u3470 0EF6                           u4190 365E                           u4350 1F4E  
                         u4270 1974                           u2831 2FA2                           u2751 2E98  
                         u2671 2D0C                           u2911 24FA                           u2591 2418  
                         u3375 344E                           u3711 16C2                           u3631 1436  
                         u3551 1144                           u3471 0EF2                           u4191 365A  
                         u4351 1F4A                           u4271 1970                           u2840 2FD6  
                         u2760 2EBA                           u2680 2D20                           u2920 2534  
                         u3720 1798                           u3640 1482                           u3560 11D4  
                         u3480 0F34                           u3800 3772                           u4280 19BC  
                         u2841 2FD2                           u2761 2EB6                           u2681 2D1C  
                         u2921 2530                           u3721 1794                           u3641 147E  
                         u3561 11D0                           u3481 0F30                           u3801 376E  
                         u4281 19B8                           u2850 3004                           u2770 2EDA  
                         u2690 2D60                           u2930 2544                           u3730 17B4  
                         u3650 1492                           u3570 120A                           u3490 0F46  
                         u3810 37C8                           u4290 1A2C                           u2851 3000  
                         u2771 2ED6                           u2691 2D5C                           u2931 2540  
                         u3395 34BE                           u3731 17B0                           u3651 148E  
                         u3571 1206                           u3491 0F42                           u3811 37C4  
                         u4291 1A28                           u2780 2EEC                           u2940 26BE  
                         u2860 247A                           u3740 181C                           u3660 152C  
                         u3580 1222                           u3820 37F6                           u3900 454A  
                         u2781 2EE8                           u2861 2476                           u3741 1816  
                         u3661 1528                           u3581 121E                           u3901 4546  
                         u2790 2F1A                           u2950 2718                           u2870 248C  
                         u3750 181E                           u3670 157A                           u3590 1254  
                         u3830 3830                           u3910 3040                           u2791 2F16  
                         u2951 2714                           u2871 2488                           u3671 1576  
                         u3591 1250                           u3831 382C                           u3911 303C  
                         u4367 3FFA                           u2960 2738                           u2880 249C  
                         u3760 1832                           u3680 1628                           u3840 3B66  
                         u3920 3088                           u2961 2734                           u2945 26B4  
                         u2881 2498                           u3761 182E                           u3681 1624  
                         u3841 3B62                           u3921 3084                           u4377 4460  
                         u2970 274A                           u2890 24DC                           u3690 1664  
                         u3850 3BA0                           u3930 30BE                           u4387 44DA  
                         u2971 2746                           u2891 24D8                           u3691 1660  
                         u3827 37EC                           u3771 3700                           u3851 3B9C  
                         u3931 30BA                           u2980 2778                           u3780 3722  
                         u3860 3BC0                           u3940 30E6                           u2981 2774  
                         u3781 371E                           u3861 3BBC                           u3941 30E2  
                         u2990 278E                           u3790 3754                           u3870 3BD2  
                         u3950 31D8                           u2991 278A                           u3791 3750  
                         u3871 3BCE                           u3951 31D4                           u3880 3C04  
                         u3960 43F6                           u3881 3C00                           u3961 43EE  
                         u3890 4534                           u3891 4530                           u3980 45A0  
                         u3981 459C                           u3990 40C0                           u3991 40BC  
                         u3978 43F8                           _dbuf 0100                           _labs 4010  
                         _main 3FA6                           _prec 00F8                           pad@i 0018  
                         pad@p 0015                           fsr1h 000FE2                           fsr2h 000FDA  
                         indf1 000FE7                           indf2 000FDF                           fsr1l 000FE1  
                         pad@w 001A                           fsr2l 000FD9                           _stoa 36F6  
                ___fpclassifyf 3A3E                           prodh 000FF4                           prodl 000FF3  
                         start 0000                ___fldiv@new_exp 0043         __end_of_color_read_Red 416E  
                 ___param_bank 000000                     _Hue2Colour 288A                          ??_pad 0017  
                ___fltol@sign1 0009                          ?_labs 0001                __end_of___fladd 245E  
                        ?_main 0001                __end_of___fldiv 3018                __end_of___flneg 44C2  
                        STR_10 0E72                          STR_11 0E44                          STR_12 0E61  
                        STR_13 0E54                          STR_14 0E4D                          STR_30 0E2F  
                        STR_15 0E2F                          STR_31 0E3A                          STR_16 0E3A  
                        STR_40 0E6E                          STR_32 0E5B                          STR_33 0E01  
                        STR_25 0E72                          STR_42 0E6E                          STR_34 0E66  
                        STR_26 0E44                          STR_27 0E61                          STR_28 0E54  
                        STR_37 0E6A                          STR_29 0E4D                __end_of___flmul 288A  
              __end_of___flsub 4344                __end_of___fltol 3938                          ?_stoa 000A  
                 vfpfcnvrt@fmt 00A8        __end_of_sendCharSerial4 45A6     __end_of_I2C_2_Master_Start 45E8  
   __end_of_I2C_2_Master_Write 45CA                          _flags 00FA                          _fputc 3D0C  
                        _fputs 4388                          labs@a 0001                          pad@fp 0011  
                        _width 00F6                          _putch 45E8                          tablat 000FF5  
                        plusw1 000FE3                          plusw2 000FDB                          stoa@i 0018  
                        stoa@l 001C                          stoa@p 001E                          stoa@s 000C  
                        stoa@w 0016                          status 000FD8                __end_of_sprintf 411E  
               ?___fpclassifyf 0001                __end_of_strncmp 3C32           __end_of_Color2String 3E82  
      __end_of_color_read_Blue 425E          _I2C_2_Master_RepStart 45CA                ?_color_read_Red 0005  
              __initialization 440E                   __end_of_labs 4076                   __end_of_main 4010  
                 __end_of_stoa 3832                         ??_labs 0005                         ??_main 00EC  
                       ??_stoa 000E                  __activetblptr 000003                      ??_RGB2Hue 0073  
                       ?_fputc 0001                         ?_fputs 000A                _colour_read_all 3C32  
                       ?_putch 0001                         _RC0PPS 000E62                         _RC4REG 000EE3  
                       _RD5PPS 000E6F                         _RD6PPS 000E70       __end_of_color_click_init 448A  
                       _RX4PPS 000E15                         _TX4REG 000EE4               __end_of___xxtofl 36F6  
                 vfprintf@cfmt 00C1                         ___flge 3938                         ___fleq 3E82  
                    ??___fladd 0022                    ?_Hue2Colour 0071                      ??___fldiv 003A  
                    ??___flneg 0005                      ??___flmul 0053                      ??___flsub 0032  
                    ??___fltol 0005                         _efgtoa 0E78                         _colorf 0150  
                       _floorf 3330                         _memcpy 42AE                         clear_0 4434  
                       clear_1 4440                         isa$std 000001                         pad@buf 0013  
                       _strcpy 4344                         _strlen 425E                    _Colourslist 01B4  
                       fputc@c 0001                         fputs@c 000E                         fputs@i 000F  
                       fputs@s 000A                ___fpclassifyf@e 0009                ___fpclassifyf@u 000B  
              ___fpclassifyf@x 0001                   __mediumconst 0000                         tblptrh 000FF7  
                       tblptrl 000FF6                         tblptru 000FF8               ?_sendCharSerial4 0001  
                       stoa@cp 001A                         stoa@fp 000A                         putch@c 0001  
             __end_of_vfprintf 40CC                      ??_sprintf 005F                      ??_strncmp 0007  
                   ___flge@ff1 0057                     ___flge@ff2 005B                ??___fpclassifyf 0005  
                 ___xxtofl@arg 0016                   ___xxtofl@exp 0015                   ___xxtofl@val 000C  
                   ___fleq@ff1 0001                     ___fleq@ff2 0005                     __accesstop 0060  
      __end_of__initialization 4446       __end_of_color_read_Clear 420E                     ___flneg@f1 0001  
     __end_of_color_read_Green 41BE         ?_I2C_2_Master_RepStart 0001                  ___rparam_used 000000  
                   ___fltol@f1 0001               ?_color_read_Blue 0005                 __pcstackCOMRAM 0001  
                 __pidataBANK1 45A6                  __end_of_fputc 3DD6                  __end_of_fputs 43CC  
                __end_of_putch 45EA                      RGB2Hue@cf 0071        __end_of_colour_read_all 3D0C  
                      ??_fputc 0005                        ??_fputs 000E                        ??_putch 0001  
                   __pbssBANK0 00EE                     __pbssBANK1 0100              _color_writetoaddr 456E  
                      ?___flge 0057                        ?___fleq 0001             ?_color_writetoaddr 0003  
                      ?_efgtoa 0071                        ?_floorf 004B                        ?_memcpy 0001  
          ??_color_writetoaddr 0004                        ?_strcpy 0001                        ?_strlen 0001  
                 _Color2String 3DD6                        _RGB2Hue 1872                      ?___xxtofl 000C  
                      _SP4BRGH 000EE6                        _SP4BRGL 000EE5                        _SSP2ADD 000ED6  
                      _SSP2BUF 000ED5         color_writetoaddr@value 0003               ??_color_read_Red 0007  
    __end_of_color_writetoaddr 458E             _I2C_2_Master_Start 45DE                     _initUSART4 454C  
           _I2C_2_Master_Write 45BE                        __Hparam 0000                        __Lparam 0000  
            color_read_Red@tmp 000A        sendStringSerial4@string 0002                        ___fladd 1F9E  
                      ___fldiv 2C7E                        ___flneg 448A                        ___flmul 245E  
                      ___flsub 42FE                        ___fltol 3832            ?_I2C_2_Master_Start 0001  
          ?_I2C_2_Master_Write 0001                      ?_vfprintf 00BB                   __psmallconst 0E00  
                      __pcinit 440E                        __ramtop 0E00                        __ptext0 3FA6  
                      __ptext1 454C                        __ptext2 3C32                        __ptext3 411E  
                      __ptext4 416E                        __ptext5 41BE                        __ptext6 420E  
                      __ptext7 45CA                        __ptext8 43CC                        __ptext9 444C  
             ?_colour_read_all 001A                     ??___xxtofl 0010                 Color2String@cf 00E8  
                      efgtoa@c 0077                        efgtoa@d 0085                        efgtoa@e 0089  
                      efgtoa@f 0073                        efgtoa@g 009E                        efgtoa@h 0093  
                      efgtoa@i 0091                        efgtoa@l 0097                        efgtoa@m 0087  
                      efgtoa@n 009C                        efgtoa@p 007C                        efgtoa@t 007E  
                      efgtoa@u 00A2                        efgtoa@w 008B                        _sprintf 40CC  
         ??_I2C_2_Master_Start 0002           ??_I2C_2_Master_Write 0002                        _strncmp 3B3C  
         end_of_initialization 4446                        floorf@e 0059                        floorf@m 0055  
                      floorf@u 005B                        floorf@x 004B                        memcpy@d 0007  
                      memcpy@n 0005                        memcpy@s 0009                        fputc@fp 0003  
                      fputs@fp 000C              ?_color_click_init 0001             ??_color_click_init 0005  
            __end_of_vfpfcnvrt 3330                     efgtoa@mode 0083                     efgtoa@sign 009B  
                      postdec1 000FE5                        postdec2 000FDD                   ??_Hue2Colour 005F  
                      postinc0 000FEE                        postinc1 000FE6                        postinc2 000FDE  
             vfpfcnvrt@convarg 00AE                     ??_vfprintf 005F                        strcpy@d 0007  
                      strlen@a 0003                        strcpy@s 0005                        strlen@s 0001  
                  ___fladd@grs 0029                  ___xxtofl@sign 0014                      _TRISAbits 000F81  
                    _TRISCbits 000F83                      _TRISDbits 000F84                      _TRISFbits 000F86  
                    _TRISGbits 000F87                    ___fldiv@grs 0045                    ___fldiv@rem 003E  
     color_writetoaddr@address 0004        ??_I2C_2_Master_RepStart 0002             __end_of_Hue2Colour 2C7E  
                  ___flmul@grs 0061              ?_color_read_Clear 0005              ?_color_read_Green 0005  
                  ?_initUSART4 0001      sendCharSerial4@charToSend 0001             ??_color_read_Clear 0007  
           ??_color_read_Green 0007                   _RGB2Hue$1724 0077                 __end_of___flge 3A3E  
               __end_of___fleq 3F2C                    vfpfcnvrt@ap 00AA                    vfpfcnvrt@cp 00B9  
                  vfpfcnvrt@fp 00A6                 __end_of_efgtoa 1872                 __end_of_floorf 3542  
               __end_of_memcpy 42FE                     floorf@F526 00EE                 __end_of_strcpy 4388  
               __end_of_strlen 42AE                     RGB2Hue@max 007B                     RGB2Hue@min 007D  
          color_read_Clear@tmp 000A            start_initialization 440E                    __end_of_pad 3FA6  
        __end_of___fpclassifyf 3B3C            color_read_Green@tmp 000A                    vfprintf@fmt 00BD  
                     ??___flge 006D                       ??___fleq 0009                       ??_efgtoa 0078  
                  __pdataBANK1 01B4                       ??_floorf 004F                       ??_memcpy 0007  
                     ??_strcpy 0005                       ??_strlen 0003                      ___fladd@a 001E  
                    ___fladd@b 001A                      ___fldiv@a 0036                      ___fldiv@b 0032  
                     ?_RGB2Hue 0071                      ___flmul@a 004F                      ___flmul@b 004B  
                    ___flsub@a 002E                      ___flsub@b 002A                  __pcstackBANK0 0060  
                __pcstackBANK1 0164         Color2String@colourname 00EA                    _efgtoa$1389 0080  
                     ?___fladd 001A                       ?___fldiv 0032                       ?___flneg 0001  
                     ?___flmul 004B                       ?___flsub 002A                       ?___fltol 0001  
         I2C_2_Master_Read@ack 0003           I2C_2_Master_Read@tmp 0004                    __smallconst 0E00  
            _I2C_2_Master_Idle 4524              _I2C_2_Master_Init 44FA              _I2C_2_Master_Read 43CC  
            _I2C_2_Master_Stop 45D4             ?_I2C_2_Master_Idle 0001             ?_I2C_2_Master_Init 0001  
           ?_I2C_2_Master_Read 0001             ?_I2C_2_Master_Stop 0001                       ?_sprintf 00C3  
                     ?_strncmp 0001           Hue2Colour@colourname 0073              colour_read_all@cf 001A  
                 Hue2Colour@cf 0071              _sendStringSerial4 44C2            ??_I2C_2_Master_Idle 0001  
          ??_I2C_2_Master_Init 0001            ??_I2C_2_Master_Read 0002                       _LATAbits 000F79  
          ??_I2C_2_Master_Stop 0002                       _LATFbits 000F7E                       _LATGbits 000F7F  
           ?_sendStringSerial4 0002                       _PIR4bits 000E37              ??_sendCharSerial4 0001  
                     _SSP2CON2 000EDA            ??_sendStringSerial4 0004                       _SSP2STAT 000ED8  
                    _vfpfcnvrt 3018      __end_of_I2C_2_Master_Idle 454C      __end_of_I2C_2_Master_Init 4524  
    __end_of_I2C_2_Master_Read 440E      __end_of_I2C_2_Master_Stop 45DE    I2C_2_Master_Write@data_byte 0002  
            ??_color_read_Blue 0007                     vfpfcnvrt@c 00B8                      copy_data0 4422  
    __end_of_sendStringSerial4 44FA  __end_of_I2C_2_Master_RepStart 45D4             color_read_Blue@tmp 000A  
                     __Hparam0 0000                   ??_initUSART4 0001                       __Lparam0 0000  
                    memcpy@tmp 000B                     vfprintf@ap 00BF                     vfprintf@fp 00BB  
                   ?_vfpfcnvrt 00A6                     _ANSELDbits 000EA7             ___fpclassifyf@F465 00F2  
                   sprintf@fmt 00C5                       ___xxtofl 3542             __end_of_initUSART4 456E  
                     __ptext10 456E                       __ptext11 45BE                       __ptext20 4076  
                     __ptext12 45D4                       __ptext21 3018                       __ptext13 45DE  
                     __ptext30 45E8                       __ptext22 3B3C                       __ptext14 4524  
                     __ptext31 42AE                       __ptext23 36F6                       __ptext15 44FA  
                     __ptext40 3E82                       __ptext32 4010                       __ptext24 425E  
                     __ptext16 1872                       __ptext41 2C7E                       __ptext33 3330  
                     __ptext25 0E78                       __ptext17 3542                       __ptext42 44C2  
                     __ptext34 3A3E                       __ptext26 4344                       __ptext18 3DD6  
                     __ptext43 458E                       __ptext35 3832                       __ptext27 3F2C  
                     __ptext19 40CC                       __ptext44 288A                       __ptext36 42FE  
                     __ptext28 4388                       __ptext45 3938                       __ptext37 1F9E  
                     __ptext29 3D0C                       __ptext38 448A                       __ptext39 245E  
                 _SSP2CON1bits 000ED9                   _SSP2CON2bits 000EDA                     strcpy@dest 0001  
              Color2String@buf 00E6               colour_read_all@B 0024               colour_read_all@G 0020  
             colour_read_all@R 001C                       efgtoa@fp 0071                       efgtoa@ne 007A  
                     efgtoa@pp 0082                       efgtoa@ou 008D                      stoa@F1167 01C4  
                     isa$xinst 000000                     _RC4STAbits 000EE7                       _vfprintf 4076  
                     main@data 0164                  ?_Color2String 00E6                 _vfpfcnvrt$1422 00B6  
                     memcpy@d1 0001                       memcpy@s1 0003                      sprintf@ap 00D9  
                    strcpy@src 0003                      strncmp@_l 0001                      strncmp@_r 0003  
            ??_colour_read_all 001C                    efgtoa@nmode 0084                    ??_vfpfcnvrt 00AC  
                     stoa@nuls 000F               _color_click_init 444C                 ??_Color2String 005F  
                     sprintf@f 00DB                       sprintf@s 00C3                     _SSP2DATPPS 000E1D  
                   _SSP2CLKPPS 000E1C                       strncmp@l 0008                       strncmp@n 0005  
                     strncmp@r 000A                  ___fladd@signs 0026                     _TX4STAbits 000EE8  
              _sendCharSerial4 458E                   ___fladd@aexp 0027                   ___fladd@bexp 0028  
