

Microchip MPLAB XC8 Assembler V2.40 build 20220703182018 
                                                                                               Fri Mar 10 15:38:56 2023

Microchip MPLAB XC8 C Compiler v2.40 (Free license) build 20220703182018 Og1 
     1                           	processor	18F67K40
     2                           	fnconf	rparam,??,?,0
     3                           	pagewidth 120
     4                           	opt	flic
     5                           	psect	idataBANK0,global,class=CODE,delta=1,noexec
     6                           	psect	smallconst,global,reloc=2,class=SMALLCONST,delta=1,noexec
     7                           	psect	cinit,global,reloc=2,class=CODE,delta=1
     8                           	psect	bssBANK0,global,class=BANK0,space=1,delta=1,lowdata,noexec
     9                           	psect	dataBANK0,global,class=BANK0,space=1,delta=1,lowdata,noexec
    10                           	psect	bssBANK1,global,class=BANK1,space=1,delta=1,lowdata,noexec
    11                           	psect	cstackBANK1,global,class=BANK1,space=1,delta=1,lowdata,noexec
    12                           	psect	cstackBANK0,global,class=BANK0,space=1,delta=1,lowdata,noexec
    13                           	psect	cstackCOMRAM,global,class=COMRAM,space=1,delta=1,lowdata,noexec
    14                           	psect	text0,global,reloc=2,class=CODE,delta=1
    15                           	psect	text1,global,reloc=2,class=CODE,delta=1
    16                           	psect	text2,global,reloc=2,class=CODE,delta=1
    17                           	psect	text3,global,reloc=2,class=CODE,delta=1
    18                           	psect	text4,global,reloc=2,class=CODE,delta=1
    19                           	psect	text5,global,reloc=2,class=CODE,delta=1
    20                           	psect	text6,global,reloc=2,class=CODE,delta=1
    21                           	psect	text7,global,reloc=2,class=CODE,delta=1
    22                           	psect	text8,global,reloc=2,class=CODE,delta=1
    23                           	psect	text9,global,reloc=2,class=CODE,delta=1
    24                           	psect	text10,global,reloc=2,class=CODE,delta=1
    25                           	psect	text11,global,reloc=2,class=CODE,delta=1
    26                           	psect	text12,global,reloc=2,class=CODE,delta=1
    27                           	psect	text13,global,reloc=2,class=CODE,delta=1
    28                           	psect	text14,global,reloc=2,class=CODE,delta=1
    29                           	psect	text15,global,reloc=2,class=CODE,delta=1
    30                           	psect	text16,global,reloc=2,class=CODE,delta=1
    31                           	psect	text17,global,reloc=2,class=CODE,delta=1,group=2
    32                           	psect	text18,global,reloc=2,class=CODE,delta=1
    33                           	psect	text19,global,reloc=2,class=CODE,delta=1,group=3
    34                           	psect	text20,global,reloc=2,class=CODE,delta=1,group=1
    35                           	psect	text21,global,reloc=2,class=CODE,delta=1,group=1
    36                           	psect	text22,global,reloc=2,class=CODE,delta=1,group=1
    37                           	psect	text23,global,reloc=2,class=CODE,delta=1,group=3
    38                           	psect	text24,global,reloc=2,class=CODE,delta=1,group=1
    39                           	psect	text25,global,reloc=2,class=CODE,delta=1,group=3
    40                           	psect	text26,global,reloc=2,class=CODE,delta=1,group=3
    41                           	psect	text27,global,reloc=2,class=CODE,delta=1,group=3
    42                           	psect	text28,global,reloc=2,class=CODE,delta=1,group=3
    43                           	psect	text29,global,reloc=2,class=CODE,delta=1,group=3
    44                           	psect	text30,global,reloc=2,class=CODE,delta=1,group=3
    45                           	psect	text31,global,reloc=2,class=CODE,delta=1,group=3
    46                           	psect	text32,global,reloc=2,class=CODE,delta=1,group=2
    47                           	psect	text33,global,reloc=2,class=CODE,delta=1,group=2
    48                           	psect	text34,global,reloc=2,class=CODE,delta=1,group=2
    49                           	psect	text35,global,reloc=2,class=CODE,delta=1,group=2
    50                           	psect	text36,global,reloc=2,class=CODE,delta=1,group=2
    51                           	psect	text37,global,reloc=2,class=CODE,delta=1,group=2
    52                           	psect	text38,global,reloc=2,class=CODE,delta=1,group=2
    53                           	psect	text39,global,reloc=2,class=CODE,delta=1
    54                           	psect	text40,global,reloc=2,class=CODE,delta=1
    55                           	psect	text41,global,reloc=2,class=CODE,delta=1
    56                           	psect	text42,global,reloc=2,class=CODE,delta=1,group=2
    57                           	psect	text43,global,reloc=2,class=CODE,delta=1
    58                           	psect	intsave_regs,global,class=BIGRAM,space=1,delta=1,noexec
    59                           	psect	rparam,global,class=COMRAM,space=1,delta=1,noexec
    60                           	psect	idloc,global,abs,ovrld,class=IDLOC,space=5,delta=1,noexec
    61                           	psect	config,global,abs,ovrld,class=CONFIG,space=4,delta=1,noexec
    62   000000                     
    63                           ; Generated 06/04/2022 GMT
    64                           ; 
    65                           ; Copyright © 2022, Microchip Technology Inc. and its subsidiaries ("Microchip")
    66                           ; All rights reserved.
    67                           ; 
    68                           ; This software is developed by Microchip Technology Inc. and its subsidiaries ("Microch
      +                          ip").
    69                           ; 
    70                           ; Redistribution and use in source and binary forms, with or without modification, are
    71                           ; permitted provided that the following conditions are met:
    72                           ; 
    73                           ;     1. Redistributions of source code must retain the above copyright notice, this lis
      +                          t of
    74                           ;        conditions and the following disclaimer.
    75                           ; 
    76                           ;     2. Redistributions in binary form must reproduce the above copyright notice, this 
      +                          list
    77                           ;        of conditions and the following disclaimer in the documentation and/or other
    78                           ;        materials provided with the distribution. Publication is not required when
    79                           ;        this file is used in an embedded application.
    80                           ; 
    81                           ;     3. Microchip's name may not be used to endorse or promote products derived from th
      +                          is
    82                           ;        software without specific prior written permission.
    83                           ; 
    84                           ; THIS SOFTWARE IS PROVIDED BY MICROCHIP "AS IS" AND ANY EXPRESS OR IMPLIED WARRANTIES,
    85                           ; INCLUDING, BUT NOT LIMITED TO, THE IMPLIED WARRANTIES OF MERCHANTABILITY AND FITNESS F
      +                          OR
    86                           ; PURPOSE ARE DISCLAIMED.  IN NO EVENT SHALL MICROCHIP BE LIABLE FOR ANY DIRECT, INDIREC
      +                          T,
    87                           ; INCIDENTAL, SPECIAL, EXEMPLARY, OR CONSEQUENTIAL DAMAGES (INCLUDING BUT NOT LIMITED TO
    88                           ; PROCUREMENT OF SUBSTITUTE GOODS OR SERVICES; LOSS OF USE, DATA OR PROFITS; OR BUSINESS
    89                           ; INTERRUPTION) HOWSOEVER CAUSED AND ON ANY THEORY OF LIABILITY, WHETHER IN CONTRACT, ST
      +                          RICT
    90                           ; LIABILITY, OR TORT (INCLUDING NEGLIGENCE OR OTHERWISE) ARISING IN ANY WAY OUT OF THE U
      +                          SE OF
    91                           ; THIS SOFTWARE, EVEN IF ADVISED OF THE POSSIBILITY OF SUCH DAMAGE.
    92                           ; 
    93                           ; 
    94                           ; Code-generator required, PIC18F67K40 Definitions
    95                           ; 
    96                           ; SFR Addresses
    97   000000                     
    98                           	psect	idataBANK0
    99   00448C                     __pidataBANK0:
   100                           	callstack 0
   101                           
   102                           ;initializer for __15drightdelay
   103   00448C  0064               	dw	100
   104                           
   105                           ;initializer for __15dleftdelay
   106   00448E  0064               	dw	100
   107   000000                     _TX4REG	set	3812
   108   000000                     _RC4STAbits	set	3815
   109   000000                     _SP4BRGH	set	3814
   110   000000                     _SSP2CON2bits	set	3802
   111   000000                     _RX4PPS	set	3605
   112   000000                     _SSP2CLKPPS	set	3612
   113   000000                     _SSP2DATPPS	set	3613
   114   000000                     _ANSELDbits	set	3751
   115   000000                     _SSP2ADD	set	3798
   116   000000                     _SSP2CON1bits	set	3801
   117   000000                     _LATAbits	set	3961
   118   000000                     _LATGbits	set	3967
   119   000000                     _TRISAbits	set	3969
   120   000000                     _TRISGbits	set	3975
   121   000000                     _LATFbits	set	3966
   122   000000                     _TRISCbits	set	3971
   123   000000                     _TRISDbits	set	3972
   124   000000                     _TRISFbits	set	3974
   125   000000                     _RC4REG	set	3811
   126   000000                     _SP4BRGL	set	3813
   127   000000                     _TX4STAbits	set	3816
   128   000000                     _BAUD4CONbits	set	3817
   129   000000                     _SSP2CON2	set	3802
   130   000000                     _SSP2STAT	set	3800
   131   000000                     _SSP2BUF	set	3797
   132   000000                     _PIR4bits	set	3639
   133   000000                     _RC0PPS	set	3682
   134   000000                     _RD5PPS	set	3695
   135   000000                     _RD6PPS	set	3696
   136                           
   137                           	psect	smallconst
   138   000E00                     __psmallconst:
   139                           	callstack 0
   140   000E00  00                 	db	0
   141   000E01                     STR_10:
   142   000E01  20                 	db	32
   143   000E02  52                 	db	82	;'R'
   144   000E03  65                 	db	101	;'e'
   145   000E04  64                 	db	100	;'d'
   146   000E05  20                 	db	32
   147   000E06  25                 	db	37
   148   000E07  66                 	db	102	;'f'
   149   000E08  20                 	db	32
   150   000E09  47                 	db	71	;'G'
   151   000E0A  72                 	db	114	;'r'
   152   000E0B  65                 	db	101	;'e'
   153   000E0C  65                 	db	101	;'e'
   154   000E0D  6E                 	db	110	;'n'
   155   000E0E  2C                 	db	44
   156   000E0F  25                 	db	37
   157   000E10  66                 	db	102	;'f'
   158   000E11  20                 	db	32
   159   000E12  42                 	db	66	;'B'
   160   000E13  6C                 	db	108	;'l'
   161   000E14  75                 	db	117	;'u'
   162   000E15  65                 	db	101	;'e'
   163   000E16  2C                 	db	44
   164   000E17  25                 	db	37
   165   000E18  66                 	db	102	;'f'
   166   000E19  20                 	db	32
   167   000E1A  63                 	db	99	;'c'
   168   000E1B  6C                 	db	108	;'l'
   169   000E1C  65                 	db	101	;'e'
   170   000E1D  61                 	db	97	;'a'
   171   000E1E  72                 	db	114	;'r'
   172   000E1F  20                 	db	32
   173   000E20  25                 	db	37
   174   000E21  66                 	db	102	;'f'
   175   000E22  20                 	db	32
   176   000E23  48                 	db	72	;'H'
   177   000E24  75                 	db	117	;'u'
   178   000E25  65                 	db	101	;'e'
   179   000E26  20                 	db	32
   180   000E27  25                 	db	37
   181   000E28  66                 	db	102	;'f'
   182   000E29  20                 	db	32
   183   000E2A  0D                 	db	13
   184   000E2B  00                 	db	0
   185   000E2C                     STR_8:
   186   000E2C  4C                 	db	76	;'L'
   187   000E2D  69                 	db	105	;'i'
   188   000E2E  67                 	db	103	;'g'
   189   000E2F  68                 	db	104	;'h'
   190   000E30  74                 	db	116	;'t'
   191   000E31  20                 	db	32
   192   000E32  42                 	db	66	;'B'
   193   000E33  6C                 	db	108	;'l'
   194   000E34  75                 	db	117	;'u'
   195   000E35  65                 	db	101	;'e'
   196   000E36  00                 	db	0
   197   000E37                     STR_9:
   198   000E37  44                 	db	68	;'D'
   199   000E38  61                 	db	97	;'a'
   200   000E39  72                 	db	114	;'r'
   201   000E3A  6B                 	db	107	;'k'
   202   000E3B  20                 	db	32
   203   000E3C  42                 	db	66	;'B'
   204   000E3D  6C                 	db	108	;'l'
   205   000E3E  75                 	db	117	;'u'
   206   000E3F  65                 	db	101	;'e'
   207   000E40  00                 	db	0
   208   000E41                     STR_4:
   209   000E41  45                 	db	69	;'E'
   210   000E42  67                 	db	103	;'g'
   211   000E43  67                 	db	103	;'g'
   212   000E44  73                 	db	115	;'s'
   213   000E45  68                 	db	104	;'h'
   214   000E46  65                 	db	101	;'e'
   215   000E47  6C                 	db	108	;'l'
   216   000E48  6C                 	db	108	;'l'
   217   000E49  00                 	db	0
   218   000E4A                     STR_7:
   219   000E4A  4F                 	db	79	;'O'
   220   000E4B  72                 	db	114	;'r'
   221   000E4C  61                 	db	97	;'a'
   222   000E4D  6E                 	db	110	;'n'
   223   000E4E  67                 	db	103	;'g'
   224   000E4F  65                 	db	101	;'e'
   225   000E50  00                 	db	0
   226   000E51                     STR_6:
   227   000E51  59                 	db	89	;'Y'
   228   000E52  65                 	db	101	;'e'
   229   000E53  6C                 	db	108	;'l'
   230   000E54  6C                 	db	108	;'l'
   231   000E55  6F                 	db	111	;'o'
   232   000E56  77                 	db	119	;'w'
   233   000E57  00                 	db	0
   234   000E58                     STR_3:
   235   000E58  47                 	db	71	;'G'
   236   000E59  72                 	db	114	;'r'
   237   000E5A  65                 	db	101	;'e'
   238   000E5B  65                 	db	101	;'e'
   239   000E5C  6E                 	db	110	;'n'
   240   000E5D  00                 	db	0
   241   000E5E                     STR_5:
   242   000E5E  50                 	db	80	;'P'
   243   000E5F  69                 	db	105	;'i'
   244   000E60  6E                 	db	110	;'n'
   245   000E61  6B                 	db	107	;'k'
   246   000E62  00                 	db	0
   247   000E63                     STR_11:
   248   000E63  69                 	db	105	;'i'
   249   000E64  6E                 	db	110	;'n'
   250   000E65  66                 	db	102	;'f'
   251   000E66  00                 	db	0
   252   000E67                     STR_14:
   253   000E67  6E                 	db	110	;'n'
   254   000E68  61                 	db	97	;'a'
   255   000E69  6E                 	db	110	;'n'
   256   000E6A  00                 	db	0
   257   000E6B                     STR_2:
   258   000E6B  52                 	db	82	;'R'
   259   000E6C  65                 	db	101	;'e'
   260   000E6D  64                 	db	100	;'d'
   261   000E6E  00                 	db	0
   262   000E6F  00                 	db	0	; dummy byte at the end
   263   000000                     
   264                           ; #config settings
   265                           
   266                           	psect	cinit
   267   0042D4                     __pcinit:
   268                           	callstack 0
   269   0042D4                     start_initialization:
   270                           	callstack 0
   271   0042D4                     __initialization:
   272                           	callstack 0
   273                           
   274                           ; Initialize objects allocated to BANK0 (4 bytes)
   275                           ; load TBLPTR registers with __pidataBANK0
   276   0042D4  0E8C               	movlw	low __pidataBANK0
   277   0042D6  6EF6               	movwf	tblptrl,c
   278   0042D8  0E44               	movlw	high __pidataBANK0
   279   0042DA  6EF7               	movwf	tblptrh,c
   280   0042DC  0E00               	movlw	low (__pidataBANK0 shr (0+16))
   281   0042DE  6EF8               	movwf	tblptru,c
   282   0042E0  EE00  F0F9         	lfsr	0,__pdataBANK0
   283   0042E4  EE10 F004          	lfsr	1,4
   284   0042E8                     copy_data0:
   285   0042E8  0009               	tblrd		*+
   286   0042EA  CFF5 FFEE          	movff	tablat,postinc0
   287   0042EE  50E5               	movf	postdec1,w,c
   288   0042F0  50E1               	movf	fsr1l,w,c
   289   0042F2  E1FA               	bnz	copy_data0
   290                           
   291                           ; Clear objects allocated to BANK1 (120 bytes)
   292   0042F4  EE01  F000         	lfsr	0,__pbssBANK1
   293   0042F8  0E78               	movlw	120
   294   0042FA                     clear_0:
   295   0042FA  6AEE               	clrf	postinc0,c
   296   0042FC  06E8               	decf	wreg,f,c
   297   0042FE  E1FD               	bnz	clear_0
   298                           
   299                           ; Clear objects allocated to BANK0 (13 bytes)
   300   004300  EE00  F0EC         	lfsr	0,__pbssBANK0
   301   004304  0E0D               	movlw	13
   302   004306                     clear_1:
   303   004306  6AEE               	clrf	postinc0,c
   304   004308  06E8               	decf	wreg,f,c
   305   00430A  E1FD               	bnz	clear_1
   306   00430C                     end_of_initialization:
   307                           	callstack 0
   308   00430C                     __end_of__initialization:
   309                           	callstack 0
   310   00430C  0100               	movlb	0
   311   00430E  EF21  F01D         	goto	_main	;jump to C main() function
   312                           
   313                           	psect	bssBANK0
   314   0000EC                     __pbssBANK0:
   315                           	callstack 0
   316   0000EC                     floorf@F526:
   317                           	callstack 0
   318   0000EC                     	ds	4
   319   0000F0                     ___fpclassifyf@F465:
   320                           	callstack 0
   321   0000F0                     	ds	4
   322   0000F4                     _width:
   323                           	callstack 0
   324   0000F4                     	ds	2
   325   0000F6                     _prec:
   326                           	callstack 0
   327   0000F6                     	ds	2
   328   0000F8                     _flags:
   329                           	callstack 0
   330   0000F8                     	ds	1
   331                           
   332                           	psect	dataBANK0
   333   0000F9                     __pdataBANK0:
   334                           	callstack 0
   335   0000F9                     __15drightdelay:
   336                           	callstack 0
   337   0000F9                     	ds	2
   338   0000FB                     __15dleftdelay:
   339                           	callstack 0
   340   0000FB                     	ds	2
   341                           
   342                           	psect	bssBANK1
   343   000100                     __pbssBANK1:
   344                           	callstack 0
   345   000100                     _motorR:
   346                           	callstack 0
   347   000100                     	ds	9
   348   000109                     _motorL:
   349                           	callstack 0
   350   000109                     	ds	9
   351   000112                     _dbuf:
   352                           	callstack 0
   353   000112                     	ds	80
   354   000162                     _colorf:
   355                           	callstack 0
   356   000162                     	ds	22
   357                           
   358                           	psect	cstackBANK1
   359   000178                     __pcstackBANK1:
   360                           	callstack 0
   361   000178                     main@data:
   362                           	callstack 0
   363                           
   364                           ; 80 bytes @ 0x0
   365   000178                     	ds	80
   366   0001C8                     main@wall:
   367                           	callstack 0
   368                           
   369                           ; 1 bytes @ 0x50
   370   0001C8                     	ds	1
   371                           
   372                           	psect	cstackBANK0
   373   000060                     __pcstackBANK0:
   374                           	callstack 0
   375   000060                     ___flmul@sign:
   376                           	callstack 0
   377                           
   378                           ; 1 bytes @ 0x0
   379   000060                     	ds	1
   380   000061                     ___flmul@grs:
   381                           	callstack 0
   382                           
   383                           ; 4 bytes @ 0x1
   384   000061                     	ds	4
   385   000065                     ___flmul@aexp:
   386                           	callstack 0
   387                           
   388                           ; 1 bytes @ 0x5
   389   000065                     	ds	1
   390   000066                     ___flmul@bexp:
   391                           	callstack 0
   392                           
   393                           ; 1 bytes @ 0x6
   394   000066                     	ds	1
   395   000067                     ___flmul@prod:
   396                           	callstack 0
   397                           
   398                           ; 4 bytes @ 0x7
   399   000067                     	ds	4
   400   00006B                     ___flmul@temp:
   401                           	callstack 0
   402                           
   403                           ; 2 bytes @ 0xB
   404   00006B                     	ds	2
   405   00006D                     ??___flge:
   406                           
   407                           ; 1 bytes @ 0xD
   408   00006D                     	ds	4
   409   000071                     ?_Hue2Colour:
   410                           	callstack 0
   411   000071                     RGB2Hue@cf:
   412                           	callstack 0
   413   000071                     Hue2Colour@cf:
   414                           	callstack 0
   415   000071                     efgtoa@fp:
   416                           	callstack 0
   417                           
   418                           ; 2 bytes @ 0x11
   419   000071                     	ds	2
   420   000073                     ??_RGB2Hue:
   421   000073                     Hue2Colour@colourname:
   422                           	callstack 0
   423   000073                     efgtoa@f:
   424                           	callstack 0
   425                           
   426                           ; 4 bytes @ 0x13
   427   000073                     	ds	4
   428   000077                     efgtoa@c:
   429                           	callstack 0
   430   000077                     _RGB2Hue$1696:
   431                           	callstack 0
   432                           
   433                           ; 4 bytes @ 0x17
   434   000077                     	ds	1
   435   000078                     ??_efgtoa:
   436                           
   437                           ; 1 bytes @ 0x18
   438   000078                     	ds	2
   439   00007A                     efgtoa@ne:
   440                           	callstack 0
   441                           
   442                           ; 2 bytes @ 0x1A
   443   00007A                     	ds	1
   444   00007B                     RGB2Hue@max:
   445                           	callstack 0
   446                           
   447                           ; 2 bytes @ 0x1B
   448   00007B                     	ds	1
   449   00007C                     efgtoa@p:
   450                           	callstack 0
   451                           
   452                           ; 2 bytes @ 0x1C
   453   00007C                     	ds	1
   454   00007D                     RGB2Hue@min:
   455                           	callstack 0
   456                           
   457                           ; 2 bytes @ 0x1D
   458   00007D                     	ds	1
   459   00007E                     efgtoa@t:
   460                           	callstack 0
   461                           
   462                           ; 2 bytes @ 0x1E
   463   00007E                     	ds	2
   464   000080                     _efgtoa$1387:
   465                           	callstack 0
   466                           
   467                           ; 2 bytes @ 0x20
   468   000080                     	ds	2
   469   000082                     efgtoa@pp:
   470                           	callstack 0
   471                           
   472                           ; 1 bytes @ 0x22
   473   000082                     	ds	1
   474   000083                     efgtoa@mode:
   475                           	callstack 0
   476                           
   477                           ; 1 bytes @ 0x23
   478   000083                     	ds	1
   479   000084                     efgtoa@nmode:
   480                           	callstack 0
   481                           
   482                           ; 1 bytes @ 0x24
   483   000084                     	ds	1
   484   000085                     efgtoa@d:
   485                           	callstack 0
   486                           
   487                           ; 2 bytes @ 0x25
   488   000085                     	ds	2
   489   000087                     efgtoa@m:
   490                           	callstack 0
   491                           
   492                           ; 2 bytes @ 0x27
   493   000087                     	ds	2
   494   000089                     efgtoa@e:
   495                           	callstack 0
   496                           
   497                           ; 2 bytes @ 0x29
   498   000089                     	ds	2
   499   00008B                     efgtoa@w:
   500                           	callstack 0
   501                           
   502                           ; 2 bytes @ 0x2B
   503   00008B                     	ds	2
   504   00008D                     efgtoa@ou:
   505                           	callstack 0
   506                           
   507                           ; 4 bytes @ 0x2D
   508   00008D                     	ds	4
   509   000091                     efgtoa@i:
   510                           	callstack 0
   511                           
   512                           ; 2 bytes @ 0x31
   513   000091                     	ds	2
   514   000093                     efgtoa@h:
   515                           	callstack 0
   516                           
   517                           ; 4 bytes @ 0x33
   518   000093                     	ds	4
   519   000097                     efgtoa@l:
   520                           	callstack 0
   521                           
   522                           ; 4 bytes @ 0x37
   523   000097                     	ds	4
   524   00009B                     efgtoa@sign:
   525                           	callstack 0
   526                           
   527                           ; 1 bytes @ 0x3B
   528   00009B                     	ds	1
   529   00009C                     efgtoa@n:
   530                           	callstack 0
   531                           
   532                           ; 2 bytes @ 0x3C
   533   00009C                     	ds	2
   534   00009E                     efgtoa@g:
   535                           	callstack 0
   536                           
   537                           ; 4 bytes @ 0x3E
   538   00009E                     	ds	4
   539   0000A2                     efgtoa@u:
   540                           	callstack 0
   541                           
   542                           ; 4 bytes @ 0x42
   543   0000A2                     	ds	4
   544   0000A6                     vfpfcnvrt@fp:
   545                           	callstack 0
   546                           
   547                           ; 2 bytes @ 0x46
   548   0000A6                     	ds	2
   549   0000A8                     vfpfcnvrt@fmt:
   550                           	callstack 0
   551                           
   552                           ; 2 bytes @ 0x48
   553   0000A8                     	ds	2
   554   0000AA                     vfpfcnvrt@ap:
   555                           	callstack 0
   556                           
   557                           ; 2 bytes @ 0x4A
   558   0000AA                     	ds	2
   559   0000AC                     ??_vfpfcnvrt:
   560                           
   561                           ; 1 bytes @ 0x4C
   562   0000AC                     	ds	2
   563   0000AE                     vfpfcnvrt@convarg:
   564                           	callstack 0
   565                           
   566                           ; 8 bytes @ 0x4E
   567   0000AE                     	ds	8
   568   0000B6                     vfpfcnvrt@c:
   569                           	callstack 0
   570                           
   571                           ; 1 bytes @ 0x56
   572   0000B6                     	ds	1
   573   0000B7                     vfpfcnvrt@cp:
   574                           	callstack 0
   575                           
   576                           ; 2 bytes @ 0x57
   577   0000B7                     	ds	2
   578   0000B9                     ?_vfprintf:
   579                           	callstack 0
   580   0000B9                     vfprintf@fp:
   581                           	callstack 0
   582                           
   583                           ; 2 bytes @ 0x59
   584   0000B9                     	ds	2
   585   0000BB                     vfprintf@fmt:
   586                           	callstack 0
   587                           
   588                           ; 2 bytes @ 0x5B
   589   0000BB                     	ds	2
   590   0000BD                     vfprintf@ap:
   591                           	callstack 0
   592                           
   593                           ; 2 bytes @ 0x5D
   594   0000BD                     	ds	2
   595   0000BF                     vfprintf@cfmt:
   596                           	callstack 0
   597                           
   598                           ; 2 bytes @ 0x5F
   599   0000BF                     	ds	2
   600   0000C1                     ?_sprintf:
   601                           	callstack 0
   602   0000C1                     sprintf@s:
   603                           	callstack 0
   604                           
   605                           ; 2 bytes @ 0x61
   606   0000C1                     	ds	2
   607   0000C3                     sprintf@fmt:
   608                           	callstack 0
   609                           
   610                           ; 2 bytes @ 0x63
   611   0000C3                     	ds	22
   612   0000D9                     sprintf@ap:
   613                           	callstack 0
   614                           
   615                           ; 2 bytes @ 0x79
   616   0000D9                     	ds	2
   617   0000DB                     sprintf@f:
   618                           	callstack 0
   619                           
   620                           ; 11 bytes @ 0x7B
   621   0000DB                     	ds	11
   622   0000E6                     Color2String@buf:
   623                           	callstack 0
   624                           
   625                           ; 2 bytes @ 0x86
   626   0000E6                     	ds	2
   627   0000E8                     Color2String@cf:
   628                           	callstack 0
   629                           
   630                           ; 2 bytes @ 0x88
   631   0000E8                     	ds	2
   632   0000EA                     ??_main:
   633                           
   634                           ; 1 bytes @ 0x8A
   635   0000EA                     	ds	2
   636                           
   637                           	psect	cstackCOMRAM
   638   000001                     __pcstackCOMRAM:
   639                           	callstack 0
   640   000001                     ??_I2C_2_Master_Idle:
   641   000001                     ?___fpclassifyf:
   642                           	callstack 0
   643   000001                     ?_labs:
   644                           	callstack 0
   645   000001                     ?___flneg:
   646                           	callstack 0
   647   000001                     ?___fltol:
   648                           	callstack 0
   649   000001                     ClickLEDOn@power:
   650                           	callstack 0
   651   000001                     sendCharSerial4@charToSend:
   652                           	callstack 0
   653   000001                     memcpy@d1:
   654                           	callstack 0
   655   000001                     fputc@c:
   656                           	callstack 0
   657   000001                     strcpy@dest:
   658                           	callstack 0
   659   000001                     ___fleq@ff1:
   660                           	callstack 0
   661   000001                     ___flneg@f1:
   662                           	callstack 0
   663   000001                     ___fltol@f1:
   664                           	callstack 0
   665   000001                     ___fpclassifyf@x:
   666                           	callstack 0
   667   000001                     labs@a:
   668                           	callstack 0
   669                           
   670                           ; 4 bytes @ 0x0
   671   000001                     	ds	1
   672   000002                     ??_I2C_2_Master_Read:
   673   000002                     I2C_2_Master_Write@data_byte:
   674                           	callstack 0
   675   000002                     sendStringSerial4@string:
   676                           	callstack 0
   677                           
   678                           ; 2 bytes @ 0x1
   679   000002                     	ds	1
   680   000003                     color_writetoaddr@value:
   681                           	callstack 0
   682   000003                     I2C_2_Master_Read@ack:
   683                           	callstack 0
   684   000003                     memcpy@s1:
   685                           	callstack 0
   686   000003                     fputc@fp:
   687                           	callstack 0
   688   000003                     strcpy@src:
   689                           	callstack 0
   690                           
   691                           ; 2 bytes @ 0x2
   692   000003                     	ds	1
   693   000004                     color_writetoaddr@address:
   694                           	callstack 0
   695   000004                     I2C_2_Master_Read@tmp:
   696                           	callstack 0
   697                           
   698                           ; 1 bytes @ 0x3
   699   000004                     	ds	1
   700   000005                     ??_fputc:
   701   000005                     ??___fpclassifyf:
   702   000005                     ??_labs:
   703   000005                     ??_color_click_init:
   704   000005                     ??___fltol:
   705   000005                     ?_color_read_Red:
   706                           	callstack 0
   707   000005                     ?_color_read_Green:
   708                           	callstack 0
   709   000005                     ?_color_read_Blue:
   710                           	callstack 0
   711   000005                     ?_color_read_Clear:
   712                           	callstack 0
   713   000005                     memcpy@n:
   714                           	callstack 0
   715   000005                     strcpy@s:
   716                           	callstack 0
   717   000005                     ___fleq@ff2:
   718                           	callstack 0
   719                           
   720                           ; 4 bytes @ 0x4
   721   000005                     	ds	2
   722   000007                     ??_color_read_Red:
   723   000007                     ??_color_read_Green:
   724   000007                     ??_color_read_Blue:
   725   000007                     ??_color_read_Clear:
   726   000007                     memcpy@d:
   727                           	callstack 0
   728   000007                     strcpy@d:
   729                           	callstack 0
   730                           
   731                           ; 2 bytes @ 0x6
   732   000007                     	ds	2
   733   000009                     ??___fleq:
   734   000009                     ___fltol@sign1:
   735                           	callstack 0
   736   000009                     ___fpclassifyf@e:
   737                           	callstack 0
   738   000009                     memcpy@s:
   739                           	callstack 0
   740                           
   741                           ; 2 bytes @ 0x8
   742   000009                     	ds	1
   743   00000A                     ___fltol@exp1:
   744                           	callstack 0
   745   00000A                     color_read_Red@tmp:
   746                           	callstack 0
   747   00000A                     color_read_Green@tmp:
   748                           	callstack 0
   749   00000A                     color_read_Blue@tmp:
   750                           	callstack 0
   751   00000A                     color_read_Clear@tmp:
   752                           	callstack 0
   753   00000A                     fputs@s:
   754                           	callstack 0
   755                           
   756                           ; 2 bytes @ 0x9
   757   00000A                     	ds	1
   758   00000B                     memcpy@tmp:
   759                           	callstack 0
   760   00000B                     ___fpclassifyf@u:
   761                           	callstack 0
   762                           
   763                           ; 4 bytes @ 0xA
   764   00000B                     	ds	1
   765   00000C                     ?___xxtofl:
   766                           	callstack 0
   767   00000C                     fputs@fp:
   768                           	callstack 0
   769   00000C                     ___xxtofl@val:
   770                           	callstack 0
   771                           
   772                           ; 4 bytes @ 0xB
   773   00000C                     	ds	2
   774   00000E                     fputs@c:
   775                           	callstack 0
   776                           
   777                           ; 1 bytes @ 0xD
   778   00000E                     	ds	1
   779   00000F                     fputs@i:
   780                           	callstack 0
   781                           
   782                           ; 2 bytes @ 0xE
   783   00000F                     	ds	1
   784   000010                     ??___xxtofl:
   785                           
   786                           ; 1 bytes @ 0xF
   787   000010                     	ds	1
   788   000011                     pad@fp:
   789                           	callstack 0
   790                           
   791                           ; 2 bytes @ 0x10
   792   000011                     	ds	2
   793   000013                     pad@buf:
   794                           	callstack 0
   795                           
   796                           ; 2 bytes @ 0x12
   797   000013                     	ds	1
   798   000014                     ___xxtofl@sign:
   799                           	callstack 0
   800                           
   801                           ; 1 bytes @ 0x13
   802   000014                     	ds	1
   803   000015                     ___xxtofl@exp:
   804                           	callstack 0
   805   000015                     pad@p:
   806                           	callstack 0
   807                           
   808                           ; 2 bytes @ 0x14
   809   000015                     	ds	1
   810   000016                     ___xxtofl@arg:
   811                           	callstack 0
   812                           
   813                           ; 4 bytes @ 0x15
   814   000016                     	ds	1
   815   000017                     ??_pad:
   816                           
   817                           ; 1 bytes @ 0x16
   818   000017                     	ds	1
   819   000018                     pad@i:
   820                           	callstack 0
   821                           
   822                           ; 2 bytes @ 0x17
   823   000018                     	ds	2
   824   00001A                     ?___fladd:
   825                           	callstack 0
   826   00001A                     colour_read_all@cf:
   827                           	callstack 0
   828   00001A                     pad@w:
   829                           	callstack 0
   830   00001A                     ___fladd@b:
   831                           	callstack 0
   832                           
   833                           ; 4 bytes @ 0x19
   834   00001A                     	ds	2
   835   00001C                     colour_read_all@R:
   836                           	callstack 0
   837                           
   838                           ; 4 bytes @ 0x1B
   839   00001C                     	ds	2
   840   00001E                     ___fladd@a:
   841                           	callstack 0
   842                           
   843                           ; 4 bytes @ 0x1D
   844   00001E                     	ds	2
   845   000020                     colour_read_all@G:
   846                           	callstack 0
   847                           
   848                           ; 4 bytes @ 0x1F
   849   000020                     	ds	2
   850   000022                     ??___fladd:
   851                           
   852                           ; 1 bytes @ 0x21
   853   000022                     	ds	2
   854   000024                     colour_read_all@B:
   855                           	callstack 0
   856                           
   857                           ; 4 bytes @ 0x23
   858   000024                     	ds	2
   859   000026                     ___fladd@signs:
   860                           	callstack 0
   861                           
   862                           ; 1 bytes @ 0x25
   863   000026                     	ds	1
   864   000027                     ___fladd@aexp:
   865                           	callstack 0
   866                           
   867                           ; 1 bytes @ 0x26
   868   000027                     	ds	1
   869   000028                     ___fladd@bexp:
   870                           	callstack 0
   871   000028                     colour_read_all@C:
   872                           	callstack 0
   873                           
   874                           ; 4 bytes @ 0x27
   875   000028                     	ds	1
   876   000029                     ___fladd@grs:
   877                           	callstack 0
   878                           
   879                           ; 1 bytes @ 0x28
   880   000029                     	ds	1
   881   00002A                     ?___flsub:
   882                           	callstack 0
   883   00002A                     ___flsub@b:
   884                           	callstack 0
   885                           
   886                           ; 4 bytes @ 0x29
   887   00002A                     	ds	4
   888   00002E                     ___flsub@a:
   889                           	callstack 0
   890                           
   891                           ; 4 bytes @ 0x2D
   892   00002E                     	ds	4
   893   000032                     ?___fldiv:
   894                           	callstack 0
   895   000032                     ___fldiv@b:
   896                           	callstack 0
   897                           
   898                           ; 4 bytes @ 0x31
   899   000032                     	ds	4
   900   000036                     ___fldiv@a:
   901                           	callstack 0
   902                           
   903                           ; 4 bytes @ 0x35
   904   000036                     	ds	4
   905   00003A                     ??___fldiv:
   906                           
   907                           ; 1 bytes @ 0x39
   908   00003A                     	ds	4
   909   00003E                     ___fldiv@rem:
   910                           	callstack 0
   911                           
   912                           ; 4 bytes @ 0x3D
   913   00003E                     	ds	4
   914   000042                     ___fldiv@sign:
   915                           	callstack 0
   916                           
   917                           ; 1 bytes @ 0x41
   918   000042                     	ds	1
   919   000043                     ___fldiv@new_exp:
   920                           	callstack 0
   921                           
   922                           ; 2 bytes @ 0x42
   923   000043                     	ds	2
   924   000045                     ___fldiv@grs:
   925                           	callstack 0
   926                           
   927                           ; 4 bytes @ 0x44
   928   000045                     	ds	4
   929   000049                     ___fldiv@bexp:
   930                           	callstack 0
   931                           
   932                           ; 1 bytes @ 0x48
   933   000049                     	ds	1
   934   00004A                     ___fldiv@aexp:
   935                           	callstack 0
   936                           
   937                           ; 1 bytes @ 0x49
   938   00004A                     	ds	1
   939   00004B                     ?___flmul:
   940                           	callstack 0
   941   00004B                     ?_floorf:
   942                           	callstack 0
   943   00004B                     ___flmul@b:
   944                           	callstack 0
   945   00004B                     floorf@x:
   946                           	callstack 0
   947                           
   948                           ; 4 bytes @ 0x4A
   949   00004B                     	ds	4
   950   00004F                     ??_floorf:
   951   00004F                     ___flmul@a:
   952                           	callstack 0
   953                           
   954                           ; 4 bytes @ 0x4E
   955   00004F                     	ds	4
   956   000053                     ??___flmul:
   957                           
   958                           ; 1 bytes @ 0x52
   959   000053                     	ds	2
   960   000055                     floorf@m:
   961                           	callstack 0
   962                           
   963                           ; 4 bytes @ 0x54
   964   000055                     	ds	2
   965   000057                     ___flge@ff1:
   966                           	callstack 0
   967                           
   968                           ; 4 bytes @ 0x56
   969   000057                     	ds	2
   970   000059                     floorf@e:
   971                           	callstack 0
   972                           
   973                           ; 2 bytes @ 0x58
   974   000059                     	ds	2
   975   00005B                     ___flge@ff2:
   976                           	callstack 0
   977   00005B                     floorf@u:
   978                           	callstack 0
   979                           
   980                           ; 4 bytes @ 0x5A
   981   00005B                     	ds	4
   982   00005F                     
   983                           ; 1 bytes @ 0x5E
   984 ;;
   985 ;;Main: autosize = 0, tempsize = 2, incstack = 0, save=0
   986 ;;
   987 ;; *************** function _main *****************
   988 ;; Defined at:
   989 ;;		line 15 in file "main.c"
   990 ;; Parameters:    Size  Location     Type
   991 ;;		None
   992 ;; Auto vars:     Size  Location     Type
   993 ;;  data           80    0[BANK1 ] unsigned char [80]
   994 ;;  wall            1   80[BANK1 ] unsigned char 
   995 ;; Return value:  Size  Location     Type
   996 ;;                  1    wreg      void 
   997 ;; Registers used:
   998 ;;		wreg, fsr1l, fsr1h, fsr2l, fsr2h, status,2, status,0, tblptrl, tblptrh, tblptru, prodl, prodh, cstack
   999 ;; Tracked objects:
  1000 ;;		On entry : 0/0
  1001 ;;		On exit  : 0/0
  1002 ;;		Unchanged: 0/0
  1003 ;; Data sizes:     COMRAM   BANK0   BANK1   BANK2   BANK3   BANK4   BANK5   BANK6   BANK7   BANK8   BANK9  BANK10  BANK1
      +1  BANK12  BANK13
  1004 ;;      Params:         0       0       0       0       0       0       0       0       0       0       0       0       
      +0       0       0
  1005 ;;      Locals:         0       0      81       0       0       0       0       0       0       0       0       0       
      +0       0       0
  1006 ;;      Temps:          0       2       0       0       0       0       0       0       0       0       0       0       
      +0       0       0
  1007 ;;      Totals:         0       2      81       0       0       0       0       0       0       0       0       0       
      +0       0       0
  1008 ;;Total ram usage:       83 bytes
  1009 ;; Hardware stack levels required when called: 9
  1010 ;; This function calls:
  1011 ;;		_ClickLEDOn
  1012 ;;		_Color2String
  1013 ;;		_I2C_2_Master_Init
  1014 ;;		_RGB2Hue
  1015 ;;		___flge
  1016 ;;		_color_click_init
  1017 ;;		_colour_read_all
  1018 ;;		_initUSART4
  1019 ;; This function is called by:
  1020 ;;		Startup code after reset
  1021 ;; This function uses a non-reentrant model
  1022 ;;
  1023                           
  1024                           	psect	text0
  1025   003A42                     __ptext0:
  1026                           	callstack 0
  1027   003A42                     _main:
  1028                           	callstack 22
  1029   003A42                     
  1030                           ;main.c: 16:     char data[80];;main.c: 17:     initUSART4();
  1031   003A42  EC04  F022         	call	_initUSART4	;wreg free
  1032   003A46                     
  1033                           ;main.c: 18:     color_click_init();
  1034   003A46  EC4A  F021         	call	_color_click_init	;wreg free
  1035   003A4A                     
  1036                           ;main.c: 19:     I2C_2_Master_Init();
  1037   003A4A  ECDB  F021         	call	_I2C_2_Master_Init	;wreg free
  1038   003A4E                     
  1039                           ;main.c: 21:     char wall=0;
  1040   003A4E  0E00               	movlw	0
  1041   003A50  0101               	movlb	1	; () banked
  1042   003A52  6FC8               	movwf	main@wall& (0+255),b
  1043   003A54  EF69  F01D         	goto	l3833
  1044   003A58                     l3821:
  1045                           
  1046                           ; BSR set to: 1
  1047                           ;main.c: 25:             colour_read_all(&colorf);
  1048   003A58  0E62               	movlw	low _colorf
  1049   003A5A  6E1A               	movwf	colour_read_all@cf^0,c
  1050   003A5C  0E01               	movlw	high _colorf
  1051   003A5E  6E1B               	movwf	(colour_read_all@cf+1)^0,c
  1052   003A60  EC98  F01B         	call	_colour_read_all	;wreg free
  1053   003A64                     
  1054                           ;main.c: 26:             Color2String(data,&colorf);
  1055   003A64  0E78               	movlw	low main@data
  1056   003A66  0100               	movlb	0	; () banked
  1057   003A68  6FE6               	movwf	Color2String@buf& (0+255),b
  1058   003A6A  0E01               	movlw	high main@data
  1059   003A6C  6FE7               	movwf	(Color2String@buf+1)& (0+255),b
  1060   003A6E  0E62               	movlw	low _colorf
  1061   003A70  6FE8               	movwf	Color2String@cf& (0+255),b
  1062   003A72  0E01               	movlw	high _colorf
  1063   003A74  6FE9               	movwf	(Color2String@cf+1)& (0+255),b
  1064   003A76  EC85  F01E         	call	_Color2String	;wreg free
  1065   003A7A                     
  1066                           ;main.c: 30:              if (colorf.Cf<1500)
  1067   003A7A  C16E  F057         	movff	_colorf+12,___flge@ff1
  1068   003A7E  C16F  F058         	movff	_colorf+13,___flge@ff1+1
  1069   003A82  C170  F059         	movff	_colorf+14,___flge@ff1+2
  1070   003A86  C171  F05A         	movff	_colorf+15,___flge@ff1+3
  1071   003A8A  0E00               	movlw	0
  1072   003A8C  6E5B               	movwf	___flge@ff2^0,c
  1073   003A8E  0E80               	movlw	128
  1074   003A90  6E5C               	movwf	(___flge@ff2+1)^0,c
  1075   003A92  0EBB               	movlw	187
  1076   003A94  6E5D               	movwf	(___flge@ff2+2)^0,c
  1077   003A96  0E44               	movlw	68
  1078   003A98  6E5E               	movwf	(___flge@ff2+3)^0,c
  1079   003A9A  EC9E  F01C         	call	___flge	;wreg free
  1080   003A9E  B0D8               	btfsc	status,0,c
  1081   003AA0  EF54  F01D         	goto	u4121
  1082   003AA4  EF56  F01D         	goto	u4120
  1083   003AA8                     u4121:
  1084   003AA8  EF69  F01D         	goto	l3833
  1085   003AAC                     u4120:
  1086   003AAC                     
  1087                           ;main.c: 31:              {;main.c: 33:                  wall=1;
  1088   003AAC  0E01               	movlw	1
  1089   003AAE  0101               	movlb	1	; () banked
  1090   003AB0  6FC8               	movwf	main@wall& (0+255),b
  1091   003AB2                     
  1092                           ; BSR set to: 1
  1093                           ;main.c: 34:                  ClickLEDOn(1);
  1094   003AB2  0E01               	movlw	1
  1095   003AB4  ECC1  F021         	call	_ClickLEDOn
  1096   003AB8                     
  1097                           ;main.c: 35:                  _delay((unsigned long)((1000)*(64000000/4000.0)));
  1098   003AB8  0E52               	movlw	82
  1099   003ABA  0100               	movlb	0	; () banked
  1100   003ABC  6FEB               	movwf	(??_main+1)& (0+255),b
  1101   003ABE  0E2B               	movlw	43
  1102   003AC0  6FEA               	movwf	??_main& (0+255),b
  1103   003AC2  0E00               	movlw	0
  1104   003AC4                     u4147:
  1105   003AC4  2EE8               	decfsz	wreg,f,c
  1106   003AC6  D7FE               	bra	u4147
  1107   003AC8  2FEA               	decfsz	??_main& (0+255),f,b
  1108   003ACA  D7FC               	bra	u4147
  1109   003ACC  2FEB               	decfsz	(??_main+1)& (0+255),f,b
  1110   003ACE  D7FA               	bra	u4147
  1111   003AD0  F000               	nop	
  1112   003AD2                     l3833:
  1113                           
  1114                           ;main.c: 24:         while (!wall){
  1115   003AD2  0101               	movlb	1	; () banked
  1116   003AD4  51C8               	movf	main@wall& (0+255),w,b
  1117   003AD6  B4D8               	btfsc	status,2,c
  1118   003AD8  EF70  F01D         	goto	u4131
  1119   003ADC  EF72  F01D         	goto	u4130
  1120   003AE0                     u4131:
  1121   003AE0  EF2C  F01D         	goto	l3821
  1122   003AE4                     u4130:
  1123   003AE4                     
  1124                           ; BSR set to: 1
  1125                           ;main.c: 38:         colour_read_all(&colorf);
  1126   003AE4  0E62               	movlw	low _colorf
  1127   003AE6  6E1A               	movwf	colour_read_all@cf^0,c
  1128   003AE8  0E01               	movlw	high _colorf
  1129   003AEA  6E1B               	movwf	(colour_read_all@cf+1)^0,c
  1130   003AEC  EC98  F01B         	call	_colour_read_all	;wreg free
  1131   003AF0                     
  1132                           ;main.c: 39:         RGB2Hue(&colorf);
  1133   003AF0  0E62               	movlw	low _colorf
  1134   003AF2  0100               	movlb	0	; () banked
  1135   003AF4  6F71               	movwf	RGB2Hue@cf& (0+255),b
  1136   003AF6  0E01               	movlw	high _colorf
  1137   003AF8  6F72               	movwf	(RGB2Hue@cf+1)& (0+255),b
  1138   003AFA  EC35  F00C         	call	_RGB2Hue	;wreg free
  1139   003AFE                     
  1140                           ;main.c: 42:         Color2String(data,&colorf);
  1141   003AFE  0E78               	movlw	low main@data
  1142   003B00  0100               	movlb	0	; () banked
  1143   003B02  6FE6               	movwf	Color2String@buf& (0+255),b
  1144   003B04  0E01               	movlw	high main@data
  1145   003B06  6FE7               	movwf	(Color2String@buf+1)& (0+255),b
  1146   003B08  0E62               	movlw	low _colorf
  1147   003B0A  6FE8               	movwf	Color2String@cf& (0+255),b
  1148   003B0C  0E01               	movlw	high _colorf
  1149   003B0E  6FE9               	movwf	(Color2String@cf+1)& (0+255),b
  1150   003B10  EC85  F01E         	call	_Color2String	;wreg free
  1151   003B14                     
  1152                           ;main.c: 43:         _delay((unsigned long)((1000)*(64000000/4000.0)));
  1153   003B14  0E52               	movlw	82
  1154   003B16  0100               	movlb	0	; () banked
  1155   003B18  6FEB               	movwf	(??_main+1)& (0+255),b
  1156   003B1A  0E2B               	movlw	43
  1157   003B1C  6FEA               	movwf	??_main& (0+255),b
  1158   003B1E  0E00               	movlw	0
  1159   003B20                     u4157:
  1160   003B20  2EE8               	decfsz	wreg,f,c
  1161   003B22  D7FE               	bra	u4157
  1162   003B24  2FEA               	decfsz	??_main& (0+255),f,b
  1163   003B26  D7FC               	bra	u4157
  1164   003B28  2FEB               	decfsz	(??_main+1)& (0+255),f,b
  1165   003B2A  D7FA               	bra	u4157
  1166   003B2C  F000               	nop	
  1167   003B2E                     
  1168                           ;main.c: 44:         wall=0;
  1169   003B2E  0E00               	movlw	0
  1170   003B30  0101               	movlb	1	; () banked
  1171   003B32  6FC8               	movwf	main@wall& (0+255),b
  1172   003B34                     
  1173                           ; BSR set to: 1
  1174                           ;main.c: 45:         ClickLEDOn(0);
  1175   003B34  0E00               	movlw	0
  1176   003B36  ECC1  F021         	call	_ClickLEDOn
  1177   003B3A  EF69  F01D         	goto	l3833
  1178   003B3E  EF00  F000         	goto	start
  1179   003B42                     __end_of_main:
  1180                           	callstack 0
  1181                           
  1182 ;; *************** function _initUSART4 *****************
  1183 ;; Defined at:
  1184 ;;		line 7 in file "serial.c"
  1185 ;; Parameters:    Size  Location     Type
  1186 ;;		None
  1187 ;; Auto vars:     Size  Location     Type
  1188 ;;		None
  1189 ;; Return value:  Size  Location     Type
  1190 ;;                  1    wreg      void 
  1191 ;; Registers used:
  1192 ;;		wreg, status,2
  1193 ;; Tracked objects:
  1194 ;;		On entry : 0/0
  1195 ;;		On exit  : 0/0
  1196 ;;		Unchanged: 0/0
  1197 ;; Data sizes:     COMRAM   BANK0   BANK1   BANK2   BANK3   BANK4   BANK5   BANK6   BANK7   BANK8   BANK9  BANK10  BANK1
      +1  BANK12  BANK13
  1198 ;;      Params:         0       0       0       0       0       0       0       0       0       0       0       0       
      +0       0       0
  1199 ;;      Locals:         0       0       0       0       0       0       0       0       0       0       0       0       
      +0       0       0
  1200 ;;      Temps:          0       0       0       0       0       0       0       0       0       0       0       0       
      +0       0       0
  1201 ;;      Totals:         0       0       0       0       0       0       0       0       0       0       0       0       
      +0       0       0
  1202 ;;Total ram usage:        0 bytes
  1203 ;; Hardware stack levels used: 1
  1204 ;; This function calls:
  1205 ;;		Nothing
  1206 ;; This function is called by:
  1207 ;;		_main
  1208 ;; This function uses a non-reentrant model
  1209 ;;
  1210                           
  1211                           	psect	text1
  1212   004408                     __ptext1:
  1213                           	callstack 0
  1214   004408                     _initUSART4:
  1215                           	callstack 30
  1216   004408                     
  1217                           ;serial.c: 8:     TRISCbits.TRISC4=1;
  1218   004408  8883               	bsf	131,4,c	;volatile
  1219                           
  1220                           ;serial.c: 9:     TRISCbits.TRISC1=1;
  1221   00440A  8283               	bsf	131,1,c	;volatile
  1222   00440C                     
  1223                           ;serial.c: 10:     RC0PPS = 0x12;
  1224   00440C  0E12               	movlw	18
  1225   00440E  010E               	movlb	14	; () banked
  1226   004410  6F62               	movwf	98,b	;volatile
  1227                           
  1228                           ;serial.c: 11:     RX4PPS = 0x11;
  1229   004412  0E11               	movlw	17
  1230   004414  6F15               	movwf	21,b	;volatile
  1231   004416                     
  1232                           ; BSR set to: 14
  1233                           ;serial.c: 12:     BAUD4CONbits.BRG16 = 0;
  1234   004416  97E9               	bcf	233,3,b	;volatile
  1235   004418                     
  1236                           ; BSR set to: 14
  1237                           ;serial.c: 13:     TX4STAbits.BRGH = 0;
  1238   004418  95E8               	bcf	232,2,b	;volatile
  1239                           
  1240                           ;serial.c: 15:     SP4BRGL = 51;
  1241   00441A  0E33               	movlw	51
  1242   00441C  6FE5               	movwf	229,b	;volatile
  1243                           
  1244                           ;serial.c: 16:     SP4BRGH = 0;
  1245   00441E  0E00               	movlw	0
  1246   004420  6FE6               	movwf	230,b	;volatile
  1247   004422                     
  1248                           ; BSR set to: 14
  1249                           ;serial.c: 18:     RC4STAbits.CREN = 1;
  1250   004422  89E7               	bsf	231,4,b	;volatile
  1251   004424                     
  1252                           ; BSR set to: 14
  1253                           ;serial.c: 19:     TX4STAbits.TXEN = 1;
  1254   004424  8BE8               	bsf	232,5,b	;volatile
  1255   004426                     
  1256                           ; BSR set to: 14
  1257                           ;serial.c: 20:     RC4STAbits.SPEN = 1;
  1258   004426  8FE7               	bsf	231,7,b	;volatile
  1259   004428                     
  1260                           ; BSR set to: 14
  1261   004428  0012               	return		;funcret
  1262   00442A                     __end_of_initUSART4:
  1263                           	callstack 0
  1264                           
  1265 ;; *************** function _colour_read_all *****************
  1266 ;; Defined at:
  1267 ;;		line 7 in file "colorfunctions.c"
  1268 ;; Parameters:    Size  Location     Type
  1269 ;;  cf              2   25[COMRAM] PTR struct RGBC_rel
  1270 ;;		 -> colorf(22), 
  1271 ;; Auto vars:     Size  Location     Type
  1272 ;;  C               4   39[COMRAM] float 
  1273 ;;  B               4   35[COMRAM] float 
  1274 ;;  G               4   31[COMRAM] float 
  1275 ;;  R               4   27[COMRAM] float 
  1276 ;; Return value:  Size  Location     Type
  1277 ;;                  1    wreg      void 
  1278 ;; Registers used:
  1279 ;;		wreg, fsr2l, fsr2h, status,2, status,0, cstack
  1280 ;; Tracked objects:
  1281 ;;		On entry : 0/0
  1282 ;;		On exit  : 0/0
  1283 ;;		Unchanged: 0/0
  1284 ;; Data sizes:     COMRAM   BANK0   BANK1   BANK2   BANK3   BANK4   BANK5   BANK6   BANK7   BANK8   BANK9  BANK10  BANK1
      +1  BANK12  BANK13
  1285 ;;      Params:         2       0       0       0       0       0       0       0       0       0       0       0       
      +0       0       0
  1286 ;;      Locals:        16       0       0       0       0       0       0       0       0       0       0       0       
      +0       0       0
  1287 ;;      Temps:          0       0       0       0       0       0       0       0       0       0       0       0       
      +0       0       0
  1288 ;;      Totals:        18       0       0       0       0       0       0       0       0       0       0       0       
      +0       0       0
  1289 ;;Total ram usage:       18 bytes
  1290 ;; Hardware stack levels used: 1
  1291 ;; Hardware stack levels required when called: 3
  1292 ;; This function calls:
  1293 ;;		___xxtofl
  1294 ;;		_color_read_Blue
  1295 ;;		_color_read_Clear
  1296 ;;		_color_read_Green
  1297 ;;		_color_read_Red
  1298 ;; This function is called by:
  1299 ;;		_main
  1300 ;; This function uses a non-reentrant model
  1301 ;;
  1302                           
  1303                           	psect	text2
  1304   003730                     __ptext2:
  1305                           	callstack 0
  1306   003730                     _colour_read_all:
  1307                           	callstack 27
  1308   003730                     
  1309                           ;colorfunctions.c: 9:     float R = color_read_Red();
  1310   003730  ECFA  F01F         	call	_color_read_Red	;wreg free
  1311   003734  C005  F00C         	movff	?_color_read_Red,___xxtofl@val
  1312   003738  C006  F00D         	movff	?_color_read_Red+1,___xxtofl@val+1
  1313   00373C  6A0E               	clrf	(___xxtofl@val+2)^0,c
  1314   00373E  6A0F               	clrf	(___xxtofl@val+3)^0,c
  1315   003740  0E00               	movlw	0
  1316   003742  ECBE  F01A         	call	___xxtofl
  1317   003746  C00C  F01C         	movff	?___xxtofl,colour_read_all@R
  1318   00374A  C00D  F01D         	movff	?___xxtofl+1,colour_read_all@R+1
  1319   00374E  C00E  F01E         	movff	?___xxtofl+2,colour_read_all@R+2
  1320   003752  C00F  F01F         	movff	?___xxtofl+3,colour_read_all@R+3
  1321                           
  1322                           ;colorfunctions.c: 10:     float G= color_read_Green();
  1323   003756  EC22  F020         	call	_color_read_Green	;wreg free
  1324   00375A  C005  F00C         	movff	?_color_read_Green,___xxtofl@val
  1325   00375E  C006  F00D         	movff	?_color_read_Green+1,___xxtofl@val+1
  1326   003762  6A0E               	clrf	(___xxtofl@val+2)^0,c
  1327   003764  6A0F               	clrf	(___xxtofl@val+3)^0,c
  1328   003766  0E00               	movlw	0
  1329   003768  ECBE  F01A         	call	___xxtofl
  1330   00376C  C00C  F020         	movff	?___xxtofl,colour_read_all@G
  1331   003770  C00D  F021         	movff	?___xxtofl+1,colour_read_all@G+1
  1332   003774  C00E  F022         	movff	?___xxtofl+2,colour_read_all@G+2
  1333   003778  C00F  F023         	movff	?___xxtofl+3,colour_read_all@G+3
  1334                           
  1335                           ;colorfunctions.c: 11:     float B= color_read_Blue();
  1336   00377C  EC72  F020         	call	_color_read_Blue	;wreg free
  1337   003780  C005  F00C         	movff	?_color_read_Blue,___xxtofl@val
  1338   003784  C006  F00D         	movff	?_color_read_Blue+1,___xxtofl@val+1
  1339   003788  6A0E               	clrf	(___xxtofl@val+2)^0,c
  1340   00378A  6A0F               	clrf	(___xxtofl@val+3)^0,c
  1341   00378C  0E00               	movlw	0
  1342   00378E  ECBE  F01A         	call	___xxtofl
  1343   003792  C00C  F024         	movff	?___xxtofl,colour_read_all@B
  1344   003796  C00D  F025         	movff	?___xxtofl+1,colour_read_all@B+1
  1345   00379A  C00E  F026         	movff	?___xxtofl+2,colour_read_all@B+2
  1346   00379E  C00F  F027         	movff	?___xxtofl+3,colour_read_all@B+3
  1347                           
  1348                           ;colorfunctions.c: 12:     float C= color_read_Clear();
  1349   0037A2  EC4A  F020         	call	_color_read_Clear	;wreg free
  1350   0037A6  C005  F00C         	movff	?_color_read_Clear,___xxtofl@val
  1351   0037AA  C006  F00D         	movff	?_color_read_Clear+1,___xxtofl@val+1
  1352   0037AE  6A0E               	clrf	(___xxtofl@val+2)^0,c
  1353   0037B0  6A0F               	clrf	(___xxtofl@val+3)^0,c
  1354   0037B2  0E00               	movlw	0
  1355   0037B4  ECBE  F01A         	call	___xxtofl
  1356   0037B8  C00C  F028         	movff	?___xxtofl,colour_read_all@C
  1357   0037BC  C00D  F029         	movff	?___xxtofl+1,colour_read_all@C+1
  1358   0037C0  C00E  F02A         	movff	?___xxtofl+2,colour_read_all@C+2
  1359   0037C4  C00F  F02B         	movff	?___xxtofl+3,colour_read_all@C+3
  1360   0037C8                     
  1361                           ;colorfunctions.c: 16:     (cf->Rf)=R;
  1362   0037C8  C01A  FFD9         	movff	colour_read_all@cf,fsr2l
  1363   0037CC  C01B  FFDA         	movff	colour_read_all@cf+1,fsr2h
  1364   0037D0  C01C  FFDE         	movff	colour_read_all@R,postinc2
  1365   0037D4  C01D  FFDE         	movff	colour_read_all@R+1,postinc2
  1366   0037D8  C01E  FFDE         	movff	colour_read_all@R+2,postinc2
  1367   0037DC  C01F  FFDE         	movff	colour_read_all@R+3,postinc2
  1368   0037E0                     
  1369                           ;colorfunctions.c: 17:     (cf->Bf)=B;
  1370   0037E0  EE20 F008          	lfsr	2,8
  1371   0037E4  501A               	movf	colour_read_all@cf^0,w,c
  1372   0037E6  26D9               	addwf	fsr2l,f,c
  1373   0037E8  501B               	movf	(colour_read_all@cf+1)^0,w,c
  1374   0037EA  22DA               	addwfc	fsr2h,f,c
  1375   0037EC  C024  FFDE         	movff	colour_read_all@B,postinc2
  1376   0037F0  C025  FFDE         	movff	colour_read_all@B+1,postinc2
  1377   0037F4  C026  FFDE         	movff	colour_read_all@B+2,postinc2
  1378   0037F8  C027  FFDE         	movff	colour_read_all@B+3,postinc2
  1379   0037FC                     
  1380                           ;colorfunctions.c: 18:     (cf->Gf)=G;
  1381   0037FC  EE20 F004          	lfsr	2,4
  1382   003800  501A               	movf	colour_read_all@cf^0,w,c
  1383   003802  26D9               	addwf	fsr2l,f,c
  1384   003804  501B               	movf	(colour_read_all@cf+1)^0,w,c
  1385   003806  22DA               	addwfc	fsr2h,f,c
  1386   003808  C020  FFDE         	movff	colour_read_all@G,postinc2
  1387   00380C  C021  FFDE         	movff	colour_read_all@G+1,postinc2
  1388   003810  C022  FFDE         	movff	colour_read_all@G+2,postinc2
  1389   003814  C023  FFDE         	movff	colour_read_all@G+3,postinc2
  1390   003818                     
  1391                           ;colorfunctions.c: 19:     (cf->Cf)=C;
  1392   003818  EE20 F00C          	lfsr	2,12
  1393   00381C  501A               	movf	colour_read_all@cf^0,w,c
  1394   00381E  26D9               	addwf	fsr2l,f,c
  1395   003820  501B               	movf	(colour_read_all@cf+1)^0,w,c
  1396   003822  22DA               	addwfc	fsr2h,f,c
  1397   003824  C028  FFDE         	movff	colour_read_all@C,postinc2
  1398   003828  C029  FFDE         	movff	colour_read_all@C+1,postinc2
  1399   00382C  C02A  FFDE         	movff	colour_read_all@C+2,postinc2
  1400   003830  C02B  FFDE         	movff	colour_read_all@C+3,postinc2
  1401   003834  0012               	return		;funcret
  1402   003836                     __end_of_colour_read_all:
  1403                           	callstack 0
  1404                           
  1405 ;; *************** function _color_read_Red *****************
  1406 ;; Defined at:
  1407 ;;		line 38 in file "colorclick.c"
  1408 ;; Parameters:    Size  Location     Type
  1409 ;;		None
  1410 ;; Auto vars:     Size  Location     Type
  1411 ;;  tmp             2    9[COMRAM] unsigned int 
  1412 ;; Return value:  Size  Location     Type
  1413 ;;                  2    4[COMRAM] unsigned int 
  1414 ;; Registers used:
  1415 ;;		wreg, status,2, status,0, cstack
  1416 ;; Tracked objects:
  1417 ;;		On entry : 0/0
  1418 ;;		On exit  : 0/0
  1419 ;;		Unchanged: 0/0
  1420 ;; Data sizes:     COMRAM   BANK0   BANK1   BANK2   BANK3   BANK4   BANK5   BANK6   BANK7   BANK8   BANK9  BANK10  BANK1
      +1  BANK12  BANK13
  1421 ;;      Params:         2       0       0       0       0       0       0       0       0       0       0       0       
      +0       0       0
  1422 ;;      Locals:         2       0       0       0       0       0       0       0       0       0       0       0       
      +0       0       0
  1423 ;;      Temps:          3       0       0       0       0       0       0       0       0       0       0       0       
      +0       0       0
  1424 ;;      Totals:         7       0       0       0       0       0       0       0       0       0       0       0       
      +0       0       0
  1425 ;;Total ram usage:        7 bytes
  1426 ;; Hardware stack levels used: 1
  1427 ;; Hardware stack levels required when called: 2
  1428 ;; This function calls:
  1429 ;;		_I2C_2_Master_Read
  1430 ;;		_I2C_2_Master_RepStart
  1431 ;;		_I2C_2_Master_Start
  1432 ;;		_I2C_2_Master_Stop
  1433 ;;		_I2C_2_Master_Write
  1434 ;; This function is called by:
  1435 ;;		_colour_read_all
  1436 ;; This function uses a non-reentrant model
  1437 ;;
  1438                           
  1439                           	psect	text3
  1440   003FF4                     __ptext3:
  1441                           	callstack 0
  1442   003FF4                     _color_read_Red:
  1443                           	callstack 27
  1444   003FF4                     
  1445                           ;colorclick.c: 40:  unsigned int tmp;;colorclick.c: 41:  I2C_2_Master_Start();
  1446   003FF4  EC41  F022         	call	_I2C_2_Master_Start	;wreg free
  1447                           
  1448                           ;colorclick.c: 42:  I2C_2_Master_Write(0x52 | 0x00);
  1449   003FF8  0E52               	movlw	82
  1450   003FFA  EC31  F022         	call	_I2C_2_Master_Write
  1451                           
  1452                           ;colorclick.c: 43:  I2C_2_Master_Write(0xA0 | 0x16);
  1453   003FFE  0EB6               	movlw	182
  1454   004000  EC31  F022         	call	_I2C_2_Master_Write
  1455                           
  1456                           ;colorclick.c: 44:  I2C_2_Master_RepStart();
  1457   004004  EC37  F022         	call	_I2C_2_Master_RepStart	;wreg free
  1458                           
  1459                           ;colorclick.c: 45:  I2C_2_Master_Write(0x52 | 0x01);
  1460   004008  0E53               	movlw	83
  1461   00400A  EC31  F022         	call	_I2C_2_Master_Write
  1462                           
  1463                           ;colorclick.c: 46:  tmp=I2C_2_Master_Read(1);
  1464   00400E  0E01               	movlw	1
  1465   004010  EC29  F021         	call	_I2C_2_Master_Read
  1466   004014  6E07               	movwf	??_color_read_Red^0,c
  1467   004016  5007               	movf	??_color_read_Red^0,w,c
  1468   004018  6E0A               	movwf	color_read_Red@tmp^0,c
  1469   00401A  6A0B               	clrf	(color_read_Red@tmp+1)^0,c
  1470                           
  1471                           ;colorclick.c: 47:  tmp=tmp | (I2C_2_Master_Read(0)<<8);
  1472   00401C  0E00               	movlw	0
  1473   00401E  EC29  F021         	call	_I2C_2_Master_Read
  1474   004022  6E07               	movwf	??_color_read_Red^0,c
  1475   004024  5007               	movf	??_color_read_Red^0,w,c
  1476   004026  6E09               	movwf	(??_color_read_Red+2)^0,c
  1477   004028  6A08               	clrf	(??_color_read_Red+1)^0,c
  1478   00402A  500A               	movf	color_read_Red@tmp^0,w,c
  1479   00402C  1008               	iorwf	(??_color_read_Red+1)^0,w,c
  1480   00402E  6E0A               	movwf	color_read_Red@tmp^0,c
  1481   004030  500B               	movf	(color_read_Red@tmp+1)^0,w,c
  1482   004032  1009               	iorwf	(??_color_read_Red+2)^0,w,c
  1483   004034  6E0B               	movwf	(color_read_Red@tmp+1)^0,c
  1484                           
  1485                           ;colorclick.c: 48:  I2C_2_Master_Stop();
  1486   004036  EC3C  F022         	call	_I2C_2_Master_Stop	;wreg free
  1487   00403A                     
  1488                           ;colorclick.c: 49:  return tmp;
  1489   00403A  C00A  F005         	movff	color_read_Red@tmp,?_color_read_Red
  1490   00403E  C00B  F006         	movff	color_read_Red@tmp+1,?_color_read_Red+1
  1491   004042  0012               	return		;funcret
  1492   004044                     __end_of_color_read_Red:
  1493                           	callstack 0
  1494                           
  1495 ;; *************** function _color_read_Green *****************
  1496 ;; Defined at:
  1497 ;;		line 51 in file "colorclick.c"
  1498 ;; Parameters:    Size  Location     Type
  1499 ;;		None
  1500 ;; Auto vars:     Size  Location     Type
  1501 ;;  tmp             2    9[COMRAM] unsigned int 
  1502 ;; Return value:  Size  Location     Type
  1503 ;;                  2    4[COMRAM] unsigned int 
  1504 ;; Registers used:
  1505 ;;		wreg, status,2, status,0, cstack
  1506 ;; Tracked objects:
  1507 ;;		On entry : 0/0
  1508 ;;		On exit  : 0/0
  1509 ;;		Unchanged: 0/0
  1510 ;; Data sizes:     COMRAM   BANK0   BANK1   BANK2   BANK3   BANK4   BANK5   BANK6   BANK7   BANK8   BANK9  BANK10  BANK1
      +1  BANK12  BANK13
  1511 ;;      Params:         2       0       0       0       0       0       0       0       0       0       0       0       
      +0       0       0
  1512 ;;      Locals:         2       0       0       0       0       0       0       0       0       0       0       0       
      +0       0       0
  1513 ;;      Temps:          3       0       0       0       0       0       0       0       0       0       0       0       
      +0       0       0
  1514 ;;      Totals:         7       0       0       0       0       0       0       0       0       0       0       0       
      +0       0       0
  1515 ;;Total ram usage:        7 bytes
  1516 ;; Hardware stack levels used: 1
  1517 ;; Hardware stack levels required when called: 2
  1518 ;; This function calls:
  1519 ;;		_I2C_2_Master_Read
  1520 ;;		_I2C_2_Master_RepStart
  1521 ;;		_I2C_2_Master_Start
  1522 ;;		_I2C_2_Master_Stop
  1523 ;;		_I2C_2_Master_Write
  1524 ;; This function is called by:
  1525 ;;		_colour_read_all
  1526 ;; This function uses a non-reentrant model
  1527 ;;
  1528                           
  1529                           	psect	text4
  1530   004044                     __ptext4:
  1531                           	callstack 0
  1532   004044                     _color_read_Green:
  1533                           	callstack 27
  1534   004044                     
  1535                           ;colorclick.c: 53:     unsigned int tmp;;colorclick.c: 54:     I2C_2_Master_Start();
  1536   004044  EC41  F022         	call	_I2C_2_Master_Start	;wreg free
  1537                           
  1538                           ;colorclick.c: 55:     I2C_2_Master_Write(0x52 | 0x00);
  1539   004048  0E52               	movlw	82
  1540   00404A  EC31  F022         	call	_I2C_2_Master_Write
  1541                           
  1542                           ;colorclick.c: 56:     I2C_2_Master_Write(0xA0 | 0x18);
  1543   00404E  0EB8               	movlw	184
  1544   004050  EC31  F022         	call	_I2C_2_Master_Write
  1545                           
  1546                           ;colorclick.c: 57:     I2C_2_Master_RepStart();
  1547   004054  EC37  F022         	call	_I2C_2_Master_RepStart	;wreg free
  1548                           
  1549                           ;colorclick.c: 58:     I2C_2_Master_Write(0x52 | 0x01);
  1550   004058  0E53               	movlw	83
  1551   00405A  EC31  F022         	call	_I2C_2_Master_Write
  1552                           
  1553                           ;colorclick.c: 59:     tmp=I2C_2_Master_Read(1);
  1554   00405E  0E01               	movlw	1
  1555   004060  EC29  F021         	call	_I2C_2_Master_Read
  1556   004064  6E07               	movwf	??_color_read_Green^0,c
  1557   004066  5007               	movf	??_color_read_Green^0,w,c
  1558   004068  6E0A               	movwf	color_read_Green@tmp^0,c
  1559   00406A  6A0B               	clrf	(color_read_Green@tmp+1)^0,c
  1560                           
  1561                           ;colorclick.c: 60:     tmp=tmp | (I2C_2_Master_Read(0)<<8);
  1562   00406C  0E00               	movlw	0
  1563   00406E  EC29  F021         	call	_I2C_2_Master_Read
  1564   004072  6E07               	movwf	??_color_read_Green^0,c
  1565   004074  5007               	movf	??_color_read_Green^0,w,c
  1566   004076  6E09               	movwf	(??_color_read_Green+2)^0,c
  1567   004078  6A08               	clrf	(??_color_read_Green+1)^0,c
  1568   00407A  500A               	movf	color_read_Green@tmp^0,w,c
  1569   00407C  1008               	iorwf	(??_color_read_Green+1)^0,w,c
  1570   00407E  6E0A               	movwf	color_read_Green@tmp^0,c
  1571   004080  500B               	movf	(color_read_Green@tmp+1)^0,w,c
  1572   004082  1009               	iorwf	(??_color_read_Green+2)^0,w,c
  1573   004084  6E0B               	movwf	(color_read_Green@tmp+1)^0,c
  1574                           
  1575                           ;colorclick.c: 61:     I2C_2_Master_Stop();
  1576   004086  EC3C  F022         	call	_I2C_2_Master_Stop	;wreg free
  1577   00408A                     
  1578                           ;colorclick.c: 62:     return tmp;
  1579   00408A  C00A  F005         	movff	color_read_Green@tmp,?_color_read_Green
  1580   00408E  C00B  F006         	movff	color_read_Green@tmp+1,?_color_read_Green+1
  1581   004092  0012               	return		;funcret
  1582   004094                     __end_of_color_read_Green:
  1583                           	callstack 0
  1584                           
  1585 ;; *************** function _color_read_Clear *****************
  1586 ;; Defined at:
  1587 ;;		line 80 in file "colorclick.c"
  1588 ;; Parameters:    Size  Location     Type
  1589 ;;		None
  1590 ;; Auto vars:     Size  Location     Type
  1591 ;;  tmp             2    9[COMRAM] unsigned int 
  1592 ;; Return value:  Size  Location     Type
  1593 ;;                  2    4[COMRAM] unsigned int 
  1594 ;; Registers used:
  1595 ;;		wreg, status,2, status,0, cstack
  1596 ;; Tracked objects:
  1597 ;;		On entry : 0/0
  1598 ;;		On exit  : 0/0
  1599 ;;		Unchanged: 0/0
  1600 ;; Data sizes:     COMRAM   BANK0   BANK1   BANK2   BANK3   BANK4   BANK5   BANK6   BANK7   BANK8   BANK9  BANK10  BANK1
      +1  BANK12  BANK13
  1601 ;;      Params:         2       0       0       0       0       0       0       0       0       0       0       0       
      +0       0       0
  1602 ;;      Locals:         2       0       0       0       0       0       0       0       0       0       0       0       
      +0       0       0
  1603 ;;      Temps:          3       0       0       0       0       0       0       0       0       0       0       0       
      +0       0       0
  1604 ;;      Totals:         7       0       0       0       0       0       0       0       0       0       0       0       
      +0       0       0
  1605 ;;Total ram usage:        7 bytes
  1606 ;; Hardware stack levels used: 1
  1607 ;; Hardware stack levels required when called: 2
  1608 ;; This function calls:
  1609 ;;		_I2C_2_Master_Read
  1610 ;;		_I2C_2_Master_RepStart
  1611 ;;		_I2C_2_Master_Start
  1612 ;;		_I2C_2_Master_Stop
  1613 ;;		_I2C_2_Master_Write
  1614 ;; This function is called by:
  1615 ;;		_colour_read_all
  1616 ;; This function uses a non-reentrant model
  1617 ;;
  1618                           
  1619                           	psect	text5
  1620   004094                     __ptext5:
  1621                           	callstack 0
  1622   004094                     _color_read_Clear:
  1623                           	callstack 27
  1624   004094                     
  1625                           ;colorclick.c: 82:     unsigned int tmp;;colorclick.c: 83:     I2C_2_Master_Start();
  1626   004094  EC41  F022         	call	_I2C_2_Master_Start	;wreg free
  1627                           
  1628                           ;colorclick.c: 84:     I2C_2_Master_Write(0x52 | 0x00);
  1629   004098  0E52               	movlw	82
  1630   00409A  EC31  F022         	call	_I2C_2_Master_Write
  1631                           
  1632                           ;colorclick.c: 85:     I2C_2_Master_Write(0xA0 | 0x14);
  1633   00409E  0EB4               	movlw	180
  1634   0040A0  EC31  F022         	call	_I2C_2_Master_Write
  1635                           
  1636                           ;colorclick.c: 86:     I2C_2_Master_RepStart();
  1637   0040A4  EC37  F022         	call	_I2C_2_Master_RepStart	;wreg free
  1638                           
  1639                           ;colorclick.c: 87:     I2C_2_Master_Write(0x52 | 0x01);
  1640   0040A8  0E53               	movlw	83
  1641   0040AA  EC31  F022         	call	_I2C_2_Master_Write
  1642                           
  1643                           ;colorclick.c: 88:     tmp=I2C_2_Master_Read(1);
  1644   0040AE  0E01               	movlw	1
  1645   0040B0  EC29  F021         	call	_I2C_2_Master_Read
  1646   0040B4  6E07               	movwf	??_color_read_Clear^0,c
  1647   0040B6  5007               	movf	??_color_read_Clear^0,w,c
  1648   0040B8  6E0A               	movwf	color_read_Clear@tmp^0,c
  1649   0040BA  6A0B               	clrf	(color_read_Clear@tmp+1)^0,c
  1650                           
  1651                           ;colorclick.c: 89:     tmp=tmp | (I2C_2_Master_Read(0)<<8);
  1652   0040BC  0E00               	movlw	0
  1653   0040BE  EC29  F021         	call	_I2C_2_Master_Read
  1654   0040C2  6E07               	movwf	??_color_read_Clear^0,c
  1655   0040C4  5007               	movf	??_color_read_Clear^0,w,c
  1656   0040C6  6E09               	movwf	(??_color_read_Clear+2)^0,c
  1657   0040C8  6A08               	clrf	(??_color_read_Clear+1)^0,c
  1658   0040CA  500A               	movf	color_read_Clear@tmp^0,w,c
  1659   0040CC  1008               	iorwf	(??_color_read_Clear+1)^0,w,c
  1660   0040CE  6E0A               	movwf	color_read_Clear@tmp^0,c
  1661   0040D0  500B               	movf	(color_read_Clear@tmp+1)^0,w,c
  1662   0040D2  1009               	iorwf	(??_color_read_Clear+2)^0,w,c
  1663   0040D4  6E0B               	movwf	(color_read_Clear@tmp+1)^0,c
  1664                           
  1665                           ;colorclick.c: 90:     I2C_2_Master_Stop();
  1666   0040D6  EC3C  F022         	call	_I2C_2_Master_Stop	;wreg free
  1667   0040DA                     
  1668                           ;colorclick.c: 91:     return tmp;
  1669   0040DA  C00A  F005         	movff	color_read_Clear@tmp,?_color_read_Clear
  1670   0040DE  C00B  F006         	movff	color_read_Clear@tmp+1,?_color_read_Clear+1
  1671   0040E2  0012               	return		;funcret
  1672   0040E4                     __end_of_color_read_Clear:
  1673                           	callstack 0
  1674                           
  1675 ;; *************** function _color_read_Blue *****************
  1676 ;; Defined at:
  1677 ;;		line 65 in file "colorclick.c"
  1678 ;; Parameters:    Size  Location     Type
  1679 ;;		None
  1680 ;; Auto vars:     Size  Location     Type
  1681 ;;  tmp             2    9[COMRAM] unsigned int 
  1682 ;; Return value:  Size  Location     Type
  1683 ;;                  2    4[COMRAM] unsigned int 
  1684 ;; Registers used:
  1685 ;;		wreg, status,2, status,0, cstack
  1686 ;; Tracked objects:
  1687 ;;		On entry : 0/0
  1688 ;;		On exit  : 0/0
  1689 ;;		Unchanged: 0/0
  1690 ;; Data sizes:     COMRAM   BANK0   BANK1   BANK2   BANK3   BANK4   BANK5   BANK6   BANK7   BANK8   BANK9  BANK10  BANK1
      +1  BANK12  BANK13
  1691 ;;      Params:         2       0       0       0       0       0       0       0       0       0       0       0       
      +0       0       0
  1692 ;;      Locals:         2       0       0       0       0       0       0       0       0       0       0       0       
      +0       0       0
  1693 ;;      Temps:          3       0       0       0       0       0       0       0       0       0       0       0       
      +0       0       0
  1694 ;;      Totals:         7       0       0       0       0       0       0       0       0       0       0       0       
      +0       0       0
  1695 ;;Total ram usage:        7 bytes
  1696 ;; Hardware stack levels used: 1
  1697 ;; Hardware stack levels required when called: 2
  1698 ;; This function calls:
  1699 ;;		_I2C_2_Master_Read
  1700 ;;		_I2C_2_Master_RepStart
  1701 ;;		_I2C_2_Master_Start
  1702 ;;		_I2C_2_Master_Stop
  1703 ;;		_I2C_2_Master_Write
  1704 ;; This function is called by:
  1705 ;;		_colour_read_all
  1706 ;; This function uses a non-reentrant model
  1707 ;;
  1708                           
  1709                           	psect	text6
  1710   0040E4                     __ptext6:
  1711                           	callstack 0
  1712   0040E4                     _color_read_Blue:
  1713                           	callstack 27
  1714   0040E4                     
  1715                           ;colorclick.c: 67:     unsigned int tmp;;colorclick.c: 68:     I2C_2_Master_Start();
  1716   0040E4  EC41  F022         	call	_I2C_2_Master_Start	;wreg free
  1717                           
  1718                           ;colorclick.c: 69:     I2C_2_Master_Write(0x52 | 0x00);
  1719   0040E8  0E52               	movlw	82
  1720   0040EA  EC31  F022         	call	_I2C_2_Master_Write
  1721                           
  1722                           ;colorclick.c: 70:     I2C_2_Master_Write(0xA0 | 0x1A);
  1723   0040EE  0EBA               	movlw	186
  1724   0040F0  EC31  F022         	call	_I2C_2_Master_Write
  1725                           
  1726                           ;colorclick.c: 71:     I2C_2_Master_RepStart();
  1727   0040F4  EC37  F022         	call	_I2C_2_Master_RepStart	;wreg free
  1728                           
  1729                           ;colorclick.c: 72:     I2C_2_Master_Write(0x52 | 0x01);
  1730   0040F8  0E53               	movlw	83
  1731   0040FA  EC31  F022         	call	_I2C_2_Master_Write
  1732                           
  1733                           ;colorclick.c: 73:     tmp=I2C_2_Master_Read(1);
  1734   0040FE  0E01               	movlw	1
  1735   004100  EC29  F021         	call	_I2C_2_Master_Read
  1736   004104  6E07               	movwf	??_color_read_Blue^0,c
  1737   004106  5007               	movf	??_color_read_Blue^0,w,c
  1738   004108  6E0A               	movwf	color_read_Blue@tmp^0,c
  1739   00410A  6A0B               	clrf	(color_read_Blue@tmp+1)^0,c
  1740                           
  1741                           ;colorclick.c: 74:     tmp=tmp | (I2C_2_Master_Read(0)<<8);
  1742   00410C  0E00               	movlw	0
  1743   00410E  EC29  F021         	call	_I2C_2_Master_Read
  1744   004112  6E07               	movwf	??_color_read_Blue^0,c
  1745   004114  5007               	movf	??_color_read_Blue^0,w,c
  1746   004116  6E09               	movwf	(??_color_read_Blue+2)^0,c
  1747   004118  6A08               	clrf	(??_color_read_Blue+1)^0,c
  1748   00411A  500A               	movf	color_read_Blue@tmp^0,w,c
  1749   00411C  1008               	iorwf	(??_color_read_Blue+1)^0,w,c
  1750   00411E  6E0A               	movwf	color_read_Blue@tmp^0,c
  1751   004120  500B               	movf	(color_read_Blue@tmp+1)^0,w,c
  1752   004122  1009               	iorwf	(??_color_read_Blue+2)^0,w,c
  1753   004124  6E0B               	movwf	(color_read_Blue@tmp+1)^0,c
  1754                           
  1755                           ;colorclick.c: 75:     I2C_2_Master_Stop();
  1756   004126  EC3C  F022         	call	_I2C_2_Master_Stop	;wreg free
  1757   00412A                     
  1758                           ;colorclick.c: 76:     return tmp;
  1759   00412A  C00A  F005         	movff	color_read_Blue@tmp,?_color_read_Blue
  1760   00412E  C00B  F006         	movff	color_read_Blue@tmp+1,?_color_read_Blue+1
  1761   004132  0012               	return		;funcret
  1762   004134                     __end_of_color_read_Blue:
  1763                           	callstack 0
  1764                           
  1765 ;; *************** function _I2C_2_Master_RepStart *****************
  1766 ;; Defined at:
  1767 ;;		line 33 in file "i2c.c"
  1768 ;; Parameters:    Size  Location     Type
  1769 ;;		None
  1770 ;; Auto vars:     Size  Location     Type
  1771 ;;		None
  1772 ;; Return value:  Size  Location     Type
  1773 ;;                  1    wreg      void 
  1774 ;; Registers used:
  1775 ;;		wreg, status,2, status,0, cstack
  1776 ;; Tracked objects:
  1777 ;;		On entry : 0/0
  1778 ;;		On exit  : 0/0
  1779 ;;		Unchanged: 0/0
  1780 ;; Data sizes:     COMRAM   BANK0   BANK1   BANK2   BANK3   BANK4   BANK5   BANK6   BANK7   BANK8   BANK9  BANK10  BANK1
      +1  BANK12  BANK13
  1781 ;;      Params:         0       0       0       0       0       0       0       0       0       0       0       0       
      +0       0       0
  1782 ;;      Locals:         0       0       0       0       0       0       0       0       0       0       0       0       
      +0       0       0
  1783 ;;      Temps:          0       0       0       0       0       0       0       0       0       0       0       0       
      +0       0       0
  1784 ;;      Totals:         0       0       0       0       0       0       0       0       0       0       0       0       
      +0       0       0
  1785 ;;Total ram usage:        0 bytes
  1786 ;; Hardware stack levels used: 1
  1787 ;; Hardware stack levels required when called: 1
  1788 ;; This function calls:
  1789 ;;		_I2C_2_Master_Idle
  1790 ;; This function is called by:
  1791 ;;		_color_read_Red
  1792 ;;		_color_read_Green
  1793 ;;		_color_read_Blue
  1794 ;;		_color_read_Clear
  1795 ;; This function uses a non-reentrant model
  1796 ;;
  1797                           
  1798                           	psect	text7
  1799   00446E                     __ptext7:
  1800                           	callstack 0
  1801   00446E                     _I2C_2_Master_RepStart:
  1802                           	callstack 27
  1803   00446E                     
  1804                           ;i2c.c: 35:   I2C_2_Master_Idle();
  1805   00446E  ECF0  F021         	call	_I2C_2_Master_Idle	;wreg free
  1806   004472                     
  1807                           ;i2c.c: 36:   SSP2CON2bits.RSEN = 1;
  1808   004472  010E               	movlb	14	; () banked
  1809   004474  83DA               	bsf	218,1,b	;volatile
  1810   004476                     
  1811                           ; BSR set to: 14
  1812   004476  0012               	return		;funcret
  1813   004478                     __end_of_I2C_2_Master_RepStart:
  1814                           	callstack 0
  1815                           
  1816 ;; *************** function _I2C_2_Master_Read *****************
  1817 ;; Defined at:
  1818 ;;		line 51 in file "i2c.c"
  1819 ;; Parameters:    Size  Location     Type
  1820 ;;  ack             1    wreg     unsigned char 
  1821 ;; Auto vars:     Size  Location     Type
  1822 ;;  ack             1    2[COMRAM] unsigned char 
  1823 ;;  tmp             1    3[COMRAM] unsigned char 
  1824 ;; Return value:  Size  Location     Type
  1825 ;;                  1    wreg      unsigned char 
  1826 ;; Registers used:
  1827 ;;		wreg, status,2, status,0, cstack
  1828 ;; Tracked objects:
  1829 ;;		On entry : 0/0
  1830 ;;		On exit  : 0/0
  1831 ;;		Unchanged: 0/0
  1832 ;; Data sizes:     COMRAM   BANK0   BANK1   BANK2   BANK3   BANK4   BANK5   BANK6   BANK7   BANK8   BANK9  BANK10  BANK1
      +1  BANK12  BANK13
  1833 ;;      Params:         0       0       0       0       0       0       0       0       0       0       0       0       
      +0       0       0
  1834 ;;      Locals:         2       0       0       0       0       0       0       0       0       0       0       0       
      +0       0       0
  1835 ;;      Temps:          1       0       0       0       0       0       0       0       0       0       0       0       
      +0       0       0
  1836 ;;      Totals:         3       0       0       0       0       0       0       0       0       0       0       0       
      +0       0       0
  1837 ;;Total ram usage:        3 bytes
  1838 ;; Hardware stack levels used: 1
  1839 ;; Hardware stack levels required when called: 1
  1840 ;; This function calls:
  1841 ;;		_I2C_2_Master_Idle
  1842 ;; This function is called by:
  1843 ;;		_color_read_Red
  1844 ;;		_color_read_Green
  1845 ;;		_color_read_Blue
  1846 ;;		_color_read_Clear
  1847 ;; This function uses a non-reentrant model
  1848 ;;
  1849                           
  1850                           	psect	text8
  1851   004252                     __ptext8:
  1852                           	callstack 0
  1853   004252                     _I2C_2_Master_Read:
  1854                           	callstack 27
  1855                           
  1856                           ; BSR set to: 14
  1857                           ;incstack = 0
  1858                           ;I2C_2_Master_Read@ack stored from wreg
  1859   004252  6E03               	movwf	I2C_2_Master_Read@ack^0,c
  1860   004254                     
  1861                           ;i2c.c: 51: unsigned char I2C_2_Master_Read(unsigned char ack);i2c.c: 52: {;i2c.c: 53:  
      +                           unsigned char tmp;;i2c.c: 54:   I2C_2_Master_Idle();
  1862   004254  ECF0  F021         	call	_I2C_2_Master_Idle	;wreg free
  1863   004258                     
  1864                           ;i2c.c: 55:   SSP2CON2bits.RCEN = 1;
  1865   004258  010E               	movlb	14	; () banked
  1866   00425A  87DA               	bsf	218,3,b	;volatile
  1867                           
  1868                           ;i2c.c: 56:   I2C_2_Master_Idle();
  1869   00425C  ECF0  F021         	call	_I2C_2_Master_Idle	;wreg free
  1870   004260                     
  1871                           ;i2c.c: 57:   tmp = SSP2BUF;
  1872   004260  CED5 F004          	movff	3797,I2C_2_Master_Read@tmp	;volatile
  1873                           
  1874                           ;i2c.c: 58:   I2C_2_Master_Idle();
  1875   004264  ECF0  F021         	call	_I2C_2_Master_Idle	;wreg free
  1876   004268                     
  1877                           ;i2c.c: 59:   SSP2CON2bits.ACKDT = !ack;
  1878   004268  5003               	movf	I2C_2_Master_Read@ack^0,w,c
  1879   00426A  B4D8               	btfsc	status,2,c
  1880   00426C  EF3A  F021         	goto	u3681
  1881   004270  EF3E  F021         	goto	u3680
  1882   004274                     u3681:
  1883   004274  6A02               	clrf	??_I2C_2_Master_Read^0,c
  1884   004276  2A02               	incf	??_I2C_2_Master_Read^0,f,c
  1885   004278  EF3F  F021         	goto	u3698
  1886   00427C                     u3680:
  1887   00427C  6A02               	clrf	??_I2C_2_Master_Read^0,c
  1888   00427E                     u3698:
  1889   00427E  3A02               	swapf	??_I2C_2_Master_Read^0,f,c
  1890   004280  4602               	rlncf	??_I2C_2_Master_Read^0,f,c
  1891   004282  010E               	movlb	14	; () banked
  1892   004284  51DA               	movf	218,w,b	;volatile
  1893   004286  1802               	xorwf	??_I2C_2_Master_Read^0,w,c
  1894   004288  0BDF               	andlw	-33
  1895   00428A  1802               	xorwf	??_I2C_2_Master_Read^0,w,c
  1896   00428C  6FDA               	movwf	218,b	;volatile
  1897   00428E                     
  1898                           ; BSR set to: 14
  1899                           ;i2c.c: 60:   SSP2CON2bits.ACKEN = 1;
  1900   00428E  89DA               	bsf	218,4,b	;volatile
  1901   004290                     
  1902                           ; BSR set to: 14
  1903                           ;i2c.c: 61:   return tmp;
  1904   004290  5004               	movf	I2C_2_Master_Read@tmp^0,w,c
  1905   004292                     
  1906                           ; BSR set to: 14
  1907   004292  0012               	return		;funcret
  1908   004294                     __end_of_I2C_2_Master_Read:
  1909                           	callstack 0
  1910                           
  1911 ;; *************** function _color_click_init *****************
  1912 ;; Defined at:
  1913 ;;		line 6 in file "colorclick.c"
  1914 ;; Parameters:    Size  Location     Type
  1915 ;;		None
  1916 ;; Auto vars:     Size  Location     Type
  1917 ;;		None
  1918 ;; Return value:  Size  Location     Type
  1919 ;;                  1    wreg      void 
  1920 ;; Registers used:
  1921 ;;		wreg, status,2, status,0, cstack
  1922 ;; Tracked objects:
  1923 ;;		On entry : 0/0
  1924 ;;		On exit  : 0/0
  1925 ;;		Unchanged: 0/0
  1926 ;; Data sizes:     COMRAM   BANK0   BANK1   BANK2   BANK3   BANK4   BANK5   BANK6   BANK7   BANK8   BANK9  BANK10  BANK1
      +1  BANK12  BANK13
  1927 ;;      Params:         0       0       0       0       0       0       0       0       0       0       0       0       
      +0       0       0
  1928 ;;      Locals:         0       0       0       0       0       0       0       0       0       0       0       0       
      +0       0       0
  1929 ;;      Temps:          1       0       0       0       0       0       0       0       0       0       0       0       
      +0       0       0
  1930 ;;      Totals:         1       0       0       0       0       0       0       0       0       0       0       0       
      +0       0       0
  1931 ;;Total ram usage:        1 bytes
  1932 ;; Hardware stack levels used: 1
  1933 ;; Hardware stack levels required when called: 3
  1934 ;; This function calls:
  1935 ;;		_I2C_2_Master_Init
  1936 ;;		_color_writetoaddr
  1937 ;; This function is called by:
  1938 ;;		_main
  1939 ;; This function uses a non-reentrant model
  1940 ;;
  1941                           
  1942                           	psect	text9
  1943   004294                     __ptext9:
  1944                           	callstack 0
  1945   004294                     _color_click_init:
  1946                           	callstack 27
  1947   004294                     
  1948                           ;colorclick.c: 9:     I2C_2_Master_Init();
  1949   004294  ECDB  F021         	call	_I2C_2_Master_Init	;wreg free
  1950   004298                     
  1951                           ;colorclick.c: 12:   color_writetoaddr(0x00, 0x01);
  1952   004298  0E01               	movlw	1
  1953   00429A  6E03               	movwf	color_writetoaddr@value^0,c
  1954   00429C  0E00               	movlw	0
  1955   00429E  EC15  F022         	call	_color_writetoaddr
  1956   0042A2                     
  1957                           ;colorclick.c: 13:     _delay((unsigned long)((3)*(64000000/4000.0)));
  1958   0042A2  0E3F               	movlw	63
  1959   0042A4  6E05               	movwf	??_color_click_init^0,c
  1960   0042A6  0E55               	movlw	85
  1961   0042A8                     u4167:
  1962   0042A8  2EE8               	decfsz	wreg,f,c
  1963   0042AA  D7FE               	bra	u4167
  1964   0042AC  2E05               	decfsz	??_color_click_init^0,f,c
  1965   0042AE  D7FC               	bra	u4167
  1966   0042B0  F000               	nop	
  1967   0042B2                     
  1968                           ;colorclick.c: 16:  color_writetoaddr(0x00, 0x03);
  1969   0042B2  0E03               	movlw	3
  1970   0042B4  6E03               	movwf	color_writetoaddr@value^0,c
  1971   0042B6  0E00               	movlw	0
  1972   0042B8  EC15  F022         	call	_color_writetoaddr
  1973   0042BC                     
  1974                           ;colorclick.c: 19:  color_writetoaddr(0x01, 0xD6);
  1975   0042BC  0ED6               	movlw	214
  1976   0042BE  6E03               	movwf	color_writetoaddr@value^0,c
  1977   0042C0  0E01               	movlw	1
  1978   0042C2  EC15  F022         	call	_color_writetoaddr
  1979   0042C6                     
  1980                           ;colorclick.c: 22:     LATGbits.LATG1=0;
  1981   0042C6  927F               	bcf	127,1,c	;volatile
  1982   0042C8                     
  1983                           ;colorclick.c: 23:     TRISGbits.TRISG1=0;
  1984   0042C8  9287               	bcf	135,1,c	;volatile
  1985   0042CA                     
  1986                           ;colorclick.c: 24:     LATAbits.LATA4=0;
  1987   0042CA  9879               	bcf	121,4,c	;volatile
  1988   0042CC                     
  1989                           ;colorclick.c: 25:     TRISAbits.TRISA4=0;
  1990   0042CC  9881               	bcf	129,4,c	;volatile
  1991   0042CE                     
  1992                           ;colorclick.c: 26:     LATFbits.LATF7=0;
  1993   0042CE  9E7E               	bcf	126,7,c	;volatile
  1994   0042D0                     
  1995                           ;colorclick.c: 27:     TRISFbits.TRISF7=0;
  1996   0042D0  9E86               	bcf	134,7,c	;volatile
  1997   0042D2  0012               	return		;funcret
  1998   0042D4                     __end_of_color_click_init:
  1999                           	callstack 0
  2000                           
  2001 ;; *************** function _color_writetoaddr *****************
  2002 ;; Defined at:
  2003 ;;		line 30 in file "colorclick.c"
  2004 ;; Parameters:    Size  Location     Type
  2005 ;;  address         1    wreg     unsigned char 
  2006 ;;  value           1    2[COMRAM] unsigned char 
  2007 ;; Auto vars:     Size  Location     Type
  2008 ;;  address         1    3[COMRAM] unsigned char 
  2009 ;; Return value:  Size  Location     Type
  2010 ;;                  1    wreg      void 
  2011 ;; Registers used:
  2012 ;;		wreg, status,2, status,0, cstack
  2013 ;; Tracked objects:
  2014 ;;		On entry : 0/0
  2015 ;;		On exit  : 0/0
  2016 ;;		Unchanged: 0/0
  2017 ;; Data sizes:     COMRAM   BANK0   BANK1   BANK2   BANK3   BANK4   BANK5   BANK6   BANK7   BANK8   BANK9  BANK10  BANK1
      +1  BANK12  BANK13
  2018 ;;      Params:         1       0       0       0       0       0       0       0       0       0       0       0       
      +0       0       0
  2019 ;;      Locals:         1       0       0       0       0       0       0       0       0       0       0       0       
      +0       0       0
  2020 ;;      Temps:          0       0       0       0       0       0       0       0       0       0       0       0       
      +0       0       0
  2021 ;;      Totals:         2       0       0       0       0       0       0       0       0       0       0       0       
      +0       0       0
  2022 ;;Total ram usage:        2 bytes
  2023 ;; Hardware stack levels used: 1
  2024 ;; Hardware stack levels required when called: 2
  2025 ;; This function calls:
  2026 ;;		_I2C_2_Master_Start
  2027 ;;		_I2C_2_Master_Stop
  2028 ;;		_I2C_2_Master_Write
  2029 ;; This function is called by:
  2030 ;;		_color_click_init
  2031 ;; This function uses a non-reentrant model
  2032 ;;
  2033                           
  2034                           	psect	text10
  2035   00442A                     __ptext10:
  2036                           	callstack 0
  2037   00442A                     _color_writetoaddr:
  2038                           	callstack 27
  2039                           
  2040                           ;incstack = 0
  2041                           ;color_writetoaddr@address stored from wreg
  2042   00442A  6E04               	movwf	color_writetoaddr@address^0,c
  2043   00442C                     
  2044                           ;colorclick.c: 31:     I2C_2_Master_Start();
  2045   00442C  EC41  F022         	call	_I2C_2_Master_Start	;wreg free
  2046                           
  2047                           ;colorclick.c: 32:     I2C_2_Master_Write(0x52 | 0x00);
  2048   004430  0E52               	movlw	82
  2049   004432  EC31  F022         	call	_I2C_2_Master_Write
  2050                           
  2051                           ;colorclick.c: 33:     I2C_2_Master_Write(0x80 | address);
  2052   004436  5004               	movf	color_writetoaddr@address^0,w,c
  2053   004438  0980               	iorlw	128
  2054   00443A  EC31  F022         	call	_I2C_2_Master_Write
  2055                           
  2056                           ;colorclick.c: 34:     I2C_2_Master_Write(value);
  2057   00443E  5003               	movf	color_writetoaddr@value^0,w,c
  2058   004440  EC31  F022         	call	_I2C_2_Master_Write
  2059                           
  2060                           ;colorclick.c: 35:     I2C_2_Master_Stop();
  2061   004444  EC3C  F022         	call	_I2C_2_Master_Stop	;wreg free
  2062   004448  0012               	return		;funcret
  2063   00444A                     __end_of_color_writetoaddr:
  2064                           	callstack 0
  2065                           
  2066 ;; *************** function _I2C_2_Master_Write *****************
  2067 ;; Defined at:
  2068 ;;		line 45 in file "i2c.c"
  2069 ;; Parameters:    Size  Location     Type
  2070 ;;  data_byte       1    wreg     unsigned char 
  2071 ;; Auto vars:     Size  Location     Type
  2072 ;;  data_byte       1    1[COMRAM] unsigned char 
  2073 ;; Return value:  Size  Location     Type
  2074 ;;                  1    wreg      void 
  2075 ;; Registers used:
  2076 ;;		wreg, status,2, status,0, cstack
  2077 ;; Tracked objects:
  2078 ;;		On entry : 0/0
  2079 ;;		On exit  : 0/0
  2080 ;;		Unchanged: 0/0
  2081 ;; Data sizes:     COMRAM   BANK0   BANK1   BANK2   BANK3   BANK4   BANK5   BANK6   BANK7   BANK8   BANK9  BANK10  BANK1
      +1  BANK12  BANK13
  2082 ;;      Params:         0       0       0       0       0       0       0       0       0       0       0       0       
      +0       0       0
  2083 ;;      Locals:         1       0       0       0       0       0       0       0       0       0       0       0       
      +0       0       0
  2084 ;;      Temps:          0       0       0       0       0       0       0       0       0       0       0       0       
      +0       0       0
  2085 ;;      Totals:         1       0       0       0       0       0       0       0       0       0       0       0       
      +0       0       0
  2086 ;;Total ram usage:        1 bytes
  2087 ;; Hardware stack levels used: 1
  2088 ;; Hardware stack levels required when called: 1
  2089 ;; This function calls:
  2090 ;;		_I2C_2_Master_Idle
  2091 ;; This function is called by:
  2092 ;;		_color_writetoaddr
  2093 ;;		_color_read_Red
  2094 ;;		_color_read_Green
  2095 ;;		_color_read_Blue
  2096 ;;		_color_read_Clear
  2097 ;; This function uses a non-reentrant model
  2098 ;;
  2099                           
  2100                           	psect	text11
  2101   004462                     __ptext11:
  2102                           	callstack 0
  2103   004462                     _I2C_2_Master_Write:
  2104                           	callstack 27
  2105                           
  2106                           ;incstack = 0
  2107                           ;I2C_2_Master_Write@data_byte stored from wreg
  2108   004462  6E02               	movwf	I2C_2_Master_Write@data_byte^0,c
  2109   004464                     
  2110                           ;i2c.c: 45: void I2C_2_Master_Write(unsigned char data_byte);i2c.c: 46: {;i2c.c: 47:   I
      +                          2C_2_Master_Idle();
  2111   004464  ECF0  F021         	call	_I2C_2_Master_Idle	;wreg free
  2112   004468                     
  2113                           ;i2c.c: 48:   SSP2BUF = data_byte;
  2114   004468  C002  FED5         	movff	I2C_2_Master_Write@data_byte,3797	;volatile
  2115   00446C  0012               	return		;funcret
  2116   00446E                     __end_of_I2C_2_Master_Write:
  2117                           	callstack 0
  2118                           
  2119 ;; *************** function _I2C_2_Master_Stop *****************
  2120 ;; Defined at:
  2121 ;;		line 39 in file "i2c.c"
  2122 ;; Parameters:    Size  Location     Type
  2123 ;;		None
  2124 ;; Auto vars:     Size  Location     Type
  2125 ;;		None
  2126 ;; Return value:  Size  Location     Type
  2127 ;;                  1    wreg      void 
  2128 ;; Registers used:
  2129 ;;		wreg, status,2, status,0, cstack
  2130 ;; Tracked objects:
  2131 ;;		On entry : 0/0
  2132 ;;		On exit  : 0/0
  2133 ;;		Unchanged: 0/0
  2134 ;; Data sizes:     COMRAM   BANK0   BANK1   BANK2   BANK3   BANK4   BANK5   BANK6   BANK7   BANK8   BANK9  BANK10  BANK1
      +1  BANK12  BANK13
  2135 ;;      Params:         0       0       0       0       0       0       0       0       0       0       0       0       
      +0       0       0
  2136 ;;      Locals:         0       0       0       0       0       0       0       0       0       0       0       0       
      +0       0       0
  2137 ;;      Temps:          0       0       0       0       0       0       0       0       0       0       0       0       
      +0       0       0
  2138 ;;      Totals:         0       0       0       0       0       0       0       0       0       0       0       0       
      +0       0       0
  2139 ;;Total ram usage:        0 bytes
  2140 ;; Hardware stack levels used: 1
  2141 ;; Hardware stack levels required when called: 1
  2142 ;; This function calls:
  2143 ;;		_I2C_2_Master_Idle
  2144 ;; This function is called by:
  2145 ;;		_color_writetoaddr
  2146 ;;		_color_read_Red
  2147 ;;		_color_read_Green
  2148 ;;		_color_read_Blue
  2149 ;;		_color_read_Clear
  2150 ;; This function uses a non-reentrant model
  2151 ;;
  2152                           
  2153                           	psect	text12
  2154   004478                     __ptext12:
  2155                           	callstack 0
  2156   004478                     _I2C_2_Master_Stop:
  2157                           	callstack 27
  2158   004478                     
  2159                           ;i2c.c: 41:   I2C_2_Master_Idle();
  2160   004478  ECF0  F021         	call	_I2C_2_Master_Idle	;wreg free
  2161   00447C                     
  2162                           ;i2c.c: 42:   SSP2CON2bits.PEN = 1;
  2163   00447C  010E               	movlb	14	; () banked
  2164   00447E  85DA               	bsf	218,2,b	;volatile
  2165   004480                     
  2166                           ; BSR set to: 14
  2167   004480  0012               	return		;funcret
  2168   004482                     __end_of_I2C_2_Master_Stop:
  2169                           	callstack 0
  2170                           
  2171 ;; *************** function _I2C_2_Master_Start *****************
  2172 ;; Defined at:
  2173 ;;		line 27 in file "i2c.c"
  2174 ;; Parameters:    Size  Location     Type
  2175 ;;		None
  2176 ;; Auto vars:     Size  Location     Type
  2177 ;;		None
  2178 ;; Return value:  Size  Location     Type
  2179 ;;                  1    wreg      void 
  2180 ;; Registers used:
  2181 ;;		wreg, status,2, status,0, cstack
  2182 ;; Tracked objects:
  2183 ;;		On entry : 0/0
  2184 ;;		On exit  : 0/0
  2185 ;;		Unchanged: 0/0
  2186 ;; Data sizes:     COMRAM   BANK0   BANK1   BANK2   BANK3   BANK4   BANK5   BANK6   BANK7   BANK8   BANK9  BANK10  BANK1
      +1  BANK12  BANK13
  2187 ;;      Params:         0       0       0       0       0       0       0       0       0       0       0       0       
      +0       0       0
  2188 ;;      Locals:         0       0       0       0       0       0       0       0       0       0       0       0       
      +0       0       0
  2189 ;;      Temps:          0       0       0       0       0       0       0       0       0       0       0       0       
      +0       0       0
  2190 ;;      Totals:         0       0       0       0       0       0       0       0       0       0       0       0       
      +0       0       0
  2191 ;;Total ram usage:        0 bytes
  2192 ;; Hardware stack levels used: 1
  2193 ;; Hardware stack levels required when called: 1
  2194 ;; This function calls:
  2195 ;;		_I2C_2_Master_Idle
  2196 ;; This function is called by:
  2197 ;;		_color_writetoaddr
  2198 ;;		_color_read_Red
  2199 ;;		_color_read_Green
  2200 ;;		_color_read_Blue
  2201 ;;		_color_read_Clear
  2202 ;; This function uses a non-reentrant model
  2203 ;;
  2204                           
  2205                           	psect	text13
  2206   004482                     __ptext13:
  2207                           	callstack 0
  2208   004482                     _I2C_2_Master_Start:
  2209                           	callstack 27
  2210   004482                     
  2211                           ;i2c.c: 29:   I2C_2_Master_Idle();
  2212   004482  ECF0  F021         	call	_I2C_2_Master_Idle	;wreg free
  2213   004486                     
  2214                           ;i2c.c: 30:   SSP2CON2bits.SEN = 1;
  2215   004486  010E               	movlb	14	; () banked
  2216   004488  81DA               	bsf	218,0,b	;volatile
  2217   00448A                     
  2218                           ; BSR set to: 14
  2219   00448A  0012               	return		;funcret
  2220   00448C                     __end_of_I2C_2_Master_Start:
  2221                           	callstack 0
  2222                           
  2223 ;; *************** function _I2C_2_Master_Idle *****************
  2224 ;; Defined at:
  2225 ;;		line 22 in file "i2c.c"
  2226 ;; Parameters:    Size  Location     Type
  2227 ;;		None
  2228 ;; Auto vars:     Size  Location     Type
  2229 ;;		None
  2230 ;; Return value:  Size  Location     Type
  2231 ;;                  1    wreg      void 
  2232 ;; Registers used:
  2233 ;;		wreg, status,2, status,0
  2234 ;; Tracked objects:
  2235 ;;		On entry : 0/0
  2236 ;;		On exit  : 0/0
  2237 ;;		Unchanged: 0/0
  2238 ;; Data sizes:     COMRAM   BANK0   BANK1   BANK2   BANK3   BANK4   BANK5   BANK6   BANK7   BANK8   BANK9  BANK10  BANK1
      +1  BANK12  BANK13
  2239 ;;      Params:         0       0       0       0       0       0       0       0       0       0       0       0       
      +0       0       0
  2240 ;;      Locals:         0       0       0       0       0       0       0       0       0       0       0       0       
      +0       0       0
  2241 ;;      Temps:          1       0       0       0       0       0       0       0       0       0       0       0       
      +0       0       0
  2242 ;;      Totals:         1       0       0       0       0       0       0       0       0       0       0       0       
      +0       0       0
  2243 ;;Total ram usage:        1 bytes
  2244 ;; Hardware stack levels used: 1
  2245 ;; This function calls:
  2246 ;;		Nothing
  2247 ;; This function is called by:
  2248 ;;		_I2C_2_Master_Start
  2249 ;;		_I2C_2_Master_RepStart
  2250 ;;		_I2C_2_Master_Stop
  2251 ;;		_I2C_2_Master_Write
  2252 ;;		_I2C_2_Master_Read
  2253 ;; This function uses a non-reentrant model
  2254 ;;
  2255                           
  2256                           	psect	text14
  2257   0043E0                     __ptext14:
  2258                           	callstack 0
  2259   0043E0                     _I2C_2_Master_Idle:
  2260                           	callstack 27
  2261   0043E0                     l134:
  2262   0043E0  010E               	movlb	14	; () banked
  2263   0043E2  B5D8               	btfsc	216,2,b	;volatile
  2264   0043E4  EFF6  F021         	goto	u3641
  2265   0043E8  EFF8  F021         	goto	u3640
  2266   0043EC                     u3641:
  2267   0043EC  EFF0  F021         	goto	l134
  2268   0043F0                     u3640:
  2269   0043F0                     
  2270                           ; BSR set to: 14
  2271   0043F0  CEDA F001          	movff	3802,??_I2C_2_Master_Idle	;volatile
  2272   0043F4  0E1F               	movlw	31
  2273   0043F6  1601               	andwf	??_I2C_2_Master_Idle^0,f,c
  2274   0043F8  A4D8               	btfss	status,2,c
  2275   0043FA  EF01  F022         	goto	u3651
  2276   0043FE  EF03  F022         	goto	u3650
  2277   004402                     u3651:
  2278   004402  EFF0  F021         	goto	l134
  2279   004406                     u3650:
  2280   004406                     
  2281                           ; BSR set to: 14
  2282   004406  0012               	return		;funcret
  2283   004408                     __end_of_I2C_2_Master_Idle:
  2284                           	callstack 0
  2285                           
  2286 ;; *************** function _I2C_2_Master_Init *****************
  2287 ;; Defined at:
  2288 ;;		line 4 in file "i2c.c"
  2289 ;; Parameters:    Size  Location     Type
  2290 ;;		None
  2291 ;; Auto vars:     Size  Location     Type
  2292 ;;		None
  2293 ;; Return value:  Size  Location     Type
  2294 ;;                  1    wreg      void 
  2295 ;; Registers used:
  2296 ;;		wreg, status,2
  2297 ;; Tracked objects:
  2298 ;;		On entry : 0/0
  2299 ;;		On exit  : 0/0
  2300 ;;		Unchanged: 0/0
  2301 ;; Data sizes:     COMRAM   BANK0   BANK1   BANK2   BANK3   BANK4   BANK5   BANK6   BANK7   BANK8   BANK9  BANK10  BANK1
      +1  BANK12  BANK13
  2302 ;;      Params:         0       0       0       0       0       0       0       0       0       0       0       0       
      +0       0       0
  2303 ;;      Locals:         0       0       0       0       0       0       0       0       0       0       0       0       
      +0       0       0
  2304 ;;      Temps:          0       0       0       0       0       0       0       0       0       0       0       0       
      +0       0       0
  2305 ;;      Totals:         0       0       0       0       0       0       0       0       0       0       0       0       
      +0       0       0
  2306 ;;Total ram usage:        0 bytes
  2307 ;; Hardware stack levels used: 1
  2308 ;; This function calls:
  2309 ;;		Nothing
  2310 ;; This function is called by:
  2311 ;;		_color_click_init
  2312 ;;		_main
  2313 ;; This function uses a non-reentrant model
  2314 ;;
  2315                           
  2316                           	psect	text15
  2317   0043B6                     __ptext15:
  2318                           	callstack 0
  2319   0043B6                     _I2C_2_Master_Init:
  2320                           	callstack 29
  2321   0043B6                     
  2322                           ;i2c.c: 7:   SSP2CON1bits.SSPM= 0b1000;
  2323   0043B6  010E               	movlb	14	; () banked
  2324   0043B8  51D9               	movf	217,w,b	;volatile
  2325   0043BA  0BF0               	andlw	-16
  2326   0043BC  0908               	iorlw	8
  2327   0043BE  6FD9               	movwf	217,b	;volatile
  2328   0043C0                     
  2329                           ; BSR set to: 14
  2330                           ;i2c.c: 8:   SSP2CON1bits.SSPEN = 1;
  2331   0043C0  8BD9               	bsf	217,5,b	;volatile
  2332                           
  2333                           ;i2c.c: 9:   SSP2ADD = (64000000/(4*100000))-1;
  2334   0043C2  0E9F               	movlw	159
  2335   0043C4  6FD6               	movwf	214,b	;volatile
  2336   0043C6                     
  2337                           ; BSR set to: 14
  2338                           ;i2c.c: 12:   TRISDbits.TRISD5 = 1;
  2339   0043C6  8A84               	bsf	132,5,c	;volatile
  2340   0043C8                     
  2341                           ; BSR set to: 14
  2342                           ;i2c.c: 13:   TRISDbits.TRISD6 = 1;
  2343   0043C8  8C84               	bsf	132,6,c	;volatile
  2344   0043CA                     
  2345                           ; BSR set to: 14
  2346                           ;i2c.c: 14:   ANSELDbits.ANSELD5=0;
  2347   0043CA  9BA7               	bcf	167,5,b	;volatile
  2348   0043CC                     
  2349                           ; BSR set to: 14
  2350                           ;i2c.c: 15:   ANSELDbits.ANSELD6=0;
  2351   0043CC  9DA7               	bcf	167,6,b	;volatile
  2352                           
  2353                           ;i2c.c: 16:   SSP2DATPPS=0x1D;
  2354   0043CE  0E1D               	movlw	29
  2355   0043D0  6F1D               	movwf	29,b	;volatile
  2356                           
  2357                           ;i2c.c: 17:   SSP2CLKPPS=0x1E;
  2358   0043D2  0E1E               	movlw	30
  2359   0043D4  6F1C               	movwf	28,b	;volatile
  2360                           
  2361                           ;i2c.c: 18:   RD5PPS=0x1C;
  2362   0043D6  0E1C               	movlw	28
  2363   0043D8  6F6F               	movwf	111,b	;volatile
  2364                           
  2365                           ;i2c.c: 19:   RD6PPS=0x1B;
  2366   0043DA  0E1B               	movlw	27
  2367   0043DC  6F70               	movwf	112,b	;volatile
  2368   0043DE                     
  2369                           ; BSR set to: 14
  2370   0043DE  0012               	return		;funcret
  2371   0043E0                     __end_of_I2C_2_Master_Init:
  2372                           	callstack 0
  2373                           
  2374 ;; *************** function _RGB2Hue *****************
  2375 ;; Defined at:
  2376 ;;		line 22 in file "colorfunctions.c"
  2377 ;; Parameters:    Size  Location     Type
  2378 ;;  cf              2   17[BANK0 ] PTR struct RGBC_rel
  2379 ;;		 -> colorf(22), 
  2380 ;; Auto vars:     Size  Location     Type
  2381 ;;  min             2   29[BANK0 ] int 
  2382 ;;  max             2   27[BANK0 ] int 
  2383 ;; Return value:  Size  Location     Type
  2384 ;;                  1    wreg      void 
  2385 ;; Registers used:
  2386 ;;		wreg, fsr2l, fsr2h, status,2, status,0, prodl, prodh, cstack
  2387 ;; Tracked objects:
  2388 ;;		On entry : 0/0
  2389 ;;		On exit  : 0/0
  2390 ;;		Unchanged: 0/0
  2391 ;; Data sizes:     COMRAM   BANK0   BANK1   BANK2   BANK3   BANK4   BANK5   BANK6   BANK7   BANK8   BANK9  BANK10  BANK1
      +1  BANK12  BANK13
  2392 ;;      Params:         0       2       0       0       0       0       0       0       0       0       0       0       
      +0       0       0
  2393 ;;      Locals:         0       8       0       0       0       0       0       0       0       0       0       0       
      +0       0       0
  2394 ;;      Temps:          0       4       0       0       0       0       0       0       0       0       0       0       
      +0       0       0
  2395 ;;      Totals:         0      14       0       0       0       0       0       0       0       0       0       0       
      +0       0       0
  2396 ;;Total ram usage:       14 bytes
  2397 ;; Hardware stack levels used: 1
  2398 ;; Hardware stack levels required when called: 2
  2399 ;; This function calls:
  2400 ;;		___fladd
  2401 ;;		___fldiv
  2402 ;;		___fleq
  2403 ;;		___flge
  2404 ;;		___flmul
  2405 ;;		___flsub
  2406 ;;		___fltol
  2407 ;;		___xxtofl
  2408 ;; This function is called by:
  2409 ;;		_main
  2410 ;; This function uses a non-reentrant model
  2411 ;;
  2412                           
  2413                           	psect	text16
  2414   00186A                     __ptext16:
  2415                           	callstack 0
  2416   00186A                     _RGB2Hue:
  2417                           	callstack 28
  2418   00186A                     
  2419                           ;colorfunctions.c: 23:     if ((cf->Rf == cf->Gf)&&(cf->Rf == cf->Bf)){
  2420   00186A  C071  FFD9         	movff	RGB2Hue@cf,fsr2l
  2421   00186E  C072  FFDA         	movff	RGB2Hue@cf+1,fsr2h
  2422   001872  CFDE F001          	movff	postinc2,___fleq@ff1
  2423   001876  CFDE F002          	movff	postinc2,___fleq@ff1+1
  2424   00187A  CFDE F003          	movff	postinc2,___fleq@ff1+2
  2425   00187E  CFDE F004          	movff	postinc2,___fleq@ff1+3
  2426   001882  0100               	movlb	0	; () banked
  2427   001884  EE20 F004          	lfsr	2,4
  2428   001888  5171               	movf	RGB2Hue@cf& (0+255),w,b
  2429   00188A  26D9               	addwf	fsr2l,f,c
  2430   00188C  5172               	movf	(RGB2Hue@cf+1)& (0+255),w,b
  2431   00188E  22DA               	addwfc	fsr2h,f,c
  2432   001890  CFDE F005          	movff	postinc2,___fleq@ff2
  2433   001894  CFDE F006          	movff	postinc2,___fleq@ff2+1
  2434   001898  CFDE F007          	movff	postinc2,___fleq@ff2+2
  2435   00189C  CFDE F008          	movff	postinc2,___fleq@ff2+3
  2436   0018A0  ECE1  F01E         	call	___fleq	;wreg free
  2437   0018A4  A0D8               	btfss	status,0,c
  2438   0018A6  EF57  F00C         	goto	u4011
  2439   0018AA  EF59  F00C         	goto	u4010
  2440   0018AE                     u4011:
  2441   0018AE  EF8E  F00C         	goto	l3755
  2442   0018B2                     u4010:
  2443   0018B2  C071  FFD9         	movff	RGB2Hue@cf,fsr2l
  2444   0018B6  C072  FFDA         	movff	RGB2Hue@cf+1,fsr2h
  2445   0018BA  CFDE F001          	movff	postinc2,___fleq@ff1
  2446   0018BE  CFDE F002          	movff	postinc2,___fleq@ff1+1
  2447   0018C2  CFDE F003          	movff	postinc2,___fleq@ff1+2
  2448   0018C6  CFDE F004          	movff	postinc2,___fleq@ff1+3
  2449   0018CA  0100               	movlb	0	; () banked
  2450   0018CC  EE20 F008          	lfsr	2,8
  2451   0018D0  5171               	movf	RGB2Hue@cf& (0+255),w,b
  2452   0018D2  26D9               	addwf	fsr2l,f,c
  2453   0018D4  5172               	movf	(RGB2Hue@cf+1)& (0+255),w,b
  2454   0018D6  22DA               	addwfc	fsr2h,f,c
  2455   0018D8  CFDE F005          	movff	postinc2,___fleq@ff2
  2456   0018DC  CFDE F006          	movff	postinc2,___fleq@ff2+1
  2457   0018E0  CFDE F007          	movff	postinc2,___fleq@ff2+2
  2458   0018E4  CFDE F008          	movff	postinc2,___fleq@ff2+3
  2459   0018E8  ECE1  F01E         	call	___fleq	;wreg free
  2460   0018EC  A0D8               	btfss	status,0,c
  2461   0018EE  EF7B  F00C         	goto	u4021
  2462   0018F2  EF7D  F00C         	goto	u4020
  2463   0018F6                     u4021:
  2464   0018F6  EF8E  F00C         	goto	l3755
  2465   0018FA                     u4020:
  2466   0018FA                     
  2467                           ;colorfunctions.c: 24:         cf->h=0;
  2468   0018FA  0100               	movlb	0	; () banked
  2469   0018FC  EE20 F010          	lfsr	2,16
  2470   001900  5171               	movf	RGB2Hue@cf& (0+255),w,b
  2471   001902  26D9               	addwf	fsr2l,f,c
  2472   001904  5172               	movf	(RGB2Hue@cf+1)& (0+255),w,b
  2473   001906  22DA               	addwfc	fsr2h,f,c
  2474   001908  0E00               	movlw	0
  2475   00190A  6EDE               	movwf	postinc2,c
  2476   00190C  0E00               	movlw	0
  2477   00190E  6EDE               	movwf	postinc2,c
  2478   001910  0E00               	movlw	0
  2479   001912  6EDE               	movwf	postinc2,c
  2480   001914  0E00               	movlw	0
  2481   001916  6EDD               	movwf	postdec2,c
  2482                           
  2483                           ;colorfunctions.c: 25:     } else{
  2484   001918  EFCA  F00F         	goto	l87
  2485   00191C                     l3755:
  2486                           
  2487                           ;colorfunctions.c: 27:         signed int min=0;
  2488   00191C  0E00               	movlw	0
  2489   00191E  0100               	movlb	0	; () banked
  2490   001920  6F7E               	movwf	(RGB2Hue@min+1)& (0+255),b
  2491   001922  0E00               	movlw	0
  2492   001924  6F7D               	movwf	RGB2Hue@min& (0+255),b
  2493   001926                     
  2494                           ; BSR set to: 0
  2495                           ;colorfunctions.c: 29:         if ((cf->Rf < cf->Gf)&(cf->Rf < cf->Bf)){
  2496   001926  C071  FFD9         	movff	RGB2Hue@cf,fsr2l
  2497   00192A  C072  FFDA         	movff	RGB2Hue@cf+1,fsr2h
  2498   00192E  CFDE F057          	movff	postinc2,___flge@ff1
  2499   001932  CFDE F058          	movff	postinc2,___flge@ff1+1
  2500   001936  CFDE F059          	movff	postinc2,___flge@ff1+2
  2501   00193A  CFDE F05A          	movff	postinc2,___flge@ff1+3
  2502   00193E  EE20 F004          	lfsr	2,4
  2503   001942  5171               	movf	RGB2Hue@cf& (0+255),w,b
  2504   001944  26D9               	addwf	fsr2l,f,c
  2505   001946  5172               	movf	(RGB2Hue@cf+1)& (0+255),w,b
  2506   001948  22DA               	addwfc	fsr2h,f,c
  2507   00194A  CFDE F05B          	movff	postinc2,___flge@ff2
  2508   00194E  CFDE F05C          	movff	postinc2,___flge@ff2+1
  2509   001952  CFDE F05D          	movff	postinc2,___flge@ff2+2
  2510   001956  CFDE F05E          	movff	postinc2,___flge@ff2+3
  2511   00195A  EC9E  F01C         	call	___flge	;wreg free
  2512   00195E  B0D8               	btfsc	status,0,c
  2513   001960  EFB4  F00C         	goto	u4031
  2514   001964  EFB6  F00C         	goto	u4030
  2515   001968                     u4031:
  2516   001968  EFEE  F00C         	goto	l3763
  2517   00196C                     u4030:
  2518   00196C  C071  FFD9         	movff	RGB2Hue@cf,fsr2l
  2519   001970  C072  FFDA         	movff	RGB2Hue@cf+1,fsr2h
  2520   001974  CFDE F057          	movff	postinc2,___flge@ff1
  2521   001978  CFDE F058          	movff	postinc2,___flge@ff1+1
  2522   00197C  CFDE F059          	movff	postinc2,___flge@ff1+2
  2523   001980  CFDE F05A          	movff	postinc2,___flge@ff1+3
  2524   001984  0100               	movlb	0	; () banked
  2525   001986  EE20 F008          	lfsr	2,8
  2526   00198A  5171               	movf	RGB2Hue@cf& (0+255),w,b
  2527   00198C  26D9               	addwf	fsr2l,f,c
  2528   00198E  5172               	movf	(RGB2Hue@cf+1)& (0+255),w,b
  2529   001990  22DA               	addwfc	fsr2h,f,c
  2530   001992  CFDE F05B          	movff	postinc2,___flge@ff2
  2531   001996  CFDE F05C          	movff	postinc2,___flge@ff2+1
  2532   00199A  CFDE F05D          	movff	postinc2,___flge@ff2+2
  2533   00199E  CFDE F05E          	movff	postinc2,___flge@ff2+3
  2534   0019A2  EC9E  F01C         	call	___flge	;wreg free
  2535   0019A6  B0D8               	btfsc	status,0,c
  2536   0019A8  EFD8  F00C         	goto	u4041
  2537   0019AC  EFDA  F00C         	goto	u4040
  2538   0019B0                     u4041:
  2539   0019B0  EFEE  F00C         	goto	l3763
  2540   0019B4                     u4040:
  2541   0019B4                     
  2542                           ;colorfunctions.c: 30:             min=cf->Rf;
  2543   0019B4  C071  FFD9         	movff	RGB2Hue@cf,fsr2l
  2544   0019B8  C072  FFDA         	movff	RGB2Hue@cf+1,fsr2h
  2545   0019BC  CFDE F001          	movff	postinc2,___fltol@f1
  2546   0019C0  CFDE F002          	movff	postinc2,___fltol@f1+1
  2547   0019C4  CFDE F003          	movff	postinc2,___fltol@f1+2
  2548   0019C8  CFDE F004          	movff	postinc2,___fltol@f1+3
  2549   0019CC  EC1B  F01C         	call	___fltol	;wreg free
  2550   0019D0  C001  F07D         	movff	?___fltol,RGB2Hue@min
  2551   0019D4  C002  F07E         	movff	?___fltol+1,RGB2Hue@min+1
  2552                           
  2553                           ;colorfunctions.c: 31:         } else if((cf->Gf < cf->Rf)&(cf->Gf < cf->Bf)){
  2554   0019D8  EF64  F00D         	goto	l79
  2555   0019DC                     l3763:
  2556   0019DC  0100               	movlb	0	; () banked
  2557   0019DE  EE20 F004          	lfsr	2,4
  2558   0019E2  5171               	movf	RGB2Hue@cf& (0+255),w,b
  2559   0019E4  26D9               	addwf	fsr2l,f,c
  2560   0019E6  5172               	movf	(RGB2Hue@cf+1)& (0+255),w,b
  2561   0019E8  22DA               	addwfc	fsr2h,f,c
  2562   0019EA  CFDE F057          	movff	postinc2,___flge@ff1
  2563   0019EE  CFDE F058          	movff	postinc2,___flge@ff1+1
  2564   0019F2  CFDE F059          	movff	postinc2,___flge@ff1+2
  2565   0019F6  CFDE F05A          	movff	postinc2,___flge@ff1+3
  2566   0019FA  C071  FFD9         	movff	RGB2Hue@cf,fsr2l
  2567   0019FE  C072  FFDA         	movff	RGB2Hue@cf+1,fsr2h
  2568   001A02  CFDE F05B          	movff	postinc2,___flge@ff2
  2569   001A06  CFDE F05C          	movff	postinc2,___flge@ff2+1
  2570   001A0A  CFDE F05D          	movff	postinc2,___flge@ff2+2
  2571   001A0E  CFDE F05E          	movff	postinc2,___flge@ff2+3
  2572   001A12  EC9E  F01C         	call	___flge	;wreg free
  2573   001A16  B0D8               	btfsc	status,0,c
  2574   001A18  EF10  F00D         	goto	u4051
  2575   001A1C  EF12  F00D         	goto	u4050
  2576   001A20                     u4051:
  2577   001A20  EF4F  F00D         	goto	l3769
  2578   001A24                     u4050:
  2579   001A24  0100               	movlb	0	; () banked
  2580   001A26  EE20 F004          	lfsr	2,4
  2581   001A2A  5171               	movf	RGB2Hue@cf& (0+255),w,b
  2582   001A2C  26D9               	addwf	fsr2l,f,c
  2583   001A2E  5172               	movf	(RGB2Hue@cf+1)& (0+255),w,b
  2584   001A30  22DA               	addwfc	fsr2h,f,c
  2585   001A32  CFDE F057          	movff	postinc2,___flge@ff1
  2586   001A36  CFDE F058          	movff	postinc2,___flge@ff1+1
  2587   001A3A  CFDE F059          	movff	postinc2,___flge@ff1+2
  2588   001A3E  CFDE F05A          	movff	postinc2,___flge@ff1+3
  2589   001A42  EE20 F008          	lfsr	2,8
  2590   001A46  5171               	movf	RGB2Hue@cf& (0+255),w,b
  2591   001A48  26D9               	addwf	fsr2l,f,c
  2592   001A4A  5172               	movf	(RGB2Hue@cf+1)& (0+255),w,b
  2593   001A4C  22DA               	addwfc	fsr2h,f,c
  2594   001A4E  CFDE F05B          	movff	postinc2,___flge@ff2
  2595   001A52  CFDE F05C          	movff	postinc2,___flge@ff2+1
  2596   001A56  CFDE F05D          	movff	postinc2,___flge@ff2+2
  2597   001A5A  CFDE F05E          	movff	postinc2,___flge@ff2+3
  2598   001A5E  EC9E  F01C         	call	___flge	;wreg free
  2599   001A62  B0D8               	btfsc	status,0,c
  2600   001A64  EF36  F00D         	goto	u4061
  2601   001A68  EF38  F00D         	goto	u4060
  2602   001A6C                     u4061:
  2603   001A6C  EF4F  F00D         	goto	l3769
  2604   001A70                     u4060:
  2605   001A70                     
  2606                           ;colorfunctions.c: 32:             min=cf->Gf;
  2607   001A70  0100               	movlb	0	; () banked
  2608   001A72  EE20 F004          	lfsr	2,4
  2609   001A76  5171               	movf	RGB2Hue@cf& (0+255),w,b
  2610   001A78  26D9               	addwf	fsr2l,f,c
  2611   001A7A  5172               	movf	(RGB2Hue@cf+1)& (0+255),w,b
  2612   001A7C  22DA               	addwfc	fsr2h,f,c
  2613   001A7E  CFDE F001          	movff	postinc2,___fltol@f1
  2614   001A82  CFDE F002          	movff	postinc2,___fltol@f1+1
  2615   001A86  CFDE F003          	movff	postinc2,___fltol@f1+2
  2616   001A8A  CFDE F004          	movff	postinc2,___fltol@f1+3
  2617   001A8E  EC1B  F01C         	call	___fltol	;wreg free
  2618   001A92  C001  F07D         	movff	?___fltol,RGB2Hue@min
  2619   001A96  C002  F07E         	movff	?___fltol+1,RGB2Hue@min+1
  2620                           
  2621                           ;colorfunctions.c: 33:         } else{
  2622   001A9A  EF64  F00D         	goto	l79
  2623   001A9E                     l3769:
  2624                           
  2625                           ;colorfunctions.c: 34:             min=cf->Bf;
  2626   001A9E  0100               	movlb	0	; () banked
  2627   001AA0  EE20 F008          	lfsr	2,8
  2628   001AA4  5171               	movf	RGB2Hue@cf& (0+255),w,b
  2629   001AA6  26D9               	addwf	fsr2l,f,c
  2630   001AA8  5172               	movf	(RGB2Hue@cf+1)& (0+255),w,b
  2631   001AAA  22DA               	addwfc	fsr2h,f,c
  2632   001AAC  CFDE F001          	movff	postinc2,___fltol@f1
  2633   001AB0  CFDE F002          	movff	postinc2,___fltol@f1+1
  2634   001AB4  CFDE F003          	movff	postinc2,___fltol@f1+2
  2635   001AB8  CFDE F004          	movff	postinc2,___fltol@f1+3
  2636   001ABC  EC1B  F01C         	call	___fltol	;wreg free
  2637   001AC0  C001  F07D         	movff	?___fltol,RGB2Hue@min
  2638   001AC4  C002  F07E         	movff	?___fltol+1,RGB2Hue@min+1
  2639   001AC8                     l79:
  2640                           
  2641                           ;colorfunctions.c: 37:         if ((cf->Rf > cf->Gf)&(cf->Rf > cf->Bf)){
  2642   001AC8  0100               	movlb	0	; () banked
  2643   001ACA  EE20 F004          	lfsr	2,4
  2644   001ACE  5171               	movf	RGB2Hue@cf& (0+255),w,b
  2645   001AD0  26D9               	addwf	fsr2l,f,c
  2646   001AD2  5172               	movf	(RGB2Hue@cf+1)& (0+255),w,b
  2647   001AD4  22DA               	addwfc	fsr2h,f,c
  2648   001AD6  CFDE F057          	movff	postinc2,___flge@ff1
  2649   001ADA  CFDE F058          	movff	postinc2,___flge@ff1+1
  2650   001ADE  CFDE F059          	movff	postinc2,___flge@ff1+2
  2651   001AE2  CFDE F05A          	movff	postinc2,___flge@ff1+3
  2652   001AE6  C071  FFD9         	movff	RGB2Hue@cf,fsr2l
  2653   001AEA  C072  FFDA         	movff	RGB2Hue@cf+1,fsr2h
  2654   001AEE  CFDE F05B          	movff	postinc2,___flge@ff2
  2655   001AF2  CFDE F05C          	movff	postinc2,___flge@ff2+1
  2656   001AF6  CFDE F05D          	movff	postinc2,___flge@ff2+2
  2657   001AFA  CFDE F05E          	movff	postinc2,___flge@ff2+3
  2658   001AFE  EC9E  F01C         	call	___flge	;wreg free
  2659   001B02  B0D8               	btfsc	status,0,c
  2660   001B04  EF86  F00D         	goto	u4071
  2661   001B08  EF88  F00D         	goto	u4070
  2662   001B0C                     u4071:
  2663   001B0C  EF25  F00E         	goto	l3777
  2664   001B10                     u4070:
  2665   001B10  0100               	movlb	0	; () banked
  2666   001B12  EE20 F008          	lfsr	2,8
  2667   001B16  5171               	movf	RGB2Hue@cf& (0+255),w,b
  2668   001B18  26D9               	addwf	fsr2l,f,c
  2669   001B1A  5172               	movf	(RGB2Hue@cf+1)& (0+255),w,b
  2670   001B1C  22DA               	addwfc	fsr2h,f,c
  2671   001B1E  CFDE F057          	movff	postinc2,___flge@ff1
  2672   001B22  CFDE F058          	movff	postinc2,___flge@ff1+1
  2673   001B26  CFDE F059          	movff	postinc2,___flge@ff1+2
  2674   001B2A  CFDE F05A          	movff	postinc2,___flge@ff1+3
  2675   001B2E  C071  FFD9         	movff	RGB2Hue@cf,fsr2l
  2676   001B32  C072  FFDA         	movff	RGB2Hue@cf+1,fsr2h
  2677   001B36  CFDE F05B          	movff	postinc2,___flge@ff2
  2678   001B3A  CFDE F05C          	movff	postinc2,___flge@ff2+1
  2679   001B3E  CFDE F05D          	movff	postinc2,___flge@ff2+2
  2680   001B42  CFDE F05E          	movff	postinc2,___flge@ff2+3
  2681   001B46  EC9E  F01C         	call	___flge	;wreg free
  2682   001B4A  B0D8               	btfsc	status,0,c
  2683   001B4C  EFAA  F00D         	goto	u4081
  2684   001B50  EFAC  F00D         	goto	u4080
  2685   001B54                     u4081:
  2686   001B54  EF25  F00E         	goto	l3777
  2687   001B58                     u4080:
  2688   001B58                     
  2689                           ;colorfunctions.c: 38:             max=(cf->Rf);
  2690   001B58  C071  FFD9         	movff	RGB2Hue@cf,fsr2l
  2691   001B5C  C072  FFDA         	movff	RGB2Hue@cf+1,fsr2h
  2692   001B60  CFDE F001          	movff	postinc2,___fltol@f1
  2693   001B64  CFDE F002          	movff	postinc2,___fltol@f1+1
  2694   001B68  CFDE F003          	movff	postinc2,___fltol@f1+2
  2695   001B6C  CFDE F004          	movff	postinc2,___fltol@f1+3
  2696   001B70  EC1B  F01C         	call	___fltol	;wreg free
  2697   001B74  C001  F07B         	movff	?___fltol,RGB2Hue@max
  2698   001B78  C002  F07C         	movff	?___fltol+1,RGB2Hue@max+1
  2699   001B7C                     
  2700                           ;colorfunctions.c: 41:             (cf->h)=60*(((cf->Gf)-(cf->Bf))/(max-min));
  2701   001B7C  0100               	movlb	0	; () banked
  2702   001B7E  517D               	movf	RGB2Hue@min& (0+255),w,b
  2703   001B80  5D7B               	subwf	RGB2Hue@max& (0+255),w,b
  2704   001B82  6F73               	movwf	??_RGB2Hue& (0+255),b
  2705   001B84  517E               	movf	(RGB2Hue@min+1)& (0+255),w,b
  2706   001B86  597C               	subwfb	(RGB2Hue@max+1)& (0+255),w,b
  2707   001B88  6F74               	movwf	(??_RGB2Hue+1)& (0+255),b
  2708   001B8A  C073  F00C         	movff	??_RGB2Hue,___xxtofl@val
  2709   001B8E  C074  F00D         	movff	??_RGB2Hue+1,___xxtofl@val+1
  2710   001B92  0E00               	movlw	0
  2711   001B94  BE0D               	btfsc	(___xxtofl@val+1)^0,7,c
  2712   001B96  0EFF               	movlw	-1
  2713   001B98  6E0E               	movwf	(___xxtofl@val+2)^0,c
  2714   001B9A  6E0F               	movwf	(___xxtofl@val+3)^0,c
  2715   001B9C  0E01               	movlw	1
  2716   001B9E  ECBE  F01A         	call	___xxtofl
  2717   001BA2  C00C  F036         	movff	?___xxtofl,___fldiv@a
  2718   001BA6  C00D  F037         	movff	?___xxtofl+1,___fldiv@a+1
  2719   001BAA  C00E  F038         	movff	?___xxtofl+2,___fldiv@a+2
  2720   001BAE  C00F  F039         	movff	?___xxtofl+3,___fldiv@a+3
  2721   001BB2  0100               	movlb	0	; () banked
  2722   001BB4  EE20 F008          	lfsr	2,8
  2723   001BB8  5171               	movf	RGB2Hue@cf& (0+255),w,b
  2724   001BBA  26D9               	addwf	fsr2l,f,c
  2725   001BBC  5172               	movf	(RGB2Hue@cf+1)& (0+255),w,b
  2726   001BBE  22DA               	addwfc	fsr2h,f,c
  2727   001BC0  CFDE F02E          	movff	postinc2,___flsub@a
  2728   001BC4  CFDE F02F          	movff	postinc2,___flsub@a+1
  2729   001BC8  CFDE F030          	movff	postinc2,___flsub@a+2
  2730   001BCC  CFDE F031          	movff	postinc2,___flsub@a+3
  2731   001BD0  EE20 F004          	lfsr	2,4
  2732   001BD4  5171               	movf	RGB2Hue@cf& (0+255),w,b
  2733   001BD6  26D9               	addwf	fsr2l,f,c
  2734   001BD8  5172               	movf	(RGB2Hue@cf+1)& (0+255),w,b
  2735   001BDA  22DA               	addwfc	fsr2h,f,c
  2736   001BDC  CFDE F02A          	movff	postinc2,___flsub@b
  2737   001BE0  CFDE F02B          	movff	postinc2,___flsub@b+1
  2738   001BE4  CFDE F02C          	movff	postinc2,___flsub@b+2
  2739   001BE8  CFDE F02D          	movff	postinc2,___flsub@b+3
  2740   001BEC  ECC2  F020         	call	___flsub	;wreg free
  2741   001BF0  C02A  F032         	movff	?___flsub,___fldiv@b
  2742   001BF4  C02B  F033         	movff	?___flsub+1,___fldiv@b+1
  2743   001BF8  C02C  F034         	movff	?___flsub+2,___fldiv@b+2
  2744   001BFC  C02D  F035         	movff	?___flsub+3,___fldiv@b+3
  2745   001C00  ECD0  F016         	call	___fldiv	;wreg free
  2746   001C04  C032  F04B         	movff	?___fldiv,___flmul@b
  2747   001C08  C033  F04C         	movff	?___fldiv+1,___flmul@b+1
  2748   001C0C  C034  F04D         	movff	?___fldiv+2,___flmul@b+2
  2749   001C10  C035  F04E         	movff	?___fldiv+3,___flmul@b+3
  2750   001C14  0E00               	movlw	0
  2751   001C16  6E4F               	movwf	___flmul@a^0,c
  2752   001C18  0E00               	movlw	0
  2753   001C1A  6E50               	movwf	(___flmul@a+1)^0,c
  2754   001C1C  0E70               	movlw	112
  2755   001C1E  6E51               	movwf	(___flmul@a+2)^0,c
  2756   001C20  0E42               	movlw	66
  2757   001C22  6E52               	movwf	(___flmul@a+3)^0,c
  2758   001C24  ECBA  F014         	call	___flmul	;wreg free
  2759   001C28  0100               	movlb	0	; () banked
  2760   001C2A  EE20 F010          	lfsr	2,16
  2761   001C2E  5171               	movf	RGB2Hue@cf& (0+255),w,b
  2762   001C30  26D9               	addwf	fsr2l,f,c
  2763   001C32  5172               	movf	(RGB2Hue@cf+1)& (0+255),w,b
  2764   001C34  22DA               	addwfc	fsr2h,f,c
  2765   001C36  C04B  FFDE         	movff	?___flmul,postinc2
  2766   001C3A  C04C  FFDE         	movff	?___flmul+1,postinc2
  2767   001C3E  C04D  FFDE         	movff	?___flmul+2,postinc2
  2768   001C42  C04E  FFDE         	movff	?___flmul+3,postinc2
  2769                           
  2770                           ;colorfunctions.c: 42:         } else if((cf->Gf > cf->Rf)&(cf->Gf > cf->Bf)){
  2771   001C46  EF95  F00F         	goto	l3789
  2772   001C4A                     l3777:
  2773   001C4A  C071  FFD9         	movff	RGB2Hue@cf,fsr2l
  2774   001C4E  C072  FFDA         	movff	RGB2Hue@cf+1,fsr2h
  2775   001C52  CFDE F057          	movff	postinc2,___flge@ff1
  2776   001C56  CFDE F058          	movff	postinc2,___flge@ff1+1
  2777   001C5A  CFDE F059          	movff	postinc2,___flge@ff1+2
  2778   001C5E  CFDE F05A          	movff	postinc2,___flge@ff1+3
  2779   001C62  0100               	movlb	0	; () banked
  2780   001C64  EE20 F004          	lfsr	2,4
  2781   001C68  5171               	movf	RGB2Hue@cf& (0+255),w,b
  2782   001C6A  26D9               	addwf	fsr2l,f,c
  2783   001C6C  5172               	movf	(RGB2Hue@cf+1)& (0+255),w,b
  2784   001C6E  22DA               	addwfc	fsr2h,f,c
  2785   001C70  CFDE F05B          	movff	postinc2,___flge@ff2
  2786   001C74  CFDE F05C          	movff	postinc2,___flge@ff2+1
  2787   001C78  CFDE F05D          	movff	postinc2,___flge@ff2+2
  2788   001C7C  CFDE F05E          	movff	postinc2,___flge@ff2+3
  2789   001C80  EC9E  F01C         	call	___flge	;wreg free
  2790   001C84  B0D8               	btfsc	status,0,c
  2791   001C86  EF47  F00E         	goto	u4091
  2792   001C8A  EF49  F00E         	goto	u4090
  2793   001C8E                     u4091:
  2794   001C8E  EF03  F00F         	goto	l3785
  2795   001C92                     u4090:
  2796   001C92  0100               	movlb	0	; () banked
  2797   001C94  EE20 F008          	lfsr	2,8
  2798   001C98  5171               	movf	RGB2Hue@cf& (0+255),w,b
  2799   001C9A  26D9               	addwf	fsr2l,f,c
  2800   001C9C  5172               	movf	(RGB2Hue@cf+1)& (0+255),w,b
  2801   001C9E  22DA               	addwfc	fsr2h,f,c
  2802   001CA0  CFDE F057          	movff	postinc2,___flge@ff1
  2803   001CA4  CFDE F058          	movff	postinc2,___flge@ff1+1
  2804   001CA8  CFDE F059          	movff	postinc2,___flge@ff1+2
  2805   001CAC  CFDE F05A          	movff	postinc2,___flge@ff1+3
  2806   001CB0  EE20 F004          	lfsr	2,4
  2807   001CB4  5171               	movf	RGB2Hue@cf& (0+255),w,b
  2808   001CB6  26D9               	addwf	fsr2l,f,c
  2809   001CB8  5172               	movf	(RGB2Hue@cf+1)& (0+255),w,b
  2810   001CBA  22DA               	addwfc	fsr2h,f,c
  2811   001CBC  CFDE F05B          	movff	postinc2,___flge@ff2
  2812   001CC0  CFDE F05C          	movff	postinc2,___flge@ff2+1
  2813   001CC4  CFDE F05D          	movff	postinc2,___flge@ff2+2
  2814   001CC8  CFDE F05E          	movff	postinc2,___flge@ff2+3
  2815   001CCC  EC9E  F01C         	call	___flge	;wreg free
  2816   001CD0  B0D8               	btfsc	status,0,c
  2817   001CD2  EF6D  F00E         	goto	u4101
  2818   001CD6  EF6F  F00E         	goto	u4100
  2819   001CDA                     u4101:
  2820   001CDA  EF03  F00F         	goto	l3785
  2821   001CDE                     u4100:
  2822   001CDE                     
  2823                           ;colorfunctions.c: 43:             max=cf->Gf;
  2824   001CDE  0100               	movlb	0	; () banked
  2825   001CE0  EE20 F004          	lfsr	2,4
  2826   001CE4  5171               	movf	RGB2Hue@cf& (0+255),w,b
  2827   001CE6  26D9               	addwf	fsr2l,f,c
  2828   001CE8  5172               	movf	(RGB2Hue@cf+1)& (0+255),w,b
  2829   001CEA  22DA               	addwfc	fsr2h,f,c
  2830   001CEC  CFDE F001          	movff	postinc2,___fltol@f1
  2831   001CF0  CFDE F002          	movff	postinc2,___fltol@f1+1
  2832   001CF4  CFDE F003          	movff	postinc2,___fltol@f1+2
  2833   001CF8  CFDE F004          	movff	postinc2,___fltol@f1+3
  2834   001CFC  EC1B  F01C         	call	___fltol	;wreg free
  2835   001D00  C001  F07B         	movff	?___fltol,RGB2Hue@max
  2836   001D04  C002  F07C         	movff	?___fltol+1,RGB2Hue@max+1
  2837                           
  2838                           ;colorfunctions.c: 44:             (cf->h)=60*(2+(((cf->Bf)-(cf->Rf))/(max-min)));
  2839   001D08  0100               	movlb	0	; () banked
  2840   001D0A  517D               	movf	RGB2Hue@min& (0+255),w,b
  2841   001D0C  5D7B               	subwf	RGB2Hue@max& (0+255),w,b
  2842   001D0E  6F73               	movwf	??_RGB2Hue& (0+255),b
  2843   001D10  517E               	movf	(RGB2Hue@min+1)& (0+255),w,b
  2844   001D12  597C               	subwfb	(RGB2Hue@max+1)& (0+255),w,b
  2845   001D14  6F74               	movwf	(??_RGB2Hue+1)& (0+255),b
  2846   001D16  C073  F00C         	movff	??_RGB2Hue,___xxtofl@val
  2847   001D1A  C074  F00D         	movff	??_RGB2Hue+1,___xxtofl@val+1
  2848   001D1E  0E00               	movlw	0
  2849   001D20  BE0D               	btfsc	(___xxtofl@val+1)^0,7,c
  2850   001D22  0EFF               	movlw	-1
  2851   001D24  6E0E               	movwf	(___xxtofl@val+2)^0,c
  2852   001D26  6E0F               	movwf	(___xxtofl@val+3)^0,c
  2853   001D28  0E01               	movlw	1
  2854   001D2A  ECBE  F01A         	call	___xxtofl
  2855   001D2E  C00C  F036         	movff	?___xxtofl,___fldiv@a
  2856   001D32  C00D  F037         	movff	?___xxtofl+1,___fldiv@a+1
  2857   001D36  C00E  F038         	movff	?___xxtofl+2,___fldiv@a+2
  2858   001D3A  C00F  F039         	movff	?___xxtofl+3,___fldiv@a+3
  2859   001D3E  C071  FFD9         	movff	RGB2Hue@cf,fsr2l
  2860   001D42  C072  FFDA         	movff	RGB2Hue@cf+1,fsr2h
  2861   001D46  CFDE F02E          	movff	postinc2,___flsub@a
  2862   001D4A  CFDE F02F          	movff	postinc2,___flsub@a+1
  2863   001D4E  CFDE F030          	movff	postinc2,___flsub@a+2
  2864   001D52  CFDE F031          	movff	postinc2,___flsub@a+3
  2865   001D56  0100               	movlb	0	; () banked
  2866   001D58  EE20 F008          	lfsr	2,8
  2867   001D5C  5171               	movf	RGB2Hue@cf& (0+255),w,b
  2868   001D5E  26D9               	addwf	fsr2l,f,c
  2869   001D60  5172               	movf	(RGB2Hue@cf+1)& (0+255),w,b
  2870   001D62  22DA               	addwfc	fsr2h,f,c
  2871   001D64  CFDE F02A          	movff	postinc2,___flsub@b
  2872   001D68  CFDE F02B          	movff	postinc2,___flsub@b+1
  2873   001D6C  CFDE F02C          	movff	postinc2,___flsub@b+2
  2874   001D70  CFDE F02D          	movff	postinc2,___flsub@b+3
  2875   001D74  ECC2  F020         	call	___flsub	;wreg free
  2876   001D78  C02A  F032         	movff	?___flsub,___fldiv@b
  2877   001D7C  C02B  F033         	movff	?___flsub+1,___fldiv@b+1
  2878   001D80  C02C  F034         	movff	?___flsub+2,___fldiv@b+2
  2879   001D84  C02D  F035         	movff	?___flsub+3,___fldiv@b+3
  2880   001D88  ECD0  F016         	call	___fldiv	;wreg free
  2881   001D8C  C032  F077         	movff	?___fldiv,_RGB2Hue$1696
  2882   001D90  C033  F078         	movff	?___fldiv+1,_RGB2Hue$1696+1
  2883   001D94  C034  F079         	movff	?___fldiv+2,_RGB2Hue$1696+2
  2884   001D98  C035  F07A         	movff	?___fldiv+3,_RGB2Hue$1696+3
  2885   001D9C                     
  2886                           ;colorfunctions.c: 44:             (cf->h)=60*(2+(((cf->Bf)-(cf->Rf))/(max-min)));
  2887   001D9C  0E00               	movlw	0
  2888   001D9E  6E1E               	movwf	___fladd@a^0,c
  2889   001DA0  0E00               	movlw	0
  2890   001DA2  6E1F               	movwf	(___fladd@a+1)^0,c
  2891   001DA4  0E00               	movlw	0
  2892   001DA6  6E20               	movwf	(___fladd@a+2)^0,c
  2893   001DA8  0E40               	movlw	64
  2894   001DAA  6E21               	movwf	(___fladd@a+3)^0,c
  2895   001DAC  C077  F01A         	movff	_RGB2Hue$1696,___fladd@b
  2896   001DB0  C078  F01B         	movff	_RGB2Hue$1696+1,___fladd@b+1
  2897   001DB4  C079  F01C         	movff	_RGB2Hue$1696+2,___fladd@b+2
  2898   001DB8  C07A  F01D         	movff	_RGB2Hue$1696+3,___fladd@b+3
  2899   001DBC  EC5A  F012         	call	___fladd	;wreg free
  2900   001DC0  C01A  F04B         	movff	?___fladd,___flmul@b
  2901   001DC4  C01B  F04C         	movff	?___fladd+1,___flmul@b+1
  2902   001DC8  C01C  F04D         	movff	?___fladd+2,___flmul@b+2
  2903   001DCC  C01D  F04E         	movff	?___fladd+3,___flmul@b+3
  2904   001DD0  0E00               	movlw	0
  2905   001DD2  6E4F               	movwf	___flmul@a^0,c
  2906   001DD4  0E00               	movlw	0
  2907   001DD6  6E50               	movwf	(___flmul@a+1)^0,c
  2908   001DD8  0E70               	movlw	112
  2909   001DDA  6E51               	movwf	(___flmul@a+2)^0,c
  2910   001DDC  0E42               	movlw	66
  2911   001DDE  6E52               	movwf	(___flmul@a+3)^0,c
  2912   001DE0  ECBA  F014         	call	___flmul	;wreg free
  2913   001DE4  0100               	movlb	0	; () banked
  2914   001DE6  EE20 F010          	lfsr	2,16
  2915   001DEA  5171               	movf	RGB2Hue@cf& (0+255),w,b
  2916   001DEC  26D9               	addwf	fsr2l,f,c
  2917   001DEE  5172               	movf	(RGB2Hue@cf+1)& (0+255),w,b
  2918   001DF0  22DA               	addwfc	fsr2h,f,c
  2919   001DF2  C04B  FFDE         	movff	?___flmul,postinc2
  2920   001DF6  C04C  FFDE         	movff	?___flmul+1,postinc2
  2921   001DFA  C04D  FFDE         	movff	?___flmul+2,postinc2
  2922   001DFE  C04E  FFDE         	movff	?___flmul+3,postinc2
  2923                           
  2924                           ;colorfunctions.c: 45:         }else{
  2925   001E02  EF95  F00F         	goto	l3789
  2926   001E06                     l3785:
  2927                           
  2928                           ;colorfunctions.c: 46:             max=cf->Bf;
  2929   001E06  0100               	movlb	0	; () banked
  2930   001E08  EE20 F008          	lfsr	2,8
  2931   001E0C  5171               	movf	RGB2Hue@cf& (0+255),w,b
  2932   001E0E  26D9               	addwf	fsr2l,f,c
  2933   001E10  5172               	movf	(RGB2Hue@cf+1)& (0+255),w,b
  2934   001E12  22DA               	addwfc	fsr2h,f,c
  2935   001E14  CFDE F001          	movff	postinc2,___fltol@f1
  2936   001E18  CFDE F002          	movff	postinc2,___fltol@f1+1
  2937   001E1C  CFDE F003          	movff	postinc2,___fltol@f1+2
  2938   001E20  CFDE F004          	movff	postinc2,___fltol@f1+3
  2939   001E24  EC1B  F01C         	call	___fltol	;wreg free
  2940   001E28  C001  F07B         	movff	?___fltol,RGB2Hue@max
  2941   001E2C  C002  F07C         	movff	?___fltol+1,RGB2Hue@max+1
  2942                           
  2943                           ;colorfunctions.c: 47:             (cf->h)=60*(4+(((cf->Rf)-(cf->Gf))/(max-min)));
  2944   001E30  0100               	movlb	0	; () banked
  2945   001E32  517D               	movf	RGB2Hue@min& (0+255),w,b
  2946   001E34  5D7B               	subwf	RGB2Hue@max& (0+255),w,b
  2947   001E36  6F73               	movwf	??_RGB2Hue& (0+255),b
  2948   001E38  517E               	movf	(RGB2Hue@min+1)& (0+255),w,b
  2949   001E3A  597C               	subwfb	(RGB2Hue@max+1)& (0+255),w,b
  2950   001E3C  6F74               	movwf	(??_RGB2Hue+1)& (0+255),b
  2951   001E3E  C073  F00C         	movff	??_RGB2Hue,___xxtofl@val
  2952   001E42  C074  F00D         	movff	??_RGB2Hue+1,___xxtofl@val+1
  2953   001E46  0E00               	movlw	0
  2954   001E48  BE0D               	btfsc	(___xxtofl@val+1)^0,7,c
  2955   001E4A  0EFF               	movlw	-1
  2956   001E4C  6E0E               	movwf	(___xxtofl@val+2)^0,c
  2957   001E4E  6E0F               	movwf	(___xxtofl@val+3)^0,c
  2958   001E50  0E01               	movlw	1
  2959   001E52  ECBE  F01A         	call	___xxtofl
  2960   001E56  C00C  F036         	movff	?___xxtofl,___fldiv@a
  2961   001E5A  C00D  F037         	movff	?___xxtofl+1,___fldiv@a+1
  2962   001E5E  C00E  F038         	movff	?___xxtofl+2,___fldiv@a+2
  2963   001E62  C00F  F039         	movff	?___xxtofl+3,___fldiv@a+3
  2964   001E66  0100               	movlb	0	; () banked
  2965   001E68  EE20 F004          	lfsr	2,4
  2966   001E6C  5171               	movf	RGB2Hue@cf& (0+255),w,b
  2967   001E6E  26D9               	addwf	fsr2l,f,c
  2968   001E70  5172               	movf	(RGB2Hue@cf+1)& (0+255),w,b
  2969   001E72  22DA               	addwfc	fsr2h,f,c
  2970   001E74  CFDE F02E          	movff	postinc2,___flsub@a
  2971   001E78  CFDE F02F          	movff	postinc2,___flsub@a+1
  2972   001E7C  CFDE F030          	movff	postinc2,___flsub@a+2
  2973   001E80  CFDE F031          	movff	postinc2,___flsub@a+3
  2974   001E84  C071  FFD9         	movff	RGB2Hue@cf,fsr2l
  2975   001E88  C072  FFDA         	movff	RGB2Hue@cf+1,fsr2h
  2976   001E8C  CFDE F02A          	movff	postinc2,___flsub@b
  2977   001E90  CFDE F02B          	movff	postinc2,___flsub@b+1
  2978   001E94  CFDE F02C          	movff	postinc2,___flsub@b+2
  2979   001E98  CFDE F02D          	movff	postinc2,___flsub@b+3
  2980   001E9C  ECC2  F020         	call	___flsub	;wreg free
  2981   001EA0  C02A  F032         	movff	?___flsub,___fldiv@b
  2982   001EA4  C02B  F033         	movff	?___flsub+1,___fldiv@b+1
  2983   001EA8  C02C  F034         	movff	?___flsub+2,___fldiv@b+2
  2984   001EAC  C02D  F035         	movff	?___flsub+3,___fldiv@b+3
  2985   001EB0  ECD0  F016         	call	___fldiv	;wreg free
  2986   001EB4  C032  F077         	movff	?___fldiv,_RGB2Hue$1696
  2987   001EB8  C033  F078         	movff	?___fldiv+1,_RGB2Hue$1696+1
  2988   001EBC  C034  F079         	movff	?___fldiv+2,_RGB2Hue$1696+2
  2989   001EC0  C035  F07A         	movff	?___fldiv+3,_RGB2Hue$1696+3
  2990   001EC4                     
  2991                           ;colorfunctions.c: 47:             (cf->h)=60*(4+(((cf->Rf)-(cf->Gf))/(max-min)));
  2992   001EC4  0E00               	movlw	0
  2993   001EC6  6E1E               	movwf	___fladd@a^0,c
  2994   001EC8  0E00               	movlw	0
  2995   001ECA  6E1F               	movwf	(___fladd@a+1)^0,c
  2996   001ECC  0E80               	movlw	128
  2997   001ECE  6E20               	movwf	(___fladd@a+2)^0,c
  2998   001ED0  0E40               	movlw	64
  2999   001ED2  6E21               	movwf	(___fladd@a+3)^0,c
  3000   001ED4  C077  F01A         	movff	_RGB2Hue$1696,___fladd@b
  3001   001ED8  C078  F01B         	movff	_RGB2Hue$1696+1,___fladd@b+1
  3002   001EDC  C079  F01C         	movff	_RGB2Hue$1696+2,___fladd@b+2
  3003   001EE0  C07A  F01D         	movff	_RGB2Hue$1696+3,___fladd@b+3
  3004   001EE4  EC5A  F012         	call	___fladd	;wreg free
  3005   001EE8  C01A  F04B         	movff	?___fladd,___flmul@b
  3006   001EEC  C01B  F04C         	movff	?___fladd+1,___flmul@b+1
  3007   001EF0  C01C  F04D         	movff	?___fladd+2,___flmul@b+2
  3008   001EF4  C01D  F04E         	movff	?___fladd+3,___flmul@b+3
  3009   001EF8  0E00               	movlw	0
  3010   001EFA  6E4F               	movwf	___flmul@a^0,c
  3011   001EFC  0E00               	movlw	0
  3012   001EFE  6E50               	movwf	(___flmul@a+1)^0,c
  3013   001F00  0E70               	movlw	112
  3014   001F02  6E51               	movwf	(___flmul@a+2)^0,c
  3015   001F04  0E42               	movlw	66
  3016   001F06  6E52               	movwf	(___flmul@a+3)^0,c
  3017   001F08  ECBA  F014         	call	___flmul	;wreg free
  3018   001F0C  0100               	movlb	0	; () banked
  3019   001F0E  EE20 F010          	lfsr	2,16
  3020   001F12  5171               	movf	RGB2Hue@cf& (0+255),w,b
  3021   001F14  26D9               	addwf	fsr2l,f,c
  3022   001F16  5172               	movf	(RGB2Hue@cf+1)& (0+255),w,b
  3023   001F18  22DA               	addwfc	fsr2h,f,c
  3024   001F1A  C04B  FFDE         	movff	?___flmul,postinc2
  3025   001F1E  C04C  FFDE         	movff	?___flmul+1,postinc2
  3026   001F22  C04D  FFDE         	movff	?___flmul+2,postinc2
  3027   001F26  C04E  FFDE         	movff	?___flmul+3,postinc2
  3028   001F2A                     l3789:
  3029                           
  3030                           ; BSR set to: 0
  3031                           ;colorfunctions.c: 49:         if (cf->h < 0){
  3032   001F2A  EE20 F010          	lfsr	2,16
  3033   001F2E  5171               	movf	RGB2Hue@cf& (0+255),w,b
  3034   001F30  26D9               	addwf	fsr2l,f,c
  3035   001F32  5172               	movf	(RGB2Hue@cf+1)& (0+255),w,b
  3036   001F34  22DA               	addwfc	fsr2h,f,c
  3037   001F36  0E03               	movlw	3
  3038   001F38  BEDB               	btfsc	plusw2,7,c
  3039   001F3A  EFA3  F00F         	goto	u4110
  3040   001F3E  EFA1  F00F         	goto	u4111
  3041   001F42                     u4111:
  3042   001F42  EFCA  F00F         	goto	l87
  3043   001F46                     u4110:
  3044   001F46                     
  3045                           ; BSR set to: 0
  3046                           ;colorfunctions.c: 50:             cf->h= cf->h +360;
  3047   001F46  EE20 F010          	lfsr	2,16
  3048   001F4A  5171               	movf	RGB2Hue@cf& (0+255),w,b
  3049   001F4C  26D9               	addwf	fsr2l,f,c
  3050   001F4E  5172               	movf	(RGB2Hue@cf+1)& (0+255),w,b
  3051   001F50  22DA               	addwfc	fsr2h,f,c
  3052   001F52  CFDE F01A          	movff	postinc2,___fladd@b
  3053   001F56  CFDE F01B          	movff	postinc2,___fladd@b+1
  3054   001F5A  CFDE F01C          	movff	postinc2,___fladd@b+2
  3055   001F5E  CFDE F01D          	movff	postinc2,___fladd@b+3
  3056   001F62  0E00               	movlw	0
  3057   001F64  6E1E               	movwf	___fladd@a^0,c
  3058   001F66  0E00               	movlw	0
  3059   001F68  6E1F               	movwf	(___fladd@a+1)^0,c
  3060   001F6A  0EB4               	movlw	180
  3061   001F6C  6E20               	movwf	(___fladd@a+2)^0,c
  3062   001F6E  0E43               	movlw	67
  3063   001F70  6E21               	movwf	(___fladd@a+3)^0,c
  3064   001F72  EC5A  F012         	call	___fladd	;wreg free
  3065   001F76  0100               	movlb	0	; () banked
  3066   001F78  EE20 F010          	lfsr	2,16
  3067   001F7C  5171               	movf	RGB2Hue@cf& (0+255),w,b
  3068   001F7E  26D9               	addwf	fsr2l,f,c
  3069   001F80  5172               	movf	(RGB2Hue@cf+1)& (0+255),w,b
  3070   001F82  22DA               	addwfc	fsr2h,f,c
  3071   001F84  C01A  FFDE         	movff	?___fladd,postinc2
  3072   001F88  C01B  FFDE         	movff	?___fladd+1,postinc2
  3073   001F8C  C01C  FFDE         	movff	?___fladd+2,postinc2
  3074   001F90  C01D  FFDE         	movff	?___fladd+3,postinc2
  3075   001F94                     l87:
  3076                           
  3077                           ; BSR set to: 0
  3078   001F94  0012               	return		;funcret
  3079   001F96                     __end_of_RGB2Hue:
  3080                           	callstack 0
  3081                           
  3082 ;; *************** function ___xxtofl *****************
  3083 ;; Defined at:
  3084 ;;		line 10 in file "C:\Program Files\Microchip\xc8\v2.40\pic\sources\c99\common\xxtofl.c"
  3085 ;; Parameters:    Size  Location     Type
  3086 ;;  sign            1    wreg     unsigned char 
  3087 ;;  val             4   11[COMRAM] long 
  3088 ;; Auto vars:     Size  Location     Type
  3089 ;;  sign            1   19[COMRAM] unsigned char 
  3090 ;;  arg             4   21[COMRAM] unsigned long 
  3091 ;;  exp             1   20[COMRAM] unsigned char 
  3092 ;; Return value:  Size  Location     Type
  3093 ;;                  4   11[COMRAM] unsigned char 
  3094 ;; Registers used:
  3095 ;;		wreg, status,2, status,0
  3096 ;; Tracked objects:
  3097 ;;		On entry : 0/0
  3098 ;;		On exit  : 0/0
  3099 ;;		Unchanged: 0/0
  3100 ;; Data sizes:     COMRAM   BANK0   BANK1   BANK2   BANK3   BANK4   BANK5   BANK6   BANK7   BANK8   BANK9  BANK10  BANK1
      +1  BANK12  BANK13
  3101 ;;      Params:         4       0       0       0       0       0       0       0       0       0       0       0       
      +0       0       0
  3102 ;;      Locals:         6       0       0       0       0       0       0       0       0       0       0       0       
      +0       0       0
  3103 ;;      Temps:          4       0       0       0       0       0       0       0       0       0       0       0       
      +0       0       0
  3104 ;;      Totals:        14       0       0       0       0       0       0       0       0       0       0       0       
      +0       0       0
  3105 ;;Total ram usage:       14 bytes
  3106 ;; Hardware stack levels used: 1
  3107 ;; This function calls:
  3108 ;;		Nothing
  3109 ;; This function is called by:
  3110 ;;		_colour_read_all
  3111 ;;		_RGB2Hue
  3112 ;; This function uses a non-reentrant model
  3113 ;;
  3114                           
  3115                           	psect	text17
  3116   00357C                     __ptext17:
  3117                           	callstack 0
  3118   00357C                     ___xxtofl:
  3119                           	callstack 29
  3120                           
  3121                           ; BSR set to: 0
  3122                           ;incstack = 0
  3123                           ;___xxtofl@sign stored from wreg
  3124   00357C  6E14               	movwf	___xxtofl@sign^0,c
  3125   00357E  5014               	movf	___xxtofl@sign^0,w,c
  3126   003580  B4D8               	btfsc	status,2,c
  3127   003582  EFC5  F01A         	goto	u3891
  3128   003586  EFC7  F01A         	goto	u3890
  3129   00358A                     u3891:
  3130   00358A  EFE9  F01A         	goto	l896
  3131   00358E                     u3890:
  3132   00358E  BE0F               	btfsc	(___xxtofl@val+3)^0,7,c
  3133   003590  EFCE  F01A         	goto	u3900
  3134   003594  EFCC  F01A         	goto	u3901
  3135   003598                     u3901:
  3136   003598  EFE9  F01A         	goto	l896
  3137   00359C                     u3900:
  3138   00359C  C00C  F010         	movff	___xxtofl@val,??___xxtofl
  3139   0035A0  C00D  F011         	movff	___xxtofl@val+1,??___xxtofl+1
  3140   0035A4  C00E  F012         	movff	___xxtofl@val+2,??___xxtofl+2
  3141   0035A8  C00F  F013         	movff	___xxtofl@val+3,??___xxtofl+3
  3142   0035AC  1E10               	comf	??___xxtofl^0,f,c
  3143   0035AE  1E11               	comf	(??___xxtofl+1)^0,f,c
  3144   0035B0  1E12               	comf	(??___xxtofl+2)^0,f,c
  3145   0035B2  1E13               	comf	(??___xxtofl+3)^0,f,c
  3146   0035B4  2A10               	incf	??___xxtofl^0,f,c
  3147   0035B6  0E00               	movlw	0
  3148   0035B8  2211               	addwfc	(??___xxtofl+1)^0,f,c
  3149   0035BA  2212               	addwfc	(??___xxtofl+2)^0,f,c
  3150   0035BC  2213               	addwfc	(??___xxtofl+3)^0,f,c
  3151   0035BE  C010  F016         	movff	??___xxtofl,___xxtofl@arg
  3152   0035C2  C011  F017         	movff	??___xxtofl+1,___xxtofl@arg+1
  3153   0035C6  C012  F018         	movff	??___xxtofl+2,___xxtofl@arg+2
  3154   0035CA  C013  F019         	movff	??___xxtofl+3,___xxtofl@arg+3
  3155   0035CE  EFF1  F01A         	goto	l3669
  3156   0035D2                     l896:
  3157   0035D2  C00C  F016         	movff	___xxtofl@val,___xxtofl@arg
  3158   0035D6  C00D  F017         	movff	___xxtofl@val+1,___xxtofl@arg+1
  3159   0035DA  C00E  F018         	movff	___xxtofl@val+2,___xxtofl@arg+2
  3160   0035DE  C00F  F019         	movff	___xxtofl@val+3,___xxtofl@arg+3
  3161   0035E2                     l3669:
  3162   0035E2  500C               	movf	___xxtofl@val^0,w,c
  3163   0035E4  100D               	iorwf	(___xxtofl@val+1)^0,w,c
  3164   0035E6  100E               	iorwf	(___xxtofl@val+2)^0,w,c
  3165   0035E8  100F               	iorwf	(___xxtofl@val+3)^0,w,c
  3166   0035EA  A4D8               	btfss	status,2,c
  3167   0035EC  EFFA  F01A         	goto	u3911
  3168   0035F0  EFFC  F01A         	goto	u3910
  3169   0035F4                     u3911:
  3170   0035F4  EF06  F01B         	goto	l3675
  3171   0035F8                     u3910:
  3172   0035F8  0E00               	movlw	0
  3173   0035FA  6E0C               	movwf	?___xxtofl^0,c
  3174   0035FC  0E00               	movlw	0
  3175   0035FE  6E0D               	movwf	(?___xxtofl+1)^0,c
  3176   003600  0E00               	movlw	0
  3177   003602  6E0E               	movwf	(?___xxtofl+2)^0,c
  3178   003604  0E00               	movlw	0
  3179   003606  6E0F               	movwf	(?___xxtofl+3)^0,c
  3180   003608  EF97  F01B         	goto	l899
  3181   00360C                     l3675:
  3182   00360C  0E96               	movlw	150
  3183   00360E  6E15               	movwf	___xxtofl@exp^0,c
  3184   003610  EF10  F01B         	goto	l3679
  3185   003614                     l3677:
  3186   003614  2A15               	incf	___xxtofl@exp^0,f,c
  3187   003616  90D8               	bcf	status,0,c
  3188   003618  3219               	rrcf	(___xxtofl@arg+3)^0,f,c
  3189   00361A  3218               	rrcf	(___xxtofl@arg+2)^0,f,c
  3190   00361C  3217               	rrcf	(___xxtofl@arg+1)^0,f,c
  3191   00361E  3216               	rrcf	___xxtofl@arg^0,f,c
  3192   003620                     l3679:
  3193   003620  0E00               	movlw	0
  3194   003622  1416               	andwf	___xxtofl@arg^0,w,c
  3195   003624  6E10               	movwf	??___xxtofl^0,c
  3196   003626  0E00               	movlw	0
  3197   003628  1417               	andwf	(___xxtofl@arg+1)^0,w,c
  3198   00362A  6E11               	movwf	(??___xxtofl+1)^0,c
  3199   00362C  0E00               	movlw	0
  3200   00362E  1418               	andwf	(___xxtofl@arg+2)^0,w,c
  3201   003630  6E12               	movwf	(??___xxtofl+2)^0,c
  3202   003632  0EFE               	movlw	254
  3203   003634  1419               	andwf	(___xxtofl@arg+3)^0,w,c
  3204   003636  6E13               	movwf	(??___xxtofl+3)^0,c
  3205   003638  5010               	movf	??___xxtofl^0,w,c
  3206   00363A  1011               	iorwf	(??___xxtofl+1)^0,w,c
  3207   00363C  1012               	iorwf	(??___xxtofl+2)^0,w,c
  3208   00363E  1013               	iorwf	(??___xxtofl+3)^0,w,c
  3209   003640  A4D8               	btfss	status,2,c
  3210   003642  EF25  F01B         	goto	u3921
  3211   003646  EF27  F01B         	goto	u3920
  3212   00364A                     u3921:
  3213   00364A  EF0A  F01B         	goto	l3677
  3214   00364E                     u3920:
  3215   00364E  EF35  F01B         	goto	l903
  3216   003652                     l3681:
  3217   003652  2A15               	incf	___xxtofl@exp^0,f,c
  3218   003654  0E01               	movlw	1
  3219   003656  2616               	addwf	___xxtofl@arg^0,f,c
  3220   003658  0E00               	movlw	0
  3221   00365A  2217               	addwfc	(___xxtofl@arg+1)^0,f,c
  3222   00365C  2218               	addwfc	(___xxtofl@arg+2)^0,f,c
  3223   00365E  2219               	addwfc	(___xxtofl@arg+3)^0,f,c
  3224   003660  90D8               	bcf	status,0,c
  3225   003662  3219               	rrcf	(___xxtofl@arg+3)^0,f,c
  3226   003664  3218               	rrcf	(___xxtofl@arg+2)^0,f,c
  3227   003666  3217               	rrcf	(___xxtofl@arg+1)^0,f,c
  3228   003668  3216               	rrcf	___xxtofl@arg^0,f,c
  3229   00366A                     l903:
  3230   00366A  0E00               	movlw	0
  3231   00366C  1416               	andwf	___xxtofl@arg^0,w,c
  3232   00366E  6E10               	movwf	??___xxtofl^0,c
  3233   003670  0E00               	movlw	0
  3234   003672  1417               	andwf	(___xxtofl@arg+1)^0,w,c
  3235   003674  6E11               	movwf	(??___xxtofl+1)^0,c
  3236   003676  0E00               	movlw	0
  3237   003678  1418               	andwf	(___xxtofl@arg+2)^0,w,c
  3238   00367A  6E12               	movwf	(??___xxtofl+2)^0,c
  3239   00367C  0EFF               	movlw	255
  3240   00367E  1419               	andwf	(___xxtofl@arg+3)^0,w,c
  3241   003680  6E13               	movwf	(??___xxtofl+3)^0,c
  3242   003682  5010               	movf	??___xxtofl^0,w,c
  3243   003684  1011               	iorwf	(??___xxtofl+1)^0,w,c
  3244   003686  1012               	iorwf	(??___xxtofl+2)^0,w,c
  3245   003688  1013               	iorwf	(??___xxtofl+3)^0,w,c
  3246   00368A  A4D8               	btfss	status,2,c
  3247   00368C  EF4A  F01B         	goto	u3931
  3248   003690  EF4C  F01B         	goto	u3930
  3249   003694                     u3931:
  3250   003694  EF29  F01B         	goto	l3681
  3251   003698                     u3930:
  3252   003698  EF54  F01B         	goto	l3689
  3253   00369C                     l3687:
  3254   00369C  0615               	decf	___xxtofl@exp^0,f,c
  3255   00369E  90D8               	bcf	status,0,c
  3256   0036A0  3616               	rlcf	___xxtofl@arg^0,f,c
  3257   0036A2  3617               	rlcf	(___xxtofl@arg+1)^0,f,c
  3258   0036A4  3618               	rlcf	(___xxtofl@arg+2)^0,f,c
  3259   0036A6  3619               	rlcf	(___xxtofl@arg+3)^0,f,c
  3260   0036A8                     l3689:
  3261   0036A8  BE18               	btfsc	(___xxtofl@arg+2)^0,7,c
  3262   0036AA  EF59  F01B         	goto	u3941
  3263   0036AE  EF5B  F01B         	goto	u3940
  3264   0036B2                     u3941:
  3265   0036B2  EF63  F01B         	goto	l910
  3266   0036B6                     u3940:
  3267   0036B6  0E02               	movlw	2
  3268   0036B8  6015               	cpfslt	___xxtofl@exp^0,c
  3269   0036BA  EF61  F01B         	goto	u3951
  3270   0036BE  EF63  F01B         	goto	u3950
  3271   0036C2                     u3951:
  3272   0036C2  EF4E  F01B         	goto	l3687
  3273   0036C6                     u3950:
  3274   0036C6                     l910:
  3275   0036C6  B015               	btfsc	___xxtofl@exp^0,0,c
  3276   0036C8  EF68  F01B         	goto	u3961
  3277   0036CC  EF6A  F01B         	goto	u3960
  3278   0036D0                     u3961:
  3279   0036D0  EF6B  F01B         	goto	l3695
  3280   0036D4                     u3960:
  3281   0036D4  9E18               	bcf	(___xxtofl@arg+2)^0,7,c
  3282   0036D6                     l3695:
  3283   0036D6  90D8               	bcf	status,0,c
  3284   0036D8  3215               	rrcf	___xxtofl@exp^0,f,c
  3285   0036DA  C015  F010         	movff	___xxtofl@exp,??___xxtofl
  3286   0036DE  6A11               	clrf	(??___xxtofl+1)^0,c
  3287   0036E0  6A12               	clrf	(??___xxtofl+2)^0,c
  3288   0036E2  6A13               	clrf	(??___xxtofl+3)^0,c
  3289   0036E4  C010  F013         	movff	??___xxtofl,??___xxtofl+3
  3290   0036E8  6A12               	clrf	(??___xxtofl+2)^0,c
  3291   0036EA  6A11               	clrf	(??___xxtofl+1)^0,c
  3292   0036EC  6A10               	clrf	??___xxtofl^0,c
  3293   0036EE  5010               	movf	??___xxtofl^0,w,c
  3294   0036F0  1216               	iorwf	___xxtofl@arg^0,f,c
  3295   0036F2  5011               	movf	(??___xxtofl+1)^0,w,c
  3296   0036F4  1217               	iorwf	(___xxtofl@arg+1)^0,f,c
  3297   0036F6  5012               	movf	(??___xxtofl+2)^0,w,c
  3298   0036F8  1218               	iorwf	(___xxtofl@arg+2)^0,f,c
  3299   0036FA  5013               	movf	(??___xxtofl+3)^0,w,c
  3300   0036FC  1219               	iorwf	(___xxtofl@arg+3)^0,f,c
  3301   0036FE  5014               	movf	___xxtofl@sign^0,w,c
  3302   003700  B4D8               	btfsc	status,2,c
  3303   003702  EF85  F01B         	goto	u3971
  3304   003706  EF87  F01B         	goto	u3970
  3305   00370A                     u3971:
  3306   00370A  EF8F  F01B         	goto	l3705
  3307   00370E                     u3970:
  3308   00370E  BE0F               	btfsc	(___xxtofl@val+3)^0,7,c
  3309   003710  EF8E  F01B         	goto	u3980
  3310   003714  EF8C  F01B         	goto	u3981
  3311   003718                     u3981:
  3312   003718  EF8F  F01B         	goto	l3705
  3313   00371C                     u3980:
  3314   00371C  8E19               	bsf	(___xxtofl@arg+3)^0,7,c
  3315   00371E                     l3705:
  3316   00371E  C016  F00C         	movff	___xxtofl@arg,?___xxtofl
  3317   003722  C017  F00D         	movff	___xxtofl@arg+1,?___xxtofl+1
  3318   003726  C018  F00E         	movff	___xxtofl@arg+2,?___xxtofl+2
  3319   00372A  C019  F00F         	movff	___xxtofl@arg+3,?___xxtofl+3
  3320   00372E                     l899:
  3321   00372E  0012               	return		;funcret
  3322   003730                     __end_of___xxtofl:
  3323                           	callstack 0
  3324                           
  3325 ;; *************** function _Color2String *****************
  3326 ;; Defined at:
  3327 ;;		line 39 in file "serial.c"
  3328 ;; Parameters:    Size  Location     Type
  3329 ;;  buf             2  134[BANK0 ] PTR unsigned char 
  3330 ;;		 -> main@data(80), 
  3331 ;;  cf              2  136[BANK0 ] PTR struct RGBC_rel
  3332 ;;		 -> colorf(22), 
  3333 ;; Auto vars:     Size  Location     Type
  3334 ;;  colourname      2    0        PTR unsigned char 
  3335 ;;		 -> STR_9(10), STR_8(11), STR_7(7), STR_6(7), 
  3336 ;;		 -> STR_5(5), STR_4(9), STR_3(6), STR_2(4), 
  3337 ;;		 -> STR_1(1), 
  3338 ;; Return value:  Size  Location     Type
  3339 ;;                  1    wreg      void 
  3340 ;; Registers used:
  3341 ;;		wreg, fsr1l, fsr1h, fsr2l, fsr2h, status,2, status,0, tblptrl, tblptrh, tblptru, prodl, prodh, cstack
  3342 ;; Tracked objects:
  3343 ;;		On entry : 0/0
  3344 ;;		On exit  : 0/0
  3345 ;;		Unchanged: 0/0
  3346 ;; Data sizes:     COMRAM   BANK0   BANK1   BANK2   BANK3   BANK4   BANK5   BANK6   BANK7   BANK8   BANK9  BANK10  BANK1
      +1  BANK12  BANK13
  3347 ;;      Params:         0       4       0       0       0       0       0       0       0       0       0       0       
      +0       0       0
  3348 ;;      Locals:         0       0       0       0       0       0       0       0       0       0       0       0       
      +0       0       0
  3349 ;;      Temps:          0       0       0       0       0       0       0       0       0       0       0       0       
      +0       0       0
  3350 ;;      Totals:         0       4       0       0       0       0       0       0       0       0       0       0       
      +0       0       0
  3351 ;;Total ram usage:        4 bytes
  3352 ;; Hardware stack levels used: 1
  3353 ;; Hardware stack levels required when called: 8
  3354 ;; This function calls:
  3355 ;;		_Hue2Colour
  3356 ;;		_sendStringSerial4
  3357 ;;		_sprintf
  3358 ;; This function is called by:
  3359 ;;		_main
  3360 ;; This function uses a non-reentrant model
  3361 ;;
  3362                           
  3363                           	psect	text18
  3364   003D0A                     __ptext18:
  3365                           	callstack 0
  3366   003D0A                     _Color2String:
  3367                           	callstack 22
  3368   003D0A  C0E8  F071         	movff	Color2String@cf,Hue2Colour@cf
  3369   003D0E  C0E9  F072         	movff	Color2String@cf+1,Hue2Colour@cf+1
  3370   003D12  ECCB  F00F         	call	_Hue2Colour	;wreg free
  3371   003D16                     
  3372                           ;serial.c: 43:     sprintf(buf," Red %f Green,%f Blue,%f clear %f Hue %f \r",cf->Rf,
  3373   003D16  C0E6  F0C1         	movff	Color2String@buf,sprintf@s
  3374   003D1A  C0E7  F0C2         	movff	Color2String@buf+1,sprintf@s+1
  3375   003D1E  0E01               	movlw	low STR_10
  3376   003D20  0100               	movlb	0	; () banked
  3377   003D22  6FC3               	movwf	sprintf@fmt& (0+255),b
  3378   003D24  0E0E               	movlw	high STR_10
  3379   003D26  6FC4               	movwf	(sprintf@fmt+1)& (0+255),b
  3380   003D28  C0E8  FFD9         	movff	Color2String@cf,fsr2l
  3381   003D2C  C0E9  FFDA         	movff	Color2String@cf+1,fsr2h
  3382   003D30  CFDE F0C5          	movff	postinc2,?_sprintf+4
  3383   003D34  CFDE F0C6          	movff	postinc2,?_sprintf+5
  3384   003D38  CFDE F0C7          	movff	postinc2,?_sprintf+6
  3385   003D3C  CFDE F0C8          	movff	postinc2,?_sprintf+7
  3386   003D40  EE20 F004          	lfsr	2,4
  3387   003D44  51E8               	movf	Color2String@cf& (0+255),w,b
  3388   003D46  26D9               	addwf	fsr2l,f,c
  3389   003D48  51E9               	movf	(Color2String@cf+1)& (0+255),w,b
  3390   003D4A  22DA               	addwfc	fsr2h,f,c
  3391   003D4C  CFDE F0C9          	movff	postinc2,?_sprintf+8
  3392   003D50  CFDE F0CA          	movff	postinc2,?_sprintf+9
  3393   003D54  CFDE F0CB          	movff	postinc2,?_sprintf+10
  3394   003D58  CFDE F0CC          	movff	postinc2,?_sprintf+11
  3395   003D5C  EE20 F008          	lfsr	2,8
  3396   003D60  51E8               	movf	Color2String@cf& (0+255),w,b
  3397   003D62  26D9               	addwf	fsr2l,f,c
  3398   003D64  51E9               	movf	(Color2String@cf+1)& (0+255),w,b
  3399   003D66  22DA               	addwfc	fsr2h,f,c
  3400   003D68  CFDE F0CD          	movff	postinc2,?_sprintf+12
  3401   003D6C  CFDE F0CE          	movff	postinc2,?_sprintf+13
  3402   003D70  CFDE F0CF          	movff	postinc2,?_sprintf+14
  3403   003D74  CFDE F0D0          	movff	postinc2,?_sprintf+15
  3404   003D78  EE20 F00C          	lfsr	2,12
  3405   003D7C  51E8               	movf	Color2String@cf& (0+255),w,b
  3406   003D7E  26D9               	addwf	fsr2l,f,c
  3407   003D80  51E9               	movf	(Color2String@cf+1)& (0+255),w,b
  3408   003D82  22DA               	addwfc	fsr2h,f,c
  3409   003D84  CFDE F0D1          	movff	postinc2,?_sprintf+16
  3410   003D88  CFDE F0D2          	movff	postinc2,?_sprintf+17
  3411   003D8C  CFDE F0D3          	movff	postinc2,?_sprintf+18
  3412   003D90  CFDE F0D4          	movff	postinc2,?_sprintf+19
  3413   003D94  EE20 F010          	lfsr	2,16
  3414   003D98  51E8               	movf	Color2String@cf& (0+255),w,b
  3415   003D9A  26D9               	addwf	fsr2l,f,c
  3416   003D9C  51E9               	movf	(Color2String@cf+1)& (0+255),w,b
  3417   003D9E  22DA               	addwfc	fsr2h,f,c
  3418   003DA0  CFDE F0D5          	movff	postinc2,?_sprintf+20
  3419   003DA4  CFDE F0D6          	movff	postinc2,?_sprintf+21
  3420   003DA8  CFDE F0D7          	movff	postinc2,?_sprintf+22
  3421   003DAC  CFDE F0D8          	movff	postinc2,?_sprintf+23
  3422   003DB0  ECD1  F01F         	call	_sprintf	;wreg free
  3423   003DB4                     
  3424                           ;serial.c: 46:     sendStringSerial4(buf);
  3425   003DB4  C0E6  F002         	movff	Color2String@buf,sendStringSerial4@string
  3426   003DB8  C0E7  F003         	movff	Color2String@buf+1,sendStringSerial4@string+1
  3427   003DBC  ECA5  F021         	call	_sendStringSerial4	;wreg free
  3428   003DC0  0012               	return		;funcret
  3429   003DC2                     __end_of_Color2String:
  3430                           	callstack 0
  3431                           
  3432 ;; *************** function _sprintf *****************
  3433 ;; Defined at:
  3434 ;;		line 9 in file "C:\Program Files\Microchip\xc8\v2.40\pic\sources\c99\common\nf_sprintf.c"
  3435 ;; Parameters:    Size  Location     Type
  3436 ;;  s               2   97[BANK0 ] PTR unsigned char 
  3437 ;;		 -> main@data(80), 
  3438 ;;  fmt             2   99[BANK0 ] PTR const unsigned char 
  3439 ;;		 -> STR_10(43), 
  3440 ;; Auto vars:     Size  Location     Type
  3441 ;;  f              11  123[BANK0 ] struct _IO_FILE
  3442 ;;  ap              2  121[BANK0 ] PTR void [1]
  3443 ;;		 -> ?_sprintf(2), 
  3444 ;;  ret             2    0        int 
  3445 ;; Return value:  Size  Location     Type
  3446 ;;                  2   97[BANK0 ] int 
  3447 ;; Registers used:
  3448 ;;		wreg, fsr1l, fsr1h, fsr2l, fsr2h, status,2, status,0, tblptrl, tblptrh, tblptru, prodl, prodh, cstack
  3449 ;; Tracked objects:
  3450 ;;		On entry : 0/0
  3451 ;;		On exit  : 0/0
  3452 ;;		Unchanged: 0/0
  3453 ;; Data sizes:     COMRAM   BANK0   BANK1   BANK2   BANK3   BANK4   BANK5   BANK6   BANK7   BANK8   BANK9  BANK10  BANK1
      +1  BANK12  BANK13
  3454 ;;      Params:         0      24       0       0       0       0       0       0       0       0       0       0       
      +0       0       0
  3455 ;;      Locals:         0      13       0       0       0       0       0       0       0       0       0       0       
      +0       0       0
  3456 ;;      Temps:          0       0       0       0       0       0       0       0       0       0       0       0       
      +0       0       0
  3457 ;;      Totals:         0      37       0       0       0       0       0       0       0       0       0       0       
      +0       0       0
  3458 ;;Total ram usage:       37 bytes
  3459 ;; Hardware stack levels used: 1
  3460 ;; Hardware stack levels required when called: 7
  3461 ;; This function calls:
  3462 ;;		_vfprintf
  3463 ;; This function is called by:
  3464 ;;		_Color2String
  3465 ;; This function uses a non-reentrant model
  3466 ;;
  3467                           
  3468                           	psect	text19
  3469   003FA2                     __ptext19:
  3470                           	callstack 0
  3471   003FA2                     _sprintf:
  3472                           	callstack 22
  3473   003FA2  0EC5               	movlw	low (?_sprintf+4)
  3474   003FA4  0100               	movlb	0	; () banked
  3475   003FA6  6FD9               	movwf	sprintf@ap& (0+255),b
  3476   003FA8  0E00               	movlw	high (?_sprintf+4)
  3477   003FAA  6FDA               	movwf	(sprintf@ap+1)& (0+255),b
  3478   003FAC  C0C1  F0DB         	movff	sprintf@s,sprintf@f
  3479   003FB0  C0C2  F0DC         	movff	sprintf@s+1,sprintf@f+1
  3480   003FB4                     
  3481                           ; BSR set to: 0
  3482   003FB4  0E00               	movlw	0
  3483   003FB6  6FDF               	movwf	(sprintf@f+4)& (0+255),b
  3484   003FB8  0E00               	movlw	0
  3485   003FBA  6FDE               	movwf	(sprintf@f+3)& (0+255),b
  3486   003FBC                     
  3487                           ; BSR set to: 0
  3488   003FBC  0E00               	movlw	0
  3489   003FBE  6FE5               	movwf	(sprintf@f+10)& (0+255),b
  3490   003FC0  0E00               	movlw	0
  3491   003FC2  6FE4               	movwf	(sprintf@f+9)& (0+255),b
  3492   003FC4                     
  3493                           ; BSR set to: 0
  3494   003FC4  0EDB               	movlw	low sprintf@f
  3495   003FC6  6FB9               	movwf	vfprintf@fp& (0+255),b
  3496   003FC8  0E00               	movlw	high sprintf@f
  3497   003FCA  6FBA               	movwf	(vfprintf@fp+1)& (0+255),b
  3498   003FCC  C0C3  F0BB         	movff	sprintf@fmt,vfprintf@fmt
  3499   003FD0  C0C4  F0BC         	movff	sprintf@fmt+1,vfprintf@fmt+1
  3500   003FD4  0ED9               	movlw	low sprintf@ap
  3501   003FD6  6FBD               	movwf	vfprintf@ap& (0+255),b
  3502   003FD8  0E00               	movlw	high sprintf@ap
  3503   003FDA  6FBE               	movwf	(vfprintf@ap+1)& (0+255),b
  3504   003FDC  ECA6  F01F         	call	_vfprintf	;wreg free
  3505   003FE0  0100               	movlb	0	; () banked
  3506   003FE2  51DE               	movf	(sprintf@f+3)& (0+255),w,b
  3507   003FE4  25C1               	addwf	sprintf@s& (0+255),w,b
  3508   003FE6  6ED9               	movwf	fsr2l,c
  3509   003FE8  51DF               	movf	(sprintf@f+4)& (0+255),w,b
  3510   003FEA  21C2               	addwfc	(sprintf@s+1)& (0+255),w,b
  3511   003FEC  6EDA               	movwf	fsr2h,c
  3512   003FEE  0E00               	movlw	0
  3513   003FF0  6EDF               	movwf	indf2,c
  3514   003FF2                     
  3515                           ; BSR set to: 0
  3516   003FF2  0012               	return		;funcret
  3517   003FF4                     __end_of_sprintf:
  3518                           	callstack 0
  3519                           
  3520 ;; *************** function _vfprintf *****************
  3521 ;; Defined at:
  3522 ;;		line 1520 in file "C:\Program Files\Microchip\xc8\v2.40\pic\sources\c99\common\doprnt.c"
  3523 ;; Parameters:    Size  Location     Type
  3524 ;;  fp              2   89[BANK0 ] PTR struct _IO_FILE
  3525 ;;		 -> sprintf@f(11), 
  3526 ;;  fmt             2   91[BANK0 ] PTR const unsigned char 
  3527 ;;		 -> STR_10(43), 
  3528 ;;  ap              2   93[BANK0 ] PTR PTR void 
  3529 ;;		 -> sprintf@ap(2), 
  3530 ;; Auto vars:     Size  Location     Type
  3531 ;;  cfmt            2   95[BANK0 ] PTR unsigned char 
  3532 ;;		 -> STR_10(43), 
  3533 ;; Return value:  Size  Location     Type
  3534 ;;                  2   89[BANK0 ] int 
  3535 ;; Registers used:
  3536 ;;		wreg, fsr1l, fsr1h, fsr2l, fsr2h, status,2, status,0, tblptrl, tblptrh, tblptru, prodl, prodh, cstack
  3537 ;; Tracked objects:
  3538 ;;		On entry : 0/0
  3539 ;;		On exit  : 0/0
  3540 ;;		Unchanged: 0/0
  3541 ;; Data sizes:     COMRAM   BANK0   BANK1   BANK2   BANK3   BANK4   BANK5   BANK6   BANK7   BANK8   BANK9  BANK10  BANK1
      +1  BANK12  BANK13
  3542 ;;      Params:         0       6       0       0       0       0       0       0       0       0       0       0       
      +0       0       0
  3543 ;;      Locals:         0       2       0       0       0       0       0       0       0       0       0       0       
      +0       0       0
  3544 ;;      Temps:          0       0       0       0       0       0       0       0       0       0       0       0       
      +0       0       0
  3545 ;;      Totals:         0       8       0       0       0       0       0       0       0       0       0       0       
      +0       0       0
  3546 ;;Total ram usage:        8 bytes
  3547 ;; Hardware stack levels used: 1
  3548 ;; Hardware stack levels required when called: 6
  3549 ;; This function calls:
  3550 ;;		_vfpfcnvrt
  3551 ;; This function is called by:
  3552 ;;		_sprintf
  3553 ;; This function uses a non-reentrant model
  3554 ;;
  3555                           
  3556                           	psect	text20
  3557   003F4C                     __ptext20:
  3558                           	callstack 0
  3559   003F4C                     _vfprintf:
  3560                           	callstack 22
  3561   003F4C                     
  3562                           ;C:\Program Files\Microchip\xc8\v2.40\pic\sources\c99\common\doprnt.c: 1520: int vfprint
      +                          f(FILE *fp, const char *fmt, va_list ap);C:\Program Files\Microchip\xc8\v2.40\pic\source
      +                          s\c99\common\doprnt.c: 1521: {;C:\Program Files\Microchip\xc8\v2.40\pic\sources\c99\comm
      +                          on\doprnt.c: 1523:     char *cfmt;;C:\Program Files\Microchip\xc8\v2.40\pic\sources\c99\
      +                          common\doprnt.c: 1525:     cfmt = (char *)fmt;
  3563   003F4C  C0BB  F0BF         	movff	vfprintf@fmt,vfprintf@cfmt
  3564   003F50  C0BC  F0C0         	movff	vfprintf@fmt+1,vfprintf@cfmt+1
  3565                           
  3566                           ;C:\Program Files\Microchip\xc8\v2.40\pic\sources\c99\common\doprnt.c: 1529:     while (
      +                          *cfmt) {
  3567   003F54  EFBB  F01F         	goto	l3527
  3568   003F58                     l3525:
  3569                           
  3570                           ;C:\Program Files\Microchip\xc8\v2.40\pic\sources\c99\common\doprnt.c: 1533:    vfpfcnvr
      +                          t(fp, &cfmt, ap);
  3571   003F58  C0B9  F0A6         	movff	vfprintf@fp,vfpfcnvrt@fp
  3572   003F5C  C0BA  F0A7         	movff	vfprintf@fp+1,vfpfcnvrt@fp+1
  3573   003F60  0EBF               	movlw	low vfprintf@cfmt
  3574   003F62  0100               	movlb	0	; () banked
  3575   003F64  6FA8               	movwf	vfpfcnvrt@fmt& (0+255),b
  3576   003F66  0E00               	movlw	high vfprintf@cfmt
  3577   003F68  6FA9               	movwf	(vfpfcnvrt@fmt+1)& (0+255),b
  3578   003F6A  C0BD  F0AA         	movff	vfprintf@ap,vfpfcnvrt@ap
  3579   003F6E  C0BE  F0AB         	movff	vfprintf@ap+1,vfpfcnvrt@ap+1
  3580   003F72  EC9D  F018         	call	_vfpfcnvrt	;wreg free
  3581   003F76                     l3527:
  3582                           
  3583                           ;C:\Program Files\Microchip\xc8\v2.40\pic\sources\c99\common\doprnt.c: 1529:     while (
      +                          *cfmt) {
  3584   003F76  C0BF  FFF6         	movff	vfprintf@cfmt,tblptrl
  3585   003F7A  C0C0  FFF7         	movff	vfprintf@cfmt+1,tblptrh
  3586   003F7E                     	if	0	;tblptru may be non-zero
  3587   003F7E                     	endif
  3588   003F7E                     	if	1	;Program memory is > 0xFFFF, there are 3 active tblptr bytes
  3589   003F7E  0E00               	movlw	low (__mediumconst shr (0+16))
  3590   003F80  6EF8               	movwf	tblptru,c
  3591   003F82                     	endif
  3592   003F82  0008               	tblrd		*
  3593   003F84  50F5               	movf	tablat,w,c
  3594   003F86  0900               	iorlw	0
  3595   003F88  A4D8               	btfss	status,2,c
  3596   003F8A  EFC9  F01F         	goto	u3711
  3597   003F8E  EFCB  F01F         	goto	u3710
  3598   003F92                     u3711:
  3599   003F92  EFAC  F01F         	goto	l3525
  3600   003F96                     u3710:
  3601   003F96                     
  3602                           ;C:\Program Files\Microchip\xc8\v2.40\pic\sources\c99\common\doprnt.c: 1538:  return 0;
  3603   003F96  0E00               	movlw	0
  3604   003F98  0100               	movlb	0	; () banked
  3605   003F9A  6FBA               	movwf	(?_vfprintf+1)& (0+255),b
  3606   003F9C  0E00               	movlw	0
  3607   003F9E  6FB9               	movwf	?_vfprintf& (0+255),b
  3608   003FA0                     
  3609                           ; BSR set to: 0
  3610   003FA0  0012               	return		;funcret
  3611   003FA2                     __end_of_vfprintf:
  3612                           	callstack 0
  3613                           
  3614 ;; *************** function _vfpfcnvrt *****************
  3615 ;; Defined at:
  3616 ;;		line 1007 in file "C:\Program Files\Microchip\xc8\v2.40\pic\sources\c99\common\doprnt.c"
  3617 ;; Parameters:    Size  Location     Type
  3618 ;;  fp              2   70[BANK0 ] PTR struct _IO_FILE
  3619 ;;		 -> sprintf@f(11), 
  3620 ;;  fmt             2   72[BANK0 ] PTR PTR unsigned char 
  3621 ;;		 -> vfprintf@cfmt(2), 
  3622 ;;  ap              2   74[BANK0 ] PTR PTR void 
  3623 ;;		 -> sprintf@ap(2), 
  3624 ;; Auto vars:     Size  Location     Type
  3625 ;;  convarg         8   78[BANK0 ] struct .
  3626 ;;  cp              2   87[BANK0 ] PTR unsigned char 
  3627 ;;		 -> STR_10(43), 
  3628 ;;  i               2    0        int 
  3629 ;;  done            2    0        int 
  3630 ;;  c               1   86[BANK0 ] unsigned char 
  3631 ;; Return value:  Size  Location     Type
  3632 ;;                  1    wreg      void 
  3633 ;; Registers used:
  3634 ;;		wreg, fsr1l, fsr1h, fsr2l, fsr2h, status,2, status,0, tblptrl, tblptrh, tblptru, prodl, prodh, cstack
  3635 ;; Tracked objects:
  3636 ;;		On entry : 0/0
  3637 ;;		On exit  : 0/0
  3638 ;;		Unchanged: 0/0
  3639 ;; Data sizes:     COMRAM   BANK0   BANK1   BANK2   BANK3   BANK4   BANK5   BANK6   BANK7   BANK8   BANK9  BANK10  BANK1
      +1  BANK12  BANK13
  3640 ;;      Params:         0       6       0       0       0       0       0       0       0       0       0       0       
      +0       0       0
  3641 ;;      Locals:         0      11       0       0       0       0       0       0       0       0       0       0       
      +0       0       0
  3642 ;;      Temps:          0       2       0       0       0       0       0       0       0       0       0       0       
      +0       0       0
  3643 ;;      Totals:         0      19       0       0       0       0       0       0       0       0       0       0       
      +0       0       0
  3644 ;;Total ram usage:       19 bytes
  3645 ;; Hardware stack levels used: 1
  3646 ;; Hardware stack levels required when called: 5
  3647 ;; This function calls:
  3648 ;;		_efgtoa
  3649 ;;		_fputc
  3650 ;; This function is called by:
  3651 ;;		_vfprintf
  3652 ;; This function uses a non-reentrant model
  3653 ;;
  3654                           
  3655                           	psect	text21
  3656   00313A                     __ptext21:
  3657                           	callstack 0
  3658   00313A                     _vfpfcnvrt:
  3659                           	callstack 22
  3660   00313A                     
  3661                           ;C:\Program Files\Microchip\xc8\v2.40\pic\sources\c99\common\doprnt.c: 1007: vfpfcnvrt(F
      +                          ILE *fp, char *fmt[], va_list ap);C:\Program Files\Microchip\xc8\v2.40\pic\sources\c99\c
      +                          ommon\doprnt.c: 1008: {;C:\Program Files\Microchip\xc8\v2.40\pic\sources\c99\common\dopr
      +                          nt.c: 1009:     char c, *cp;;C:\Program Files\Microchip\xc8\v2.40\pic\sources\c99\common
      +                          \doprnt.c: 1010:     int done, i;;C:\Program Files\Microchip\xc8\v2.40\pic\sources\c99\c
      +                          ommon\doprnt.c: 1016:  } convarg;;C:\Program Files\Microchip\xc8\v2.40\pic\sources\c99\c
      +                          ommon\doprnt.c: 1019:     if ((*fmt)[0] == '%') {
  3662   00313A  C0A8  FFD9         	movff	vfpfcnvrt@fmt,fsr2l
  3663   00313E  C0A9  FFDA         	movff	vfpfcnvrt@fmt+1,fsr2h
  3664   003142  CFDE FFF6          	movff	postinc2,tblptrl
  3665   003146  CFDD FFF7          	movff	postdec2,tblptrh
  3666   00314A                     	if	0	;tblptru may be non-zero
  3667   00314A                     	endif
  3668   00314A                     	if	1	;Program memory is > 0xFFFF, there are 3 active tblptr bytes
  3669   00314A  0E00               	movlw	low (__mediumconst shr (0+16))
  3670   00314C  6EF8               	movwf	tblptru,c
  3671   00314E                     	endif
  3672   00314E  0008               	tblrd		*
  3673   003150  50F5               	movf	tablat,w,c
  3674   003152  0A25               	xorlw	37
  3675   003154  A4D8               	btfss	status,2,c
  3676   003156  EFAF  F018         	goto	u3661
  3677   00315A  EFB1  F018         	goto	u3660
  3678   00315E                     u3661:
  3679   00315E  EF9E  F019         	goto	l3465
  3680   003162                     u3660:
  3681   003162                     
  3682                           ;C:\Program Files\Microchip\xc8\v2.40\pic\sources\c99\common\doprnt.c: 1020:         ++*
      +                          fmt;
  3683   003162  C0A8  FFD9         	movff	vfpfcnvrt@fmt,fsr2l
  3684   003166  C0A9  FFDA         	movff	vfpfcnvrt@fmt+1,fsr2h
  3685   00316A  2ADE               	incf	postinc2,f,c
  3686   00316C  0E00               	movlw	0
  3687   00316E  22DD               	addwfc	postdec2,f,c
  3688   003170                     
  3689                           ;C:\Program Files\Microchip\xc8\v2.40\pic\sources\c99\common\doprnt.c: 1022:         fla
      +                          gs = width = 0;
  3690   003170  0E00               	movlw	0
  3691   003172  0100               	movlb	0	; () banked
  3692   003174  6FF5               	movwf	(_width+1)& (0+255),b
  3693   003176  0E00               	movlw	0
  3694   003178  6FF4               	movwf	_width& (0+255),b
  3695   00317A  C0F4  F0F8         	movff	_width,_flags
  3696   00317E                     
  3697                           ; BSR set to: 0
  3698                           ;C:\Program Files\Microchip\xc8\v2.40\pic\sources\c99\common\doprnt.c: 1023:         pre
      +                          c = -1;
  3699   00317E  69F6               	setf	_prec& (0+255),b
  3700   003180  69F7               	setf	(_prec+1)& (0+255),b
  3701   003182                     
  3702                           ; BSR set to: 0
  3703                           ;C:\Program Files\Microchip\xc8\v2.40\pic\sources\c99\common\doprnt.c: 1392:   cp = *fmt
      +                          ;
  3704   003182  C0A8  FFD9         	movff	vfpfcnvrt@fmt,fsr2l
  3705   003186  C0A9  FFDA         	movff	vfpfcnvrt@fmt+1,fsr2h
  3706   00318A  CFDE F0B7          	movff	postinc2,vfpfcnvrt@cp
  3707   00318E  CFDD F0B8          	movff	postdec2,vfpfcnvrt@cp+1
  3708   003192                     
  3709                           ; BSR set to: 0
  3710                           ;C:\Program Files\Microchip\xc8\v2.40\pic\sources\c99\common\doprnt.c: 1393:   c = *cp;
  3711   003192  C0B7  FFF6         	movff	vfpfcnvrt@cp,tblptrl
  3712   003196  C0B8  FFF7         	movff	vfpfcnvrt@cp+1,tblptrh
  3713   00319A                     	if	0	;tblptru may be non-zero
  3714   00319A                     	endif
  3715   00319A                     	if	1	;Program memory is > 0xFFFF, there are 3 active tblptr bytes
  3716   00319A  0E00               	movlw	low (__mediumconst shr (0+16))
  3717   00319C  6EF8               	movwf	tblptru,c
  3718   00319E                     	endif
  3719   00319E  0008               	tblrd		*
  3720   0031A0  CFF5 F0B6          	movff	tablat,vfpfcnvrt@c
  3721                           
  3722                           ;C:\Program Files\Microchip\xc8\v2.40\pic\sources\c99\common\doprnt.c: 1394:   switch(c)
      +                           {
  3723   0031A4  EFE0  F018         	goto	l3439
  3724   0031A8                     l3431:
  3725                           
  3726                           ; BSR set to: 0
  3727                           ;C:\Program Files\Microchip\xc8\v2.40\pic\sources\c99\common\doprnt.c: 1398:     cp++;
  3728   0031A8  4BB7               	infsnz	vfpfcnvrt@cp& (0+255),f,b
  3729   0031AA  2BB8               	incf	(vfpfcnvrt@cp+1)& (0+255),f,b
  3730                           
  3731                           ;C:\Program Files\Microchip\xc8\v2.40\pic\sources\c99\common\doprnt.c: 1399:     break;
  3732   0031AC  EFF9  F018         	goto	l3441
  3733   0031B0                     l3433:
  3734                           
  3735                           ; BSR set to: 0
  3736                           ;C:\Program Files\Microchip\xc8\v2.40\pic\sources\c99\common\doprnt.c: 1424:     c = 'l'
      +                          ;
  3737   0031B0  0E6C               	movlw	108
  3738   0031B2  6FB6               	movwf	vfpfcnvrt@c& (0+255),b
  3739                           
  3740                           ;C:\Program Files\Microchip\xc8\v2.40\pic\sources\c99\common\doprnt.c: 1425:     break;
  3741   0031B4  EFF9  F018         	goto	l3441
  3742   0031B8                     l3435:
  3743                           
  3744                           ; BSR set to: 0
  3745                           ;C:\Program Files\Microchip\xc8\v2.40\pic\sources\c99\common\doprnt.c: 1427:     c = 0;
  3746   0031B8  0E00               	movlw	0
  3747   0031BA  6FB6               	movwf	vfpfcnvrt@c& (0+255),b
  3748                           
  3749                           ;C:\Program Files\Microchip\xc8\v2.40\pic\sources\c99\common\doprnt.c: 1428:     break;
  3750   0031BC  EFF9  F018         	goto	l3441
  3751   0031C0                     l3439:
  3752                           
  3753                           ; BSR set to: 0
  3754   0031C0  51B6               	movf	vfpfcnvrt@c& (0+255),w,b
  3755   0031C2  6FAC               	movwf	??_vfpfcnvrt& (0+255),b
  3756   0031C4  6BAD               	clrf	(??_vfpfcnvrt+1)& (0+255),b
  3757                           
  3758                           ; Switch on 2 bytes has been partitioned into a top level switch of size 1, and 1 sub-sw
      +                          itches
  3759                           ; Switch size 1, requested type "simple"
  3760                           ; Number of cases is 1, Range of values is 0 to 0
  3761                           ; switch strategies available:
  3762                           ; Name         Instructions Cycles
  3763                           ; simple_byte            4     3 (average)
  3764                           ;	Chosen strategy is simple_byte
  3765   0031C6  51AD               	movf	(??_vfpfcnvrt+1)& (0+255),w,b
  3766   0031C8  0A00               	xorlw	0	; case 0
  3767   0031CA  B4D8               	btfsc	status,2,c
  3768   0031CC  EFEA  F018         	goto	l3937
  3769   0031D0  EFDC  F018         	goto	l3435
  3770   0031D4                     l3937:
  3771                           
  3772                           ; BSR set to: 0
  3773                           ; Switch size 1, requested type "simple"
  3774                           ; Number of cases is 3, Range of values is 76 to 108
  3775                           ; switch strategies available:
  3776                           ; Name         Instructions Cycles
  3777                           ; simple_byte           10     6 (average)
  3778                           ;	Chosen strategy is simple_byte
  3779   0031D4  51AC               	movf	??_vfpfcnvrt& (0+255),w,b
  3780   0031D6  0A4C               	xorlw	76	; case 76
  3781   0031D8  B4D8               	btfsc	status,2,c
  3782   0031DA  EFD4  F018         	goto	l3431
  3783   0031DE  0A2A               	xorlw	42	; case 102
  3784   0031E0  B4D8               	btfsc	status,2,c
  3785   0031E2  EFD8  F018         	goto	l3433
  3786   0031E6  0A0A               	xorlw	10	; case 108
  3787   0031E8  B4D8               	btfsc	status,2,c
  3788   0031EA  EFD4  F018         	goto	l3431
  3789   0031EE  EFDC  F018         	goto	l3435
  3790   0031F2                     l3441:
  3791                           
  3792                           ; BSR set to: 0
  3793   0031F2  C0B7  FFF6         	movff	vfpfcnvrt@cp,tblptrl
  3794   0031F6  C0B8  FFF7         	movff	vfpfcnvrt@cp+1,tblptrh
  3795   0031FA                     	if	0	;tblptru may be non-zero
  3796   0031FA                     	endif
  3797   0031FA                     	if	1	;Program memory is > 0xFFFF, there are 3 active tblptr bytes
  3798   0031FA  0E00               	movlw	low (__mediumconst shr (0+16))
  3799   0031FC  6EF8               	movwf	tblptru,c
  3800   0031FE                     	endif
  3801   0031FE  0008               	tblrd		*
  3802   003200  50F5               	movf	tablat,w,c
  3803   003202  0A66               	xorlw	102
  3804   003204  A4D8               	btfss	status,2,c
  3805   003206  EF07  F019         	goto	u3671
  3806   00320A  EF09  F019         	goto	u3670
  3807   00320E                     u3671:
  3808   00320E  EF95  F019         	goto	l3461
  3809   003212                     u3670:
  3810   003212  EF3F  F019         	goto	l3449
  3811   003216                     l3443:
  3812                           
  3813                           ; BSR set to: 0
  3814                           ;C:\Program Files\Microchip\xc8\v2.40\pic\sources\c99\common\doprnt.c: 1459:      convar
      +                          g.f = (long double)(*(double *)__va_arg(*(double **)ap, (double)0));
  3815   003216  C0AA  FFD9         	movff	vfpfcnvrt@ap,fsr2l
  3816   00321A  C0AB  FFDA         	movff	vfpfcnvrt@ap+1,fsr2h
  3817   00321E  CFDF F0AC          	movff	indf2,??_vfpfcnvrt
  3818   003222  0E04               	movlw	4
  3819   003224  26DE               	addwf	postinc2,f,c
  3820   003226  CFDF F0AD          	movff	indf2,??_vfpfcnvrt+1
  3821   00322A  0E00               	movlw	0
  3822   00322C  22DD               	addwfc	postdec2,f,c
  3823   00322E  C0AC  FFD9         	movff	??_vfpfcnvrt,fsr2l
  3824   003232  C0AD  FFDA         	movff	??_vfpfcnvrt+1,fsr2h
  3825   003236  CFDE F0AE          	movff	postinc2,vfpfcnvrt@convarg
  3826   00323A  CFDE F0AF          	movff	postinc2,vfpfcnvrt@convarg+1
  3827   00323E  CFDE F0B0          	movff	postinc2,vfpfcnvrt@convarg+2
  3828   003242  CFDE F0B1          	movff	postinc2,vfpfcnvrt@convarg+3
  3829                           
  3830                           ;C:\Program Files\Microchip\xc8\v2.40\pic\sources\c99\common\doprnt.c: 1460:      break;
  3831   003246  EF54  F019         	goto	l3451
  3832   00324A                     l3445:
  3833                           
  3834                           ; BSR set to: 0
  3835                           ;C:\Program Files\Microchip\xc8\v2.40\pic\sources\c99\common\doprnt.c: 1462:      convar
      +                          g.f = (long double)(*(long double *)__va_arg(*(long double **)ap, (long double)0));
  3836   00324A  C0AA  FFD9         	movff	vfpfcnvrt@ap,fsr2l
  3837   00324E  C0AB  FFDA         	movff	vfpfcnvrt@ap+1,fsr2h
  3838   003252  CFDF F0AC          	movff	indf2,??_vfpfcnvrt
  3839   003256  0E04               	movlw	4
  3840   003258  26DE               	addwf	postinc2,f,c
  3841   00325A  CFDF F0AD          	movff	indf2,??_vfpfcnvrt+1
  3842   00325E  0E00               	movlw	0
  3843   003260  22DD               	addwfc	postdec2,f,c
  3844   003262  C0AC  FFD9         	movff	??_vfpfcnvrt,fsr2l
  3845   003266  C0AD  FFDA         	movff	??_vfpfcnvrt+1,fsr2h
  3846   00326A  CFDE F0AE          	movff	postinc2,vfpfcnvrt@convarg
  3847   00326E  CFDE F0AF          	movff	postinc2,vfpfcnvrt@convarg+1
  3848   003272  CFDE F0B0          	movff	postinc2,vfpfcnvrt@convarg+2
  3849   003276  CFDE F0B1          	movff	postinc2,vfpfcnvrt@convarg+3
  3850                           
  3851                           ;C:\Program Files\Microchip\xc8\v2.40\pic\sources\c99\common\doprnt.c: 1463:      break;
  3852   00327A  EF54  F019         	goto	l3451
  3853   00327E                     l3449:
  3854                           
  3855                           ; BSR set to: 0
  3856   00327E  51B6               	movf	vfpfcnvrt@c& (0+255),w,b
  3857   003280  6FAC               	movwf	??_vfpfcnvrt& (0+255),b
  3858   003282  6BAD               	clrf	(??_vfpfcnvrt+1)& (0+255),b
  3859                           
  3860                           ; Switch on 2 bytes has been partitioned into a top level switch of size 1, and 1 sub-sw
      +                          itches
  3861                           ; Switch size 1, requested type "simple"
  3862                           ; Number of cases is 1, Range of values is 0 to 0
  3863                           ; switch strategies available:
  3864                           ; Name         Instructions Cycles
  3865                           ; simple_byte            4     3 (average)
  3866                           ;	Chosen strategy is simple_byte
  3867   003284  51AD               	movf	(??_vfpfcnvrt+1)& (0+255),w,b
  3868   003286  0A00               	xorlw	0	; case 0
  3869   003288  B4D8               	btfsc	status,2,c
  3870   00328A  EF49  F019         	goto	l3939
  3871   00328E  EF54  F019         	goto	l3451
  3872   003292                     l3939:
  3873                           
  3874                           ; BSR set to: 0
  3875                           ; Switch size 1, requested type "simple"
  3876                           ; Number of cases is 2, Range of values is 76 to 108
  3877                           ; switch strategies available:
  3878                           ; Name         Instructions Cycles
  3879                           ; simple_byte            7     4 (average)
  3880                           ;	Chosen strategy is simple_byte
  3881   003292  51AC               	movf	??_vfpfcnvrt& (0+255),w,b
  3882   003294  0A4C               	xorlw	76	; case 76
  3883   003296  B4D8               	btfsc	status,2,c
  3884   003298  EF25  F019         	goto	l3445
  3885   00329C  0A20               	xorlw	32	; case 108
  3886   00329E  B4D8               	btfsc	status,2,c
  3887   0032A0  EF0B  F019         	goto	l3443
  3888   0032A4  EF54  F019         	goto	l3451
  3889   0032A8                     l3451:
  3890                           
  3891                           ; BSR set to: 0
  3892                           ;C:\Program Files\Microchip\xc8\v2.40\pic\sources\c99\common\doprnt.c: 1465:    *fmt = c
      +                          p+1;
  3893   0032A8  0E01               	movlw	1
  3894   0032AA  25B7               	addwf	vfpfcnvrt@cp& (0+255),w,b
  3895   0032AC  6FAC               	movwf	??_vfpfcnvrt& (0+255),b
  3896   0032AE  0E00               	movlw	0
  3897   0032B0  21B8               	addwfc	(vfpfcnvrt@cp+1)& (0+255),w,b
  3898   0032B2  6FAD               	movwf	(??_vfpfcnvrt+1)& (0+255),b
  3899   0032B4  C0A8  FFD9         	movff	vfpfcnvrt@fmt,fsr2l
  3900   0032B8  C0A9  FFDA         	movff	vfpfcnvrt@fmt+1,fsr2h
  3901   0032BC  C0AC  FFDE         	movff	??_vfpfcnvrt,postinc2
  3902   0032C0  C0AD  FFDD         	movff	??_vfpfcnvrt+1,postdec2
  3903                           
  3904                           ;C:\Program Files\Microchip\xc8\v2.40\pic\sources\c99\common\doprnt.c: 1466:    switch (
      +                          *cp) {
  3905   0032C4  EF7D  F019         	goto	l3459
  3906   0032C8                     l3453:
  3907                           
  3908                           ; BSR set to: 0
  3909                           ;C:\Program Files\Microchip\xc8\v2.40\pic\sources\c99\common\doprnt.c: 1493:      return
      +                           (void) efgtoa(fp, convarg.f, *cp);;	Return value of _vfpfcnvrt is never used
  3910   0032C8  C0A6  F071         	movff	vfpfcnvrt@fp,efgtoa@fp
  3911   0032CC  C0A7  F072         	movff	vfpfcnvrt@fp+1,efgtoa@fp+1
  3912   0032D0  C0AE  F073         	movff	vfpfcnvrt@convarg,efgtoa@f
  3913   0032D4  C0AF  F074         	movff	vfpfcnvrt@convarg+1,efgtoa@f+1
  3914   0032D8  C0B0  F075         	movff	vfpfcnvrt@convarg+2,efgtoa@f+2
  3915   0032DC  C0B1  F076         	movff	vfpfcnvrt@convarg+3,efgtoa@f+3
  3916   0032E0  C0B7  FFF6         	movff	vfpfcnvrt@cp,tblptrl
  3917   0032E4  C0B8  FFF7         	movff	vfpfcnvrt@cp+1,tblptrh
  3918   0032E8                     	if	0	;tblptru may be non-zero
  3919   0032E8                     	endif
  3920   0032E8                     	if	1	;Program memory is > 0xFFFF, there are 3 active tblptr bytes
  3921   0032E8  0E00               	movlw	low (__mediumconst shr (0+16))
  3922   0032EA  6EF8               	movwf	tblptru,c
  3923   0032EC                     	endif
  3924   0032EC  0008               	tblrd		*
  3925   0032EE  CFF5 F077          	movff	tablat,efgtoa@c
  3926   0032F2  EC38  F007         	call	_efgtoa	;wreg free
  3927   0032F6  EFB4  F019         	goto	l1024
  3928   0032FA                     l3459:
  3929                           
  3930                           ; BSR set to: 0
  3931   0032FA  C0B7  FFF6         	movff	vfpfcnvrt@cp,tblptrl
  3932   0032FE  C0B8  FFF7         	movff	vfpfcnvrt@cp+1,tblptrh
  3933   003302                     	if	0	;tblptru may be non-zero
  3934   003302                     	endif
  3935   003302                     	if	1	;Program memory is > 0xFFFF, there are 3 active tblptr bytes
  3936   003302  0E00               	movlw	low (__mediumconst shr (0+16))
  3937   003304  6EF8               	movwf	tblptru,c
  3938   003306                     	endif
  3939   003306  0008               	tblrd		*
  3940   003308  50F5               	movf	tablat,w,c
  3941   00330A  6FAC               	movwf	??_vfpfcnvrt& (0+255),b
  3942   00330C  6BAD               	clrf	(??_vfpfcnvrt+1)& (0+255),b
  3943                           
  3944                           ; Switch on 2 bytes has been partitioned into a top level switch of size 1, and 1 sub-sw
      +                          itches
  3945                           ; Switch size 1, requested type "simple"
  3946                           ; Number of cases is 1, Range of values is 0 to 0
  3947                           ; switch strategies available:
  3948                           ; Name         Instructions Cycles
  3949                           ; simple_byte            4     3 (average)
  3950                           ;	Chosen strategy is simple_byte
  3951   00330E  51AD               	movf	(??_vfpfcnvrt+1)& (0+255),w,b
  3952   003310  0A00               	xorlw	0	; case 0
  3953   003312  B4D8               	btfsc	status,2,c
  3954   003314  EF8E  F019         	goto	l3941
  3955   003318  EF95  F019         	goto	l3461
  3956   00331C                     l3941:
  3957                           
  3958                           ; BSR set to: 0
  3959                           ; Switch size 1, requested type "simple"
  3960                           ; Number of cases is 1, Range of values is 102 to 102
  3961                           ; switch strategies available:
  3962                           ; Name         Instructions Cycles
  3963                           ; simple_byte            4     3 (average)
  3964                           ;	Chosen strategy is simple_byte
  3965   00331C  51AC               	movf	??_vfpfcnvrt& (0+255),w,b
  3966   00331E  0A66               	xorlw	102	; case 102
  3967   003320  B4D8               	btfsc	status,2,c
  3968   003322  EF64  F019         	goto	l3453
  3969   003326  EF95  F019         	goto	l3461
  3970   00332A                     l3461:
  3971                           
  3972                           ;C:\Program Files\Microchip\xc8\v2.40\pic\sources\c99\common\doprnt.c: 1509:         ++*
      +                          fmt;
  3973   00332A  C0A8  FFD9         	movff	vfpfcnvrt@fmt,fsr2l
  3974   00332E  C0A9  FFDA         	movff	vfpfcnvrt@fmt+1,fsr2h
  3975   003332  2ADE               	incf	postinc2,f,c
  3976   003334  0E00               	movlw	0
  3977   003336  22DD               	addwfc	postdec2,f,c
  3978   003338  EFB4  F019         	goto	l1024
  3979   00333C                     l3465:
  3980                           
  3981                           ;C:\Program Files\Microchip\xc8\v2.40\pic\sources\c99\common\doprnt.c: 1514:     fputc((
      +                          int)(*fmt)[0], fp);
  3982   00333C  C0A8  FFD9         	movff	vfpfcnvrt@fmt,fsr2l
  3983   003340  C0A9  FFDA         	movff	vfpfcnvrt@fmt+1,fsr2h
  3984   003344  CFDE FFF6          	movff	postinc2,tblptrl
  3985   003348  CFDD FFF7          	movff	postdec2,tblptrh
  3986   00334C                     	if	0	;tblptru may be non-zero
  3987   00334C                     	endif
  3988   00334C                     	if	1	;Program memory is > 0xFFFF, there are 3 active tblptr bytes
  3989   00334C  0E00               	movlw	low (__mediumconst shr (0+16))
  3990   00334E  6EF8               	movwf	tblptru,c
  3991   003350                     	endif
  3992   003350  0008               	tblrd		*
  3993   003352  50F5               	movf	tablat,w,c
  3994   003354  6E01               	movwf	fputc@c^0,c
  3995   003356  6A02               	clrf	(fputc@c+1)^0,c
  3996   003358  C0A6  F003         	movff	vfpfcnvrt@fp,fputc@fp
  3997   00335C  C0A7  F004         	movff	vfpfcnvrt@fp+1,fputc@fp+1
  3998   003360  EC20  F01E         	call	_fputc	;wreg free
  3999   003364  EF95  F019         	goto	l3461
  4000   003368                     l1024:
  4001   003368  0012               	return		;funcret
  4002   00336A                     __end_of_vfpfcnvrt:
  4003                           	callstack 0
  4004                           
  4005 ;; *************** function _efgtoa *****************
  4006 ;; Defined at:
  4007 ;;		line 506 in file "C:\Program Files\Microchip\xc8\v2.40\pic\sources\c99\common\doprnt.c"
  4008 ;; Parameters:    Size  Location     Type
  4009 ;;  fp              2   17[BANK0 ] PTR struct _IO_FILE
  4010 ;;		 -> sprintf@f(11), 
  4011 ;;  f               4   19[BANK0 ] PTR struct _IO_FILE
  4012 ;;  c               1   23[BANK0 ] unsigned char 
  4013 ;; Auto vars:     Size  Location     Type
  4014 ;;  u               4   66[BANK0 ] struct flui
  4015 ;;  g               4   62[BANK0 ] struct flui
  4016 ;;  l               4   55[BANK0 ] struct flui
  4017 ;;  h               4   51[BANK0 ] struct flui
  4018 ;;  ou              4   45[BANK0 ] struct flui
  4019 ;;  n               2   60[BANK0 ] int 
  4020 ;;  i               2   49[BANK0 ] int 
  4021 ;;  w               2   43[BANK0 ] int 
  4022 ;;  e               2   41[BANK0 ] int 
  4023 ;;  m               2   39[BANK0 ] int 
  4024 ;;  d               2   37[BANK0 ] int 
  4025 ;;  t               2   30[BANK0 ] int 
  4026 ;;  p               2   28[BANK0 ] int 
  4027 ;;  ne              2   26[BANK0 ] int 
  4028 ;;  sign            1   59[BANK0 ] unsigned char 
  4029 ;;  nmode           1   36[BANK0 ] unsigned char 
  4030 ;;  mode            1   35[BANK0 ] unsigned char 
  4031 ;;  pp              1   34[BANK0 ] unsigned char 
  4032 ;;  esign           1    0        unsigned char 
  4033 ;; Return value:  Size  Location     Type
  4034 ;;                  1    wreg      void 
  4035 ;; Registers used:
  4036 ;;		wreg, fsr1l, fsr1h, fsr2l, fsr2h, status,2, status,0, tblptrl, tblptrh, tblptru, prodl, prodh, cstack
  4037 ;; Tracked objects:
  4038 ;;		On entry : 0/0
  4039 ;;		On exit  : 0/0
  4040 ;;		Unchanged: 0/0
  4041 ;; Data sizes:     COMRAM   BANK0   BANK1   BANK2   BANK3   BANK4   BANK5   BANK6   BANK7   BANK8   BANK9  BANK10  BANK1
      +1  BANK12  BANK13
  4042 ;;      Params:         0       7       0       0       0       0       0       0       0       0       0       0       
      +0       0       0
  4043 ;;      Locals:         0      44       0       0       0       0       0       0       0       0       0       0       
      +0       0       0
  4044 ;;      Temps:          0       2       0       0       0       0       0       0       0       0       0       0       
      +0       0       0
  4045 ;;      Totals:         0      53       0       0       0       0       0       0       0       0       0       0       
      +0       0       0
  4046 ;;Total ram usage:       53 bytes
  4047 ;; Hardware stack levels used: 1
  4048 ;; Hardware stack levels required when called: 4
  4049 ;; This function calls:
  4050 ;;		___fladd
  4051 ;;		___fldiv
  4052 ;;		___fleq
  4053 ;;		___flge
  4054 ;;		___flmul
  4055 ;;		___flneg
  4056 ;;		___flsub
  4057 ;;		___fltol
  4058 ;;		___fpclassifyf
  4059 ;;		_floorf
  4060 ;;		_labs
  4061 ;;		_memcpy
  4062 ;;		_pad
  4063 ;;		_strcpy
  4064 ;; This function is called by:
  4065 ;;		_vfpfcnvrt
  4066 ;; This function uses a non-reentrant model
  4067 ;;
  4068                           
  4069                           	psect	text22
  4070   000E70                     __ptext22:
  4071                           	callstack 0
  4072   000E70                     _efgtoa:
  4073                           	callstack 22
  4074   000E70                     
  4075                           ;C:\Program Files\Microchip\xc8\v2.40\pic\sources\c99\common\doprnt.c: 506: static void 
      +                          efgtoa(FILE *fp, long double f, char c);C:\Program Files\Microchip\xc8\v2.40\pic\sources
      +                          \c99\common\doprnt.c: 507: {;C:\Program Files\Microchip\xc8\v2.40\pic\sources\c99\common
      +                          \doprnt.c: 508:     char mode, nmode, pp, sign, esign;;C:\Program Files\Microchip\xc8\v2
      +                          .40\pic\sources\c99\common\doprnt.c: 509:     int d, e, i, m, n, ne, p, t, w;;C:\Program
      +                           Files\Microchip\xc8\v2.40\pic\sources\c99\common\doprnt.c: 510:     long double h, l;
  4076   000E70  0E00               	movlw	0
  4077   000E72  0100               	movlb	0	; () banked
  4078   000E74  6F9B               	movwf	efgtoa@sign& (0+255),b
  4079   000E76                     
  4080                           ; BSR set to: 0
  4081                           ;C:\Program Files\Microchip\xc8\v2.40\pic\sources\c99\common\doprnt.c: 515:     g.f = f;
  4082   000E76  C073  F09E         	movff	efgtoa@f,efgtoa@g
  4083   000E7A  C074  F09F         	movff	efgtoa@f+1,efgtoa@g+1
  4084   000E7E  C075  F0A0         	movff	efgtoa@f+2,efgtoa@g+2
  4085   000E82  C076  F0A1         	movff	efgtoa@f+3,efgtoa@g+3
  4086   000E86                     
  4087                           ; BSR set to: 0
  4088                           ;C:\Program Files\Microchip\xc8\v2.40\pic\sources\c99\common\doprnt.c: 516:     if (g.f 
      +                          < 0.0) {
  4089   000E86  BFA1               	btfsc	(efgtoa@g+3)& (0+255),7,b
  4090   000E88  EF4A  F007         	goto	u3320
  4091   000E8C  EF48  F007         	goto	u3321
  4092   000E90                     u3321:
  4093   000E90  EF5E  F007         	goto	l3203
  4094   000E94                     u3320:
  4095   000E94                     
  4096                           ; BSR set to: 0
  4097                           ;C:\Program Files\Microchip\xc8\v2.40\pic\sources\c99\common\doprnt.c: 517:         sign
      +                           = 1;
  4098   000E94  0E01               	movlw	1
  4099   000E96  6F9B               	movwf	efgtoa@sign& (0+255),b
  4100   000E98                     
  4101                           ; BSR set to: 0
  4102                           ;C:\Program Files\Microchip\xc8\v2.40\pic\sources\c99\common\doprnt.c: 518:         g.f 
      +                          = -g.f;
  4103   000E98  C09E  F001         	movff	efgtoa@g,___flneg@f1
  4104   000E9C  C09F  F002         	movff	efgtoa@g+1,___flneg@f1+1
  4105   000EA0  C0A0  F003         	movff	efgtoa@g+2,___flneg@f1+2
  4106   000EA4  C0A1  F004         	movff	efgtoa@g+3,___flneg@f1+3
  4107   000EA8  EC89  F021         	call	___flneg	;wreg free
  4108   000EAC  C001  F09E         	movff	?___flneg,efgtoa@g
  4109   000EB0  C002  F09F         	movff	?___flneg+1,efgtoa@g+1
  4110   000EB4  C003  F0A0         	movff	?___flneg+2,efgtoa@g+2
  4111   000EB8  C004  F0A1         	movff	?___flneg+3,efgtoa@g+3
  4112   000EBC                     l3203:
  4113                           
  4114                           ;C:\Program Files\Microchip\xc8\v2.40\pic\sources\c99\common\doprnt.c: 522:     n = 0;
  4115   000EBC  0E00               	movlw	0
  4116   000EBE  0100               	movlb	0	; () banked
  4117   000EC0  6F9D               	movwf	(efgtoa@n+1)& (0+255),b
  4118   000EC2  0E00               	movlw	0
  4119   000EC4  6F9C               	movwf	efgtoa@n& (0+255),b
  4120   000EC6                     
  4121                           ; BSR set to: 0
  4122                           ;C:\Program Files\Microchip\xc8\v2.40\pic\sources\c99\common\doprnt.c: 523:     w = widt
      +                          h;
  4123   000EC6  C0F4  F08B         	movff	_width,efgtoa@w
  4124   000ECA  C0F5  F08C         	movff	_width+1,efgtoa@w+1
  4125   000ECE                     
  4126                           ; BSR set to: 0
  4127                           ;C:\Program Files\Microchip\xc8\v2.40\pic\sources\c99\common\doprnt.c: 524:     if (sign
  4128   000ECE  519B               	movf	efgtoa@sign& (0+255),w,b
  4129   000ED0  B4D8               	btfsc	status,2,c
  4130   000ED2  EF6D  F007         	goto	u3331
  4131   000ED6  EF6F  F007         	goto	u3330
  4132   000EDA                     u3331:
  4133   000EDA  EF83  F007         	goto	l3217
  4134   000EDE                     u3330:
  4135   000EDE                     
  4136                           ; BSR set to: 0
  4137                           ;C:\Program Files\Microchip\xc8\v2.40\pic\sources\c99\common\doprnt.c: 528:    ) {;C:\Pr
      +                          ogram Files\Microchip\xc8\v2.40\pic\sources\c99\common\doprnt.c: 529:   sign = sign ? '-
      +                          ' : '+';
  4138   000EDE  519B               	movf	efgtoa@sign& (0+255),w,b
  4139   000EE0  A4D8               	btfss	status,2,c
  4140   000EE2  EF75  F007         	goto	u3341
  4141   000EE6  EF77  F007         	goto	u3340
  4142   000EEA                     u3341:
  4143   000EEA  EF7D  F007         	goto	l3213
  4144   000EEE                     u3340:
  4145   000EEE                     
  4146                           ; BSR set to: 0
  4147   000EEE  0E00               	movlw	0
  4148   000EF0  6F81               	movwf	(_efgtoa$1387+1)& (0+255),b
  4149   000EF2  0E2B               	movlw	43
  4150   000EF4  6F80               	movwf	_efgtoa$1387& (0+255),b
  4151   000EF6  EF81  F007         	goto	l3215
  4152   000EFA                     l3213:
  4153                           
  4154                           ; BSR set to: 0
  4155   000EFA  0E00               	movlw	0
  4156   000EFC  6F81               	movwf	(_efgtoa$1387+1)& (0+255),b
  4157   000EFE  0E2D               	movlw	45
  4158   000F00  6F80               	movwf	_efgtoa$1387& (0+255),b
  4159   000F02                     l3215:
  4160                           
  4161                           ; BSR set to: 0
  4162   000F02  C080  F09B         	movff	_efgtoa$1387,efgtoa@sign
  4163   000F06                     l3217:
  4164                           
  4165                           ; BSR set to: 0
  4166                           ;C:\Program Files\Microchip\xc8\v2.40\pic\sources\c99\common\doprnt.c: 538:     if (( __
      +                          fpclassifyf(g.f) == 1 )) {
  4167   000F06  C09E  F001         	movff	efgtoa@g,___fpclassifyf@x
  4168   000F0A  C09F  F002         	movff	efgtoa@g+1,___fpclassifyf@x+1
  4169   000F0E  C0A0  F003         	movff	efgtoa@g+2,___fpclassifyf@x+2
  4170   000F12  C0A1  F004         	movff	efgtoa@g+3,___fpclassifyf@x+3
  4171   000F16  ECA1  F01D         	call	___fpclassifyf	;wreg free
  4172   000F1A  0401               	decf	?___fpclassifyf^0,w,c
  4173   000F1C  1002               	iorwf	(?___fpclassifyf+1)^0,w,c
  4174   000F1E  A4D8               	btfss	status,2,c
  4175   000F20  EF94  F007         	goto	u3351
  4176   000F24  EF96  F007         	goto	u3350
  4177   000F28                     u3351:
  4178   000F28  EFC9  F007         	goto	l3235
  4179   000F2C                     u3350:
  4180   000F2C                     
  4181                           ;C:\Program Files\Microchip\xc8\v2.40\pic\sources\c99\common\doprnt.c: 539:   if (sign) 
      +                          {
  4182   000F2C  0100               	movlb	0	; () banked
  4183   000F2E  519B               	movf	efgtoa@sign& (0+255),w,b
  4184   000F30  B4D8               	btfsc	status,2,c
  4185   000F32  EF9D  F007         	goto	u3361
  4186   000F36  EF9F  F007         	goto	u3360
  4187   000F3A                     u3361:
  4188   000F3A  EFA8  F007         	goto	l3227
  4189   000F3E                     u3360:
  4190   000F3E                     
  4191                           ; BSR set to: 0
  4192                           ;C:\Program Files\Microchip\xc8\v2.40\pic\sources\c99\common\doprnt.c: 540:    dbuf[0] =
      +                           sign;
  4193   000F3E  C09B  F112         	movff	efgtoa@sign,_dbuf
  4194   000F42                     
  4195                           ; BSR set to: 0
  4196                           ;C:\Program Files\Microchip\xc8\v2.40\pic\sources\c99\common\doprnt.c: 541:    w--;
  4197   000F42  078B               	decf	efgtoa@w& (0+255),f,b
  4198   000F44  A0D8               	btfss	status,0,c
  4199   000F46  078C               	decf	(efgtoa@w+1)& (0+255),f,b
  4200   000F48                     
  4201                           ; BSR set to: 0
  4202                           ;C:\Program Files\Microchip\xc8\v2.40\pic\sources\c99\common\doprnt.c: 542:    n = 1;
  4203   000F48  0E00               	movlw	0
  4204   000F4A  6F9D               	movwf	(efgtoa@n+1)& (0+255),b
  4205   000F4C  0E01               	movlw	1
  4206   000F4E  6F9C               	movwf	efgtoa@n& (0+255),b
  4207   000F50                     l3227:
  4208                           
  4209                           ; BSR set to: 0
  4210                           ;C:\Program Files\Microchip\xc8\v2.40\pic\sources\c99\common\doprnt.c: 550:   {;C:\Progr
      +                          am Files\Microchip\xc8\v2.40\pic\sources\c99\common\doprnt.c: 551:             strcpy(&d
      +                          buf[n], "inf");
  4211   000F50  0E12               	movlw	low _dbuf
  4212   000F52  259C               	addwf	efgtoa@n& (0+255),w,b
  4213   000F54  6E01               	movwf	strcpy@dest^0,c
  4214   000F56  0E01               	movlw	high _dbuf
  4215   000F58  219D               	addwfc	(efgtoa@n+1)& (0+255),w,b
  4216   000F5A  6E02               	movwf	(strcpy@dest+1)^0,c
  4217   000F5C  0E63               	movlw	low STR_11
  4218   000F5E  6E03               	movwf	strcpy@src^0,c
  4219   000F60  0E0E               	movlw	high STR_11
  4220   000F62  6E04               	movwf	(strcpy@src+1)^0,c
  4221   000F64  ECE5  F020         	call	_strcpy	;wreg free
  4222   000F68                     l3229:
  4223                           
  4224                           ;C:\Program Files\Microchip\xc8\v2.40\pic\sources\c99\common\doprnt.c: 552:         };C:
      +                          \Program Files\Microchip\xc8\v2.40\pic\sources\c99\common\doprnt.c: 553:         w -= ((
      +                          sizeof("inf")/sizeof("inf"[0]))-1);
  4225   000F68  0100               	movlb	0	; () banked
  4226   000F6A  0EFD               	movlw	253
  4227   000F6C  278B               	addwf	efgtoa@w& (0+255),f,b
  4228   000F6E  0EFF               	movlw	255
  4229   000F70  238C               	addwfc	(efgtoa@w+1)& (0+255),f,b
  4230   000F72                     
  4231                           ; BSR set to: 0
  4232                           ;C:\Program Files\Microchip\xc8\v2.40\pic\sources\c99\common\doprnt.c: 554:         retu
      +                          rn (void) pad(fp, &dbuf[0], w);
  4233   000F72  C071  F011         	movff	efgtoa@fp,pad@fp
  4234   000F76  C072  F012         	movff	efgtoa@fp+1,pad@fp+1
  4235   000F7A  0E12               	movlw	low _dbuf
  4236   000F7C  6E13               	movwf	pad@buf^0,c
  4237   000F7E  0E01               	movlw	high _dbuf
  4238   000F80  6E14               	movwf	(pad@buf+1)^0,c
  4239   000F82  C08B  F015         	movff	efgtoa@w,pad@p
  4240   000F86  C08C  F016         	movff	efgtoa@w+1,pad@p+1
  4241   000F8A  EC36  F01F         	call	_pad	;wreg free
  4242   000F8E  EF34  F00C         	goto	l964
  4243   000F92                     l3235:
  4244                           
  4245                           ;C:\Program Files\Microchip\xc8\v2.40\pic\sources\c99\common\doprnt.c: 556:     if (( __
      +                          fpclassifyf(g.f) == 0 )) {
  4246   000F92  C09E  F001         	movff	efgtoa@g,___fpclassifyf@x
  4247   000F96  C09F  F002         	movff	efgtoa@g+1,___fpclassifyf@x+1
  4248   000F9A  C0A0  F003         	movff	efgtoa@g+2,___fpclassifyf@x+2
  4249   000F9E  C0A1  F004         	movff	efgtoa@g+3,___fpclassifyf@x+3
  4250   000FA2  ECA1  F01D         	call	___fpclassifyf	;wreg free
  4251   000FA6  5001               	movf	?___fpclassifyf^0,w,c
  4252   000FA8  1002               	iorwf	(?___fpclassifyf+1)^0,w,c
  4253   000FAA  A4D8               	btfss	status,2,c
  4254   000FAC  EFDA  F007         	goto	u3371
  4255   000FB0  EFDC  F007         	goto	u3370
  4256   000FB4                     u3371:
  4257   000FB4  EFFC  F007         	goto	l3253
  4258   000FB8                     u3370:
  4259   000FB8                     
  4260                           ;C:\Program Files\Microchip\xc8\v2.40\pic\sources\c99\common\doprnt.c: 557:   if (sign) 
      +                          {
  4261   000FB8  0100               	movlb	0	; () banked
  4262   000FBA  519B               	movf	efgtoa@sign& (0+255),w,b
  4263   000FBC  B4D8               	btfsc	status,2,c
  4264   000FBE  EFE3  F007         	goto	u3381
  4265   000FC2  EFE5  F007         	goto	u3380
  4266   000FC6                     u3381:
  4267   000FC6  EFEE  F007         	goto	l3245
  4268   000FCA                     u3380:
  4269   000FCA                     
  4270                           ; BSR set to: 0
  4271                           ;C:\Program Files\Microchip\xc8\v2.40\pic\sources\c99\common\doprnt.c: 558:    dbuf[0] =
      +                           sign;
  4272   000FCA  C09B  F112         	movff	efgtoa@sign,_dbuf
  4273   000FCE                     
  4274                           ; BSR set to: 0
  4275                           ;C:\Program Files\Microchip\xc8\v2.40\pic\sources\c99\common\doprnt.c: 559:    w--;
  4276   000FCE  078B               	decf	efgtoa@w& (0+255),f,b
  4277   000FD0  A0D8               	btfss	status,0,c
  4278   000FD2  078C               	decf	(efgtoa@w+1)& (0+255),f,b
  4279   000FD4                     
  4280                           ; BSR set to: 0
  4281                           ;C:\Program Files\Microchip\xc8\v2.40\pic\sources\c99\common\doprnt.c: 560:    n = 1;
  4282   000FD4  0E00               	movlw	0
  4283   000FD6  6F9D               	movwf	(efgtoa@n+1)& (0+255),b
  4284   000FD8  0E01               	movlw	1
  4285   000FDA  6F9C               	movwf	efgtoa@n& (0+255),b
  4286   000FDC                     l3245:
  4287                           
  4288                           ; BSR set to: 0
  4289                           ;C:\Program Files\Microchip\xc8\v2.40\pic\sources\c99\common\doprnt.c: 568:   {;C:\Progr
      +                          am Files\Microchip\xc8\v2.40\pic\sources\c99\common\doprnt.c: 569:             strcpy(&d
      +                          buf[n], "nan");
  4290   000FDC  0E12               	movlw	low _dbuf
  4291   000FDE  259C               	addwf	efgtoa@n& (0+255),w,b
  4292   000FE0  6E01               	movwf	strcpy@dest^0,c
  4293   000FE2  0E01               	movlw	high _dbuf
  4294   000FE4  219D               	addwfc	(efgtoa@n+1)& (0+255),w,b
  4295   000FE6  6E02               	movwf	(strcpy@dest+1)^0,c
  4296   000FE8  0E67               	movlw	low STR_14
  4297   000FEA  6E03               	movwf	strcpy@src^0,c
  4298   000FEC  0E0E               	movlw	high STR_14
  4299   000FEE  6E04               	movwf	(strcpy@src+1)^0,c
  4300   000FF0  ECE5  F020         	call	_strcpy	;wreg free
  4301   000FF4  EFB4  F007         	goto	l3229
  4302   000FF8                     l3253:
  4303                           
  4304                           ;C:\Program Files\Microchip\xc8\v2.40\pic\sources\c99\common\doprnt.c: 576:     u.f = 1.
      +                          0;
  4305   000FF8  0E00               	movlw	0
  4306   000FFA  0100               	movlb	0	; () banked
  4307   000FFC  6FA2               	movwf	efgtoa@u& (0+255),b
  4308   000FFE  0E00               	movlw	0
  4309   001000  6FA3               	movwf	(efgtoa@u+1)& (0+255),b
  4310   001002  0E80               	movlw	128
  4311   001004  6FA4               	movwf	(efgtoa@u+2)& (0+255),b
  4312   001006  0E3F               	movlw	63
  4313   001008  6FA5               	movwf	(efgtoa@u+3)& (0+255),b
  4314                           
  4315                           ;C:\Program Files\Microchip\xc8\v2.40\pic\sources\c99\common\doprnt.c: 577:     e = 0;
  4316   00100A  0E00               	movlw	0
  4317   00100C  6F8A               	movwf	(efgtoa@e+1)& (0+255),b
  4318   00100E  0E00               	movlw	0
  4319   001010  6F89               	movwf	efgtoa@e& (0+255),b
  4320   001012                     
  4321                           ; BSR set to: 0
  4322                           ;C:\Program Files\Microchip\xc8\v2.40\pic\sources\c99\common\doprnt.c: 578:  if (!(g.f =
      +                          = 0.0)) {
  4323   001012  C09E  F001         	movff	efgtoa@g,___fleq@ff1
  4324   001016  C09F  F002         	movff	efgtoa@g+1,___fleq@ff1+1
  4325   00101A  C0A0  F003         	movff	efgtoa@g+2,___fleq@ff1+2
  4326   00101E  C0A1  F004         	movff	efgtoa@g+3,___fleq@ff1+3
  4327   001022  0E00               	movlw	0
  4328   001024  6E05               	movwf	___fleq@ff2^0,c
  4329   001026  0E00               	movlw	0
  4330   001028  6E06               	movwf	(___fleq@ff2+1)^0,c
  4331   00102A  0E00               	movlw	0
  4332   00102C  6E07               	movwf	(___fleq@ff2+2)^0,c
  4333   00102E  0E00               	movlw	0
  4334   001030  6E08               	movwf	(___fleq@ff2+3)^0,c
  4335   001032  ECE1  F01E         	call	___fleq	;wreg free
  4336   001036  B0D8               	btfsc	status,0,c
  4337   001038  EF20  F008         	goto	u3391
  4338   00103C  EF22  F008         	goto	u3390
  4339   001040                     u3391:
  4340   001040  EF01  F009         	goto	l967
  4341   001044                     u3390:
  4342   001044  EF2F  F008         	goto	l3261
  4343   001048                     l969:
  4344                           
  4345                           ;C:\Program Files\Microchip\xc8\v2.40\pic\sources\c99\common\doprnt.c: 580:    u = ou;
  4346   001048  C08D  F0A2         	movff	efgtoa@ou,efgtoa@u
  4347   00104C  C08E  F0A3         	movff	efgtoa@ou+1,efgtoa@u+1
  4348   001050  C08F  F0A4         	movff	efgtoa@ou+2,efgtoa@u+2
  4349   001054  C090  F0A5         	movff	efgtoa@ou+3,efgtoa@u+3
  4350   001058                     
  4351                           ;C:\Program Files\Microchip\xc8\v2.40\pic\sources\c99\common\doprnt.c: 581:    ++e;
  4352   001058  0100               	movlb	0	; () banked
  4353   00105A  4B89               	infsnz	efgtoa@e& (0+255),f,b
  4354   00105C  2B8A               	incf	(efgtoa@e+1)& (0+255),f,b
  4355   00105E                     l3261:
  4356                           
  4357                           ;C:\Program Files\Microchip\xc8\v2.40\pic\sources\c99\common\doprnt.c: 579:   while ((la
      +                          bs((g).u-((ou.f = u.f*10.0,ou)).u) <= 1) || g.f > ou.f) {
  4358   00105E  C0A2  F04B         	movff	efgtoa@u,___flmul@b
  4359   001062  C0A3  F04C         	movff	efgtoa@u+1,___flmul@b+1
  4360   001066  C0A4  F04D         	movff	efgtoa@u+2,___flmul@b+2
  4361   00106A  C0A5  F04E         	movff	efgtoa@u+3,___flmul@b+3
  4362   00106E  0E00               	movlw	0
  4363   001070  6E4F               	movwf	___flmul@a^0,c
  4364   001072  0E00               	movlw	0
  4365   001074  6E50               	movwf	(___flmul@a+1)^0,c
  4366   001076  0E20               	movlw	32
  4367   001078  6E51               	movwf	(___flmul@a+2)^0,c
  4368   00107A  0E41               	movlw	65
  4369   00107C  6E52               	movwf	(___flmul@a+3)^0,c
  4370   00107E  ECBA  F014         	call	___flmul	;wreg free
  4371   001082  C04B  F08D         	movff	?___flmul,efgtoa@ou
  4372   001086  C04C  F08E         	movff	?___flmul+1,efgtoa@ou+1
  4373   00108A  C04D  F08F         	movff	?___flmul+2,efgtoa@ou+2
  4374   00108E  C04E  F090         	movff	?___flmul+3,efgtoa@ou+3
  4375   001092  0100               	movlb	0	; () banked
  4376   001094  518D               	movf	efgtoa@ou& (0+255),w,b
  4377   001096  5D9E               	subwf	efgtoa@g& (0+255),w,b
  4378   001098  6E01               	movwf	labs@a^0,c
  4379   00109A  518E               	movf	(efgtoa@ou+1)& (0+255),w,b
  4380   00109C  599F               	subwfb	(efgtoa@g+1)& (0+255),w,b
  4381   00109E  6E02               	movwf	(labs@a+1)^0,c
  4382   0010A0  518F               	movf	(efgtoa@ou+2)& (0+255),w,b
  4383   0010A2  59A0               	subwfb	(efgtoa@g+2)& (0+255),w,b
  4384   0010A4  6E03               	movwf	(labs@a+2)^0,c
  4385   0010A6  5190               	movf	(efgtoa@ou+3)& (0+255),w,b
  4386   0010A8  59A1               	subwfb	(efgtoa@g+3)& (0+255),w,b
  4387   0010AA  6E04               	movwf	(labs@a+3)^0,c
  4388   0010AC  EC73  F01F         	call	_labs	;wreg free
  4389   0010B0  BE04               	btfsc	(?_labs+3)^0,7,c
  4390   0010B2  EF66  F008         	goto	u3401
  4391   0010B6  5004               	movf	(?_labs+3)^0,w,c
  4392   0010B8  1003               	iorwf	(?_labs+2)^0,w,c
  4393   0010BA  1002               	iorwf	(?_labs+1)^0,w,c
  4394   0010BC  E109               	bnz	u3400
  4395   0010BE  0E02               	movlw	2
  4396   0010C0  5C01               	subwf	?_labs^0,w,c
  4397   0010C2  A0D8               	btfss	status,0,c
  4398   0010C4  EF66  F008         	goto	u3401
  4399   0010C8  EF68  F008         	goto	u3400
  4400   0010CC                     u3401:
  4401   0010CC  EF24  F008         	goto	l969
  4402   0010D0                     u3400:
  4403   0010D0  C08D  F057         	movff	efgtoa@ou,___flge@ff1
  4404   0010D4  C08E  F058         	movff	efgtoa@ou+1,___flge@ff1+1
  4405   0010D8  C08F  F059         	movff	efgtoa@ou+2,___flge@ff1+2
  4406   0010DC  C090  F05A         	movff	efgtoa@ou+3,___flge@ff1+3
  4407   0010E0  C09E  F05B         	movff	efgtoa@g,___flge@ff2
  4408   0010E4  C09F  F05C         	movff	efgtoa@g+1,___flge@ff2+1
  4409   0010E8  C0A0  F05D         	movff	efgtoa@g+2,___flge@ff2+2
  4410   0010EC  C0A1  F05E         	movff	efgtoa@g+3,___flge@ff2+3
  4411   0010F0  EC9E  F01C         	call	___flge	;wreg free
  4412   0010F4  A0D8               	btfss	status,0,c
  4413   0010F6  EF7F  F008         	goto	u3411
  4414   0010FA  EF81  F008         	goto	u3410
  4415   0010FE                     u3411:
  4416   0010FE  EF24  F008         	goto	l969
  4417   001102                     u3410:
  4418   001102                     
  4419                           ;C:\Program Files\Microchip\xc8\v2.40\pic\sources\c99\common\doprnt.c: 583:   if ((labs(
      +                          (g).u-(u).u) <= 1)) {
  4420   001102  0100               	movlb	0	; () banked
  4421   001104  51A2               	movf	efgtoa@u& (0+255),w,b
  4422   001106  5D9E               	subwf	efgtoa@g& (0+255),w,b
  4423   001108  6E01               	movwf	labs@a^0,c
  4424   00110A  51A3               	movf	(efgtoa@u+1)& (0+255),w,b
  4425   00110C  599F               	subwfb	(efgtoa@g+1)& (0+255),w,b
  4426   00110E  6E02               	movwf	(labs@a+1)^0,c
  4427   001110  51A4               	movf	(efgtoa@u+2)& (0+255),w,b
  4428   001112  59A0               	subwfb	(efgtoa@g+2)& (0+255),w,b
  4429   001114  6E03               	movwf	(labs@a+2)^0,c
  4430   001116  51A5               	movf	(efgtoa@u+3)& (0+255),w,b
  4431   001118  59A1               	subwfb	(efgtoa@g+3)& (0+255),w,b
  4432   00111A  6E04               	movwf	(labs@a+3)^0,c
  4433   00111C  EC73  F01F         	call	_labs	;wreg free
  4434   001120  BE04               	btfsc	(?_labs+3)^0,7,c
  4435   001122  EFA0  F008         	goto	u3420
  4436   001126  5004               	movf	(?_labs+3)^0,w,c
  4437   001128  1003               	iorwf	(?_labs+2)^0,w,c
  4438   00112A  1002               	iorwf	(?_labs+1)^0,w,c
  4439   00112C  E107               	bnz	u3421
  4440   00112E  0E02               	movlw	2
  4441   001130  5C01               	subwf	?_labs^0,w,c
  4442   001132  B0D8               	btfsc	status,0,c
  4443   001134  EF9E  F008         	goto	u3421
  4444   001138  EFA0  F008         	goto	u3420
  4445   00113C                     u3421:
  4446   00113C  EFE8  F008         	goto	l3279
  4447   001140                     u3420:
  4448   001140                     l3269:
  4449                           
  4450                           ;C:\Program Files\Microchip\xc8\v2.40\pic\sources\c99\common\doprnt.c: 584:    g = u;
  4451   001140  C0A2  F09E         	movff	efgtoa@u,efgtoa@g
  4452   001144  C0A3  F09F         	movff	efgtoa@u+1,efgtoa@g+1
  4453   001148  C0A4  F0A0         	movff	efgtoa@u+2,efgtoa@g+2
  4454   00114C  C0A5  F0A1         	movff	efgtoa@u+3,efgtoa@g+3
  4455                           
  4456                           ;C:\Program Files\Microchip\xc8\v2.40\pic\sources\c99\common\doprnt.c: 585:   }
  4457   001150  EF01  F009         	goto	l967
  4458   001154                     l3271:
  4459                           
  4460                           ;C:\Program Files\Microchip\xc8\v2.40\pic\sources\c99\common\doprnt.c: 588:     u.f = u.
      +                          f/10.0;
  4461   001154  C0A2  F032         	movff	efgtoa@u,___fldiv@b
  4462   001158  C0A3  F033         	movff	efgtoa@u+1,___fldiv@b+1
  4463   00115C  C0A4  F034         	movff	efgtoa@u+2,___fldiv@b+2
  4464   001160  C0A5  F035         	movff	efgtoa@u+3,___fldiv@b+3
  4465   001164  0E00               	movlw	0
  4466   001166  6E36               	movwf	___fldiv@a^0,c
  4467   001168  0E00               	movlw	0
  4468   00116A  6E37               	movwf	(___fldiv@a+1)^0,c
  4469   00116C  0E20               	movlw	32
  4470   00116E  6E38               	movwf	(___fldiv@a+2)^0,c
  4471   001170  0E41               	movlw	65
  4472   001172  6E39               	movwf	(___fldiv@a+3)^0,c
  4473   001174  ECD0  F016         	call	___fldiv	;wreg free
  4474   001178  C032  F0A2         	movff	?___fldiv,efgtoa@u
  4475   00117C  C033  F0A3         	movff	?___fldiv+1,efgtoa@u+1
  4476   001180  C034  F0A4         	movff	?___fldiv+2,efgtoa@u+2
  4477   001184  C035  F0A5         	movff	?___fldiv+3,efgtoa@u+3
  4478   001188                     
  4479                           ;C:\Program Files\Microchip\xc8\v2.40\pic\sources\c99\common\doprnt.c: 589:     --e;
  4480   001188  0100               	movlb	0	; () banked
  4481   00118A  0789               	decf	efgtoa@e& (0+255),f,b
  4482   00118C  A0D8               	btfss	status,0,c
  4483   00118E  078A               	decf	(efgtoa@e+1)& (0+255),f,b
  4484   001190                     
  4485                           ; BSR set to: 0
  4486                           ;C:\Program Files\Microchip\xc8\v2.40\pic\sources\c99\common\doprnt.c: 590:     if ((lab
      +                          s((g).u-(u).u) <= 1)) {
  4487   001190  51A2               	movf	efgtoa@u& (0+255),w,b
  4488   001192  5D9E               	subwf	efgtoa@g& (0+255),w,b
  4489   001194  6E01               	movwf	labs@a^0,c
  4490   001196  51A3               	movf	(efgtoa@u+1)& (0+255),w,b
  4491   001198  599F               	subwfb	(efgtoa@g+1)& (0+255),w,b
  4492   00119A  6E02               	movwf	(labs@a+1)^0,c
  4493   00119C  51A4               	movf	(efgtoa@u+2)& (0+255),w,b
  4494   00119E  59A0               	subwfb	(efgtoa@g+2)& (0+255),w,b
  4495   0011A0  6E03               	movwf	(labs@a+2)^0,c
  4496   0011A2  51A5               	movf	(efgtoa@u+3)& (0+255),w,b
  4497   0011A4  59A1               	subwfb	(efgtoa@g+3)& (0+255),w,b
  4498   0011A6  6E04               	movwf	(labs@a+3)^0,c
  4499   0011A8  EC73  F01F         	call	_labs	;wreg free
  4500   0011AC  BE04               	btfsc	(?_labs+3)^0,7,c
  4501   0011AE  EFE6  F008         	goto	u3430
  4502   0011B2  5004               	movf	(?_labs+3)^0,w,c
  4503   0011B4  1003               	iorwf	(?_labs+2)^0,w,c
  4504   0011B6  1002               	iorwf	(?_labs+1)^0,w,c
  4505   0011B8  E107               	bnz	u3431
  4506   0011BA  0E02               	movlw	2
  4507   0011BC  5C01               	subwf	?_labs^0,w,c
  4508   0011BE  B0D8               	btfsc	status,0,c
  4509   0011C0  EFE4  F008         	goto	u3431
  4510   0011C4  EFE6  F008         	goto	u3430
  4511   0011C8                     u3431:
  4512   0011C8  EFE8  F008         	goto	l3279
  4513   0011CC                     u3430:
  4514   0011CC  EFA0  F008         	goto	l3269
  4515   0011D0                     l3279:
  4516                           
  4517                           ;C:\Program Files\Microchip\xc8\v2.40\pic\sources\c99\common\doprnt.c: 587:    while (g.
      +                          f < u.f) {
  4518   0011D0  C09E  F057         	movff	efgtoa@g,___flge@ff1
  4519   0011D4  C09F  F058         	movff	efgtoa@g+1,___flge@ff1+1
  4520   0011D8  C0A0  F059         	movff	efgtoa@g+2,___flge@ff1+2
  4521   0011DC  C0A1  F05A         	movff	efgtoa@g+3,___flge@ff1+3
  4522   0011E0  C0A2  F05B         	movff	efgtoa@u,___flge@ff2
  4523   0011E4  C0A3  F05C         	movff	efgtoa@u+1,___flge@ff2+1
  4524   0011E8  C0A4  F05D         	movff	efgtoa@u+2,___flge@ff2+2
  4525   0011EC  C0A5  F05E         	movff	efgtoa@u+3,___flge@ff2+3
  4526   0011F0  EC9E  F01C         	call	___flge	;wreg free
  4527   0011F4  A0D8               	btfss	status,0,c
  4528   0011F6  EFFF  F008         	goto	u3441
  4529   0011FA  EF01  F009         	goto	u3440
  4530   0011FE                     u3441:
  4531   0011FE  EFAA  F008         	goto	l3271
  4532   001202                     u3440:
  4533   001202                     l967:
  4534                           
  4535                           ;C:\Program Files\Microchip\xc8\v2.40\pic\sources\c99\common\doprnt.c: 602:  mode = c;
  4536   001202  C077  F083         	movff	efgtoa@c,efgtoa@mode
  4537                           
  4538                           ;C:\Program Files\Microchip\xc8\v2.40\pic\sources\c99\common\doprnt.c: 604:     nmode = 
      +                          mode;
  4539   001206  C083  F084         	movff	efgtoa@mode,efgtoa@nmode
  4540   00120A                     
  4541                           ;C:\Program Files\Microchip\xc8\v2.40\pic\sources\c99\common\doprnt.c: 614:  {;C:\Progra
      +                          m Files\Microchip\xc8\v2.40\pic\sources\c99\common\doprnt.c: 615:         p = (prec < 0)
      +                           ? 6 : prec;
  4542   00120A  0100               	movlb	0	; () banked
  4543   00120C  BFF7               	btfsc	(_prec+1)& (0+255),7,b
  4544   00120E  EF0B  F009         	goto	u3451
  4545   001212  EF0D  F009         	goto	u3450
  4546   001216                     u3451:
  4547   001216  EF13  F009         	goto	l3285
  4548   00121A                     u3450:
  4549   00121A                     
  4550                           ; BSR set to: 0
  4551   00121A  C0F6  F07C         	movff	_prec,efgtoa@p
  4552   00121E  C0F7  F07D         	movff	_prec+1,efgtoa@p+1
  4553   001222  EF17  F009         	goto	l3287
  4554   001226                     l3285:
  4555                           
  4556                           ; BSR set to: 0
  4557   001226  0E00               	movlw	0
  4558   001228  6F7D               	movwf	(efgtoa@p+1)& (0+255),b
  4559   00122A  0E06               	movlw	6
  4560   00122C  6F7C               	movwf	efgtoa@p& (0+255),b
  4561   00122E                     l3287:
  4562                           
  4563                           ; BSR set to: 0
  4564                           ;C:\Program Files\Microchip\xc8\v2.40\pic\sources\c99\common\doprnt.c: 616:     };C:\Pro
      +                          gram Files\Microchip\xc8\v2.40\pic\sources\c99\common\doprnt.c: 630:     m = p;
  4565   00122E  C07C  F087         	movff	efgtoa@p,efgtoa@m
  4566   001232  C07D  F088         	movff	efgtoa@p+1,efgtoa@m+1
  4567   001236                     
  4568                           ; BSR set to: 0
  4569                           ;C:\Program Files\Microchip\xc8\v2.40\pic\sources\c99\common\doprnt.c: 634:  {;C:\Progra
      +                          m Files\Microchip\xc8\v2.40\pic\sources\c99\common\doprnt.c: 635:         ++m;
  4570   001236  4B87               	infsnz	efgtoa@m& (0+255),f,b
  4571   001238  2B88               	incf	(efgtoa@m+1)& (0+255),f,b
  4572   00123A                     
  4573                           ; BSR set to: 0
  4574                           ;C:\Program Files\Microchip\xc8\v2.40\pic\sources\c99\common\doprnt.c: 636:     };C:\Pro
      +                          gram Files\Microchip\xc8\v2.40\pic\sources\c99\common\doprnt.c: 640:     if (nmode == 'f
      +                          ') {
  4575   00123A  0E66               	movlw	102
  4576   00123C  1984               	xorwf	efgtoa@nmode& (0+255),w,b
  4577   00123E  A4D8               	btfss	status,2,c
  4578   001240  EF24  F009         	goto	u3461
  4579   001244  EF26  F009         	goto	u3460
  4580   001248                     u3461:
  4581   001248  EF46  F009         	goto	l3301
  4582   00124C                     u3460:
  4583   00124C                     
  4584                           ; BSR set to: 0
  4585                           ;C:\Program Files\Microchip\xc8\v2.40\pic\sources\c99\common\doprnt.c: 641:         if (
      +                          e < 0) {
  4586   00124C  BF8A               	btfsc	(efgtoa@e+1)& (0+255),7,b
  4587   00124E  EF2D  F009         	goto	u3470
  4588   001252  EF2B  F009         	goto	u3471
  4589   001256                     u3471:
  4590   001256  EF39  F009         	goto	l3297
  4591   00125A                     u3470:
  4592   00125A                     
  4593                           ; BSR set to: 0
  4594                           ;C:\Program Files\Microchip\xc8\v2.40\pic\sources\c99\common\doprnt.c: 642:             
      +                          u.f = 1.0;
  4595   00125A  0E00               	movlw	0
  4596   00125C  6FA2               	movwf	efgtoa@u& (0+255),b
  4597   00125E  0E00               	movlw	0
  4598   001260  6FA3               	movwf	(efgtoa@u+1)& (0+255),b
  4599   001262  0E80               	movlw	128
  4600   001264  6FA4               	movwf	(efgtoa@u+2)& (0+255),b
  4601   001266  0E3F               	movlw	63
  4602   001268  6FA5               	movwf	(efgtoa@u+3)& (0+255),b
  4603                           
  4604                           ;C:\Program Files\Microchip\xc8\v2.40\pic\sources\c99\common\doprnt.c: 643:             
      +                          e = 0;
  4605   00126A  0E00               	movlw	0
  4606   00126C  6F8A               	movwf	(efgtoa@e+1)& (0+255),b
  4607   00126E  0E00               	movlw	0
  4608   001270  6F89               	movwf	efgtoa@e& (0+255),b
  4609   001272                     l3297:
  4610                           
  4611                           ; BSR set to: 0
  4612                           ;C:\Program Files\Microchip\xc8\v2.40\pic\sources\c99\common\doprnt.c: 645:         if (
      +                          !(mode == 'g')) {
  4613   001272  0E67               	movlw	103
  4614   001274  1983               	xorwf	efgtoa@mode& (0+255),w,b
  4615   001276  B4D8               	btfsc	status,2,c
  4616   001278  EF40  F009         	goto	u3481
  4617   00127C  EF42  F009         	goto	u3480
  4618   001280                     u3481:
  4619   001280  EF46  F009         	goto	l3301
  4620   001284                     u3480:
  4621   001284                     
  4622                           ; BSR set to: 0
  4623                           ;C:\Program Files\Microchip\xc8\v2.40\pic\sources\c99\common\doprnt.c: 646:             
      +                          m += e;
  4624   001284  5189               	movf	efgtoa@e& (0+255),w,b
  4625   001286  2787               	addwf	efgtoa@m& (0+255),f,b
  4626   001288  518A               	movf	(efgtoa@e+1)& (0+255),w,b
  4627   00128A  2388               	addwfc	(efgtoa@m+1)& (0+255),f,b
  4628   00128C                     l3301:
  4629                           
  4630                           ; BSR set to: 0
  4631                           ;C:\Program Files\Microchip\xc8\v2.40\pic\sources\c99\common\doprnt.c: 652:     i = 0;
  4632   00128C  0E00               	movlw	0
  4633   00128E  6F92               	movwf	(efgtoa@i+1)& (0+255),b
  4634   001290  0E00               	movlw	0
  4635   001292  6F91               	movwf	efgtoa@i& (0+255),b
  4636   001294                     
  4637                           ; BSR set to: 0
  4638                           ;C:\Program Files\Microchip\xc8\v2.40\pic\sources\c99\common\doprnt.c: 653:     h = g.f;
  4639   001294  C09E  F093         	movff	efgtoa@g,efgtoa@h
  4640   001298  C09F  F094         	movff	efgtoa@g+1,efgtoa@h+1
  4641   00129C  C0A0  F095         	movff	efgtoa@g+2,efgtoa@h+2
  4642   0012A0  C0A1  F096         	movff	efgtoa@g+3,efgtoa@h+3
  4643   0012A4                     
  4644                           ; BSR set to: 0
  4645                           ;C:\Program Files\Microchip\xc8\v2.40\pic\sources\c99\common\doprnt.c: 654:     ou = u;
  4646   0012A4  C0A2  F08D         	movff	efgtoa@u,efgtoa@ou
  4647   0012A8  C0A3  F08E         	movff	efgtoa@u+1,efgtoa@ou+1
  4648   0012AC  C0A4  F08F         	movff	efgtoa@u+2,efgtoa@ou+2
  4649   0012B0  C0A5  F090         	movff	efgtoa@u+3,efgtoa@ou+3
  4650                           
  4651                           ;C:\Program Files\Microchip\xc8\v2.40\pic\sources\c99\common\doprnt.c: 655:     while (i
      +                           < m) {
  4652   0012B4  EFD7  F009         	goto	l3315
  4653   0012B8                     l3307:
  4654                           
  4655                           ; BSR set to: 0
  4656                           ;C:\Program Files\Microchip\xc8\v2.40\pic\sources\c99\common\doprnt.c: 656:         l = 
      +                          floorf(h/u.f);
  4657   0012B8  C093  F032         	movff	efgtoa@h,___fldiv@b
  4658   0012BC  C094  F033         	movff	efgtoa@h+1,___fldiv@b+1
  4659   0012C0  C095  F034         	movff	efgtoa@h+2,___fldiv@b+2
  4660   0012C4  C096  F035         	movff	efgtoa@h+3,___fldiv@b+3
  4661   0012C8  C0A2  F036         	movff	efgtoa@u,___fldiv@a
  4662   0012CC  C0A3  F037         	movff	efgtoa@u+1,___fldiv@a+1
  4663   0012D0  C0A4  F038         	movff	efgtoa@u+2,___fldiv@a+2
  4664   0012D4  C0A5  F039         	movff	efgtoa@u+3,___fldiv@a+3
  4665   0012D8  ECD0  F016         	call	___fldiv	;wreg free
  4666   0012DC  C032  F04B         	movff	?___fldiv,floorf@x
  4667   0012E0  C033  F04C         	movff	?___fldiv+1,floorf@x+1
  4668   0012E4  C034  F04D         	movff	?___fldiv+2,floorf@x+2
  4669   0012E8  C035  F04E         	movff	?___fldiv+3,floorf@x+3
  4670   0012EC  ECB5  F019         	call	_floorf	;wreg free
  4671   0012F0  C04B  F097         	movff	?_floorf,efgtoa@l
  4672   0012F4  C04C  F098         	movff	?_floorf+1,efgtoa@l+1
  4673   0012F8  C04D  F099         	movff	?_floorf+2,efgtoa@l+2
  4674   0012FC  C04E  F09A         	movff	?_floorf+3,efgtoa@l+3
  4675                           
  4676                           ;C:\Program Files\Microchip\xc8\v2.40\pic\sources\c99\common\doprnt.c: 657:         d = 
      +                          (int)l;
  4677   001300  C097  F001         	movff	efgtoa@l,___fltol@f1
  4678   001304  C098  F002         	movff	efgtoa@l+1,___fltol@f1+1
  4679   001308  C099  F003         	movff	efgtoa@l+2,___fltol@f1+2
  4680   00130C  C09A  F004         	movff	efgtoa@l+3,___fltol@f1+3
  4681   001310  EC1B  F01C         	call	___fltol	;wreg free
  4682   001314  C001  F085         	movff	?___fltol,efgtoa@d
  4683   001318  C002  F086         	movff	?___fltol+1,efgtoa@d+1
  4684   00131C                     
  4685                           ;C:\Program Files\Microchip\xc8\v2.40\pic\sources\c99\common\doprnt.c: 658:         h -=
      +                           l*u.f;
  4686   00131C  C093  F02A         	movff	efgtoa@h,___flsub@b
  4687   001320  C094  F02B         	movff	efgtoa@h+1,___flsub@b+1
  4688   001324  C095  F02C         	movff	efgtoa@h+2,___flsub@b+2
  4689   001328  C096  F02D         	movff	efgtoa@h+3,___flsub@b+3
  4690   00132C  C097  F04F         	movff	efgtoa@l,___flmul@a
  4691   001330  C098  F050         	movff	efgtoa@l+1,___flmul@a+1
  4692   001334  C099  F051         	movff	efgtoa@l+2,___flmul@a+2
  4693   001338  C09A  F052         	movff	efgtoa@l+3,___flmul@a+3
  4694   00133C  C0A2  F04B         	movff	efgtoa@u,___flmul@b
  4695   001340  C0A3  F04C         	movff	efgtoa@u+1,___flmul@b+1
  4696   001344  C0A4  F04D         	movff	efgtoa@u+2,___flmul@b+2
  4697   001348  C0A5  F04E         	movff	efgtoa@u+3,___flmul@b+3
  4698   00134C  ECBA  F014         	call	___flmul	;wreg free
  4699   001350  C04B  F02E         	movff	?___flmul,___flsub@a
  4700   001354  C04C  F02F         	movff	?___flmul+1,___flsub@a+1
  4701   001358  C04D  F030         	movff	?___flmul+2,___flsub@a+2
  4702   00135C  C04E  F031         	movff	?___flmul+3,___flsub@a+3
  4703   001360  ECC2  F020         	call	___flsub	;wreg free
  4704   001364  C02A  F093         	movff	?___flsub,efgtoa@h
  4705   001368  C02B  F094         	movff	?___flsub+1,efgtoa@h+1
  4706   00136C  C02C  F095         	movff	?___flsub+2,efgtoa@h+2
  4707   001370  C02D  F096         	movff	?___flsub+3,efgtoa@h+3
  4708   001374                     
  4709                           ;C:\Program Files\Microchip\xc8\v2.40\pic\sources\c99\common\doprnt.c: 659:         u.f 
      +                          = u.f/10.0;
  4710   001374  C0A2  F032         	movff	efgtoa@u,___fldiv@b
  4711   001378  C0A3  F033         	movff	efgtoa@u+1,___fldiv@b+1
  4712   00137C  C0A4  F034         	movff	efgtoa@u+2,___fldiv@b+2
  4713   001380  C0A5  F035         	movff	efgtoa@u+3,___fldiv@b+3
  4714   001384  0E00               	movlw	0
  4715   001386  6E36               	movwf	___fldiv@a^0,c
  4716   001388  0E00               	movlw	0
  4717   00138A  6E37               	movwf	(___fldiv@a+1)^0,c
  4718   00138C  0E20               	movlw	32
  4719   00138E  6E38               	movwf	(___fldiv@a+2)^0,c
  4720   001390  0E41               	movlw	65
  4721   001392  6E39               	movwf	(___fldiv@a+3)^0,c
  4722   001394  ECD0  F016         	call	___fldiv	;wreg free
  4723   001398  C032  F0A2         	movff	?___fldiv,efgtoa@u
  4724   00139C  C033  F0A3         	movff	?___fldiv+1,efgtoa@u+1
  4725   0013A0  C034  F0A4         	movff	?___fldiv+2,efgtoa@u+2
  4726   0013A4  C035  F0A5         	movff	?___fldiv+3,efgtoa@u+3
  4727   0013A8                     
  4728                           ;C:\Program Files\Microchip\xc8\v2.40\pic\sources\c99\common\doprnt.c: 660:         ++i;
  4729   0013A8  0100               	movlb	0	; () banked
  4730   0013AA  4B91               	infsnz	efgtoa@i& (0+255),f,b
  4731   0013AC  2B92               	incf	(efgtoa@i+1)& (0+255),f,b
  4732   0013AE                     l3315:
  4733                           
  4734                           ; BSR set to: 0
  4735                           ;C:\Program Files\Microchip\xc8\v2.40\pic\sources\c99\common\doprnt.c: 655:     while (i
      +                           < m) {
  4736   0013AE  5187               	movf	efgtoa@m& (0+255),w,b
  4737   0013B0  5D91               	subwf	efgtoa@i& (0+255),w,b
  4738   0013B2  5192               	movf	(efgtoa@i+1)& (0+255),w,b
  4739   0013B4  0A80               	xorlw	128
  4740   0013B6  6F78               	movwf	??_efgtoa& (0+255),b
  4741   0013B8  5188               	movf	(efgtoa@m+1)& (0+255),w,b
  4742   0013BA  0A80               	xorlw	128
  4743   0013BC  5978               	subwfb	??_efgtoa& (0+255),w,b
  4744   0013BE  A0D8               	btfss	status,0,c
  4745   0013C0  EFE4  F009         	goto	u3491
  4746   0013C4  EFE6  F009         	goto	u3490
  4747   0013C8                     u3491:
  4748   0013C8  EF5C  F009         	goto	l3307
  4749   0013CC                     u3490:
  4750   0013CC                     
  4751                           ; BSR set to: 0
  4752                           ;C:\Program Files\Microchip\xc8\v2.40\pic\sources\c99\common\doprnt.c: 664:     l = u.f*
      +                          5.0;
  4753   0013CC  C0A2  F04B         	movff	efgtoa@u,___flmul@b
  4754   0013D0  C0A3  F04C         	movff	efgtoa@u+1,___flmul@b+1
  4755   0013D4  C0A4  F04D         	movff	efgtoa@u+2,___flmul@b+2
  4756   0013D8  C0A5  F04E         	movff	efgtoa@u+3,___flmul@b+3
  4757   0013DC  0E00               	movlw	0
  4758   0013DE  6E4F               	movwf	___flmul@a^0,c
  4759   0013E0  0E00               	movlw	0
  4760   0013E2  6E50               	movwf	(___flmul@a+1)^0,c
  4761   0013E4  0EA0               	movlw	160
  4762   0013E6  6E51               	movwf	(___flmul@a+2)^0,c
  4763   0013E8  0E40               	movlw	64
  4764   0013EA  6E52               	movwf	(___flmul@a+3)^0,c
  4765   0013EC  ECBA  F014         	call	___flmul	;wreg free
  4766   0013F0  C04B  F097         	movff	?___flmul,efgtoa@l
  4767   0013F4  C04C  F098         	movff	?___flmul+1,efgtoa@l+1
  4768   0013F8  C04D  F099         	movff	?___flmul+2,efgtoa@l+2
  4769   0013FC  C04E  F09A         	movff	?___flmul+3,efgtoa@l+3
  4770   001400                     
  4771                           ;C:\Program Files\Microchip\xc8\v2.40\pic\sources\c99\common\doprnt.c: 665:     if (h < 
      +                          l) {
  4772   001400  C093  F057         	movff	efgtoa@h,___flge@ff1
  4773   001404  C094  F058         	movff	efgtoa@h+1,___flge@ff1+1
  4774   001408  C095  F059         	movff	efgtoa@h+2,___flge@ff1+2
  4775   00140C  C096  F05A         	movff	efgtoa@h+3,___flge@ff1+3
  4776   001410  C097  F05B         	movff	efgtoa@l,___flge@ff2
  4777   001414  C098  F05C         	movff	efgtoa@l+1,___flge@ff2+1
  4778   001418  C099  F05D         	movff	efgtoa@l+2,___flge@ff2+2
  4779   00141C  C09A  F05E         	movff	efgtoa@l+3,___flge@ff2+3
  4780   001420  EC9E  F01C         	call	___flge	;wreg free
  4781   001424  B0D8               	btfsc	status,0,c
  4782   001426  EF17  F00A         	goto	u3501
  4783   00142A  EF19  F00A         	goto	u3500
  4784   00142E                     u3501:
  4785   00142E  EF24  F00A         	goto	l3323
  4786   001432                     u3500:
  4787   001432                     
  4788                           ;C:\Program Files\Microchip\xc8\v2.40\pic\sources\c99\common\doprnt.c: 666:         l = 
      +                          0.0;
  4789   001432  0E00               	movlw	0
  4790   001434  0100               	movlb	0	; () banked
  4791   001436  6F97               	movwf	efgtoa@l& (0+255),b
  4792   001438  0E00               	movlw	0
  4793   00143A  6F98               	movwf	(efgtoa@l+1)& (0+255),b
  4794   00143C  0E00               	movlw	0
  4795   00143E  6F99               	movwf	(efgtoa@l+2)& (0+255),b
  4796   001440  0E00               	movlw	0
  4797   001442  6F9A               	movwf	(efgtoa@l+3)& (0+255),b
  4798                           
  4799                           ;C:\Program Files\Microchip\xc8\v2.40\pic\sources\c99\common\doprnt.c: 667:     } else {
  4800   001444  EF4D  F00A         	goto	l3329
  4801   001448                     l3323:
  4802                           
  4803                           ;C:\Program Files\Microchip\xc8\v2.40\pic\sources\c99\common\doprnt.c: 669:         if (
      +                          (h == l) && !(d % 2)) {
  4804   001448  C093  F001         	movff	efgtoa@h,___fleq@ff1
  4805   00144C  C094  F002         	movff	efgtoa@h+1,___fleq@ff1+1
  4806   001450  C095  F003         	movff	efgtoa@h+2,___fleq@ff1+2
  4807   001454  C096  F004         	movff	efgtoa@h+3,___fleq@ff1+3
  4808   001458  C097  F005         	movff	efgtoa@l,___fleq@ff2
  4809   00145C  C098  F006         	movff	efgtoa@l+1,___fleq@ff2+1
  4810   001460  C099  F007         	movff	efgtoa@l+2,___fleq@ff2+2
  4811   001464  C09A  F008         	movff	efgtoa@l+3,___fleq@ff2+3
  4812   001468  ECE1  F01E         	call	___fleq	;wreg free
  4813   00146C  A0D8               	btfss	status,0,c
  4814   00146E  EF3B  F00A         	goto	u3511
  4815   001472  EF3D  F00A         	goto	u3510
  4816   001476                     u3511:
  4817   001476  EF4D  F00A         	goto	l3329
  4818   00147A                     u3510:
  4819   00147A  0100               	movlb	0	; () banked
  4820   00147C  B185               	btfsc	efgtoa@d& (0+255),0,b
  4821   00147E  EF43  F00A         	goto	u3521
  4822   001482  EF45  F00A         	goto	u3520
  4823   001486                     u3521:
  4824   001486  EF4D  F00A         	goto	l3329
  4825   00148A                     u3520:
  4826   00148A                     
  4827                           ; BSR set to: 0
  4828                           ;C:\Program Files\Microchip\xc8\v2.40\pic\sources\c99\common\doprnt.c: 670:             
      +                          l = 0.0;
  4829   00148A  0E00               	movlw	0
  4830   00148C  6F97               	movwf	efgtoa@l& (0+255),b
  4831   00148E  0E00               	movlw	0
  4832   001490  6F98               	movwf	(efgtoa@l+1)& (0+255),b
  4833   001492  0E00               	movlw	0
  4834   001494  6F99               	movwf	(efgtoa@l+2)& (0+255),b
  4835   001496  0E00               	movlw	0
  4836   001498  6F9A               	movwf	(efgtoa@l+3)& (0+255),b
  4837   00149A                     l3329:
  4838                           
  4839                           ;C:\Program Files\Microchip\xc8\v2.40\pic\sources\c99\common\doprnt.c: 675:     h = g.f 
      +                          + l;
  4840   00149A  C09E  F01A         	movff	efgtoa@g,___fladd@b
  4841   00149E  C09F  F01B         	movff	efgtoa@g+1,___fladd@b+1
  4842   0014A2  C0A0  F01C         	movff	efgtoa@g+2,___fladd@b+2
  4843   0014A6  C0A1  F01D         	movff	efgtoa@g+3,___fladd@b+3
  4844   0014AA  C097  F01E         	movff	efgtoa@l,___fladd@a
  4845   0014AE  C098  F01F         	movff	efgtoa@l+1,___fladd@a+1
  4846   0014B2  C099  F020         	movff	efgtoa@l+2,___fladd@a+2
  4847   0014B6  C09A  F021         	movff	efgtoa@l+3,___fladd@a+3
  4848   0014BA  EC5A  F012         	call	___fladd	;wreg free
  4849   0014BE  C01A  F093         	movff	?___fladd,efgtoa@h
  4850   0014C2  C01B  F094         	movff	?___fladd+1,efgtoa@h+1
  4851   0014C6  C01C  F095         	movff	?___fladd+2,efgtoa@h+2
  4852   0014CA  C01D  F096         	movff	?___fladd+3,efgtoa@h+3
  4853   0014CE                     
  4854                           ;C:\Program Files\Microchip\xc8\v2.40\pic\sources\c99\common\doprnt.c: 677:  if (h >= (o
      +                          u.f*10.0)) {
  4855   0014CE  C093  F057         	movff	efgtoa@h,___flge@ff1
  4856   0014D2  C094  F058         	movff	efgtoa@h+1,___flge@ff1+1
  4857   0014D6  C095  F059         	movff	efgtoa@h+2,___flge@ff1+2
  4858   0014DA  C096  F05A         	movff	efgtoa@h+3,___flge@ff1+3
  4859   0014DE  0E00               	movlw	0
  4860   0014E0  6E4F               	movwf	___flmul@a^0,c
  4861   0014E2  0E00               	movlw	0
  4862   0014E4  6E50               	movwf	(___flmul@a+1)^0,c
  4863   0014E6  0E20               	movlw	32
  4864   0014E8  6E51               	movwf	(___flmul@a+2)^0,c
  4865   0014EA  0E41               	movlw	65
  4866   0014EC  6E52               	movwf	(___flmul@a+3)^0,c
  4867   0014EE  C08D  F04B         	movff	efgtoa@ou,___flmul@b
  4868   0014F2  C08E  F04C         	movff	efgtoa@ou+1,___flmul@b+1
  4869   0014F6  C08F  F04D         	movff	efgtoa@ou+2,___flmul@b+2
  4870   0014FA  C090  F04E         	movff	efgtoa@ou+3,___flmul@b+3
  4871   0014FE  ECBA  F014         	call	___flmul	;wreg free
  4872   001502  C04B  F05B         	movff	?___flmul,___flge@ff2
  4873   001506  C04C  F05C         	movff	?___flmul+1,___flge@ff2+1
  4874   00150A  C04D  F05D         	movff	?___flmul+2,___flge@ff2+2
  4875   00150E  C04E  F05E         	movff	?___flmul+3,___flge@ff2+3
  4876   001512  EC9E  F01C         	call	___flge	;wreg free
  4877   001516  A0D8               	btfss	status,0,c
  4878   001518  EF90  F00A         	goto	u3531
  4879   00151C  EF92  F00A         	goto	u3530
  4880   001520                     u3531:
  4881   001520  EFBB  F00A         	goto	l3341
  4882   001524                     u3530:
  4883   001524                     
  4884                           ;C:\Program Files\Microchip\xc8\v2.40\pic\sources\c99\common\doprnt.c: 678:   e++;
  4885   001524  0100               	movlb	0	; () banked
  4886   001526  4B89               	infsnz	efgtoa@e& (0+255),f,b
  4887   001528  2B8A               	incf	(efgtoa@e+1)& (0+255),f,b
  4888   00152A                     
  4889                           ; BSR set to: 0
  4890                           ;C:\Program Files\Microchip\xc8\v2.40\pic\sources\c99\common\doprnt.c: 679:   ou.f *= 10
      +                          .0;
  4891   00152A  C08D  F04B         	movff	efgtoa@ou,___flmul@b
  4892   00152E  C08E  F04C         	movff	efgtoa@ou+1,___flmul@b+1
  4893   001532  C08F  F04D         	movff	efgtoa@ou+2,___flmul@b+2
  4894   001536  C090  F04E         	movff	efgtoa@ou+3,___flmul@b+3
  4895   00153A  0E00               	movlw	0
  4896   00153C  6E4F               	movwf	___flmul@a^0,c
  4897   00153E  0E00               	movlw	0
  4898   001540  6E50               	movwf	(___flmul@a+1)^0,c
  4899   001542  0E20               	movlw	32
  4900   001544  6E51               	movwf	(___flmul@a+2)^0,c
  4901   001546  0E41               	movlw	65
  4902   001548  6E52               	movwf	(___flmul@a+3)^0,c
  4903   00154A  ECBA  F014         	call	___flmul	;wreg free
  4904   00154E  C04B  F08D         	movff	?___flmul,efgtoa@ou
  4905   001552  C04C  F08E         	movff	?___flmul+1,efgtoa@ou+1
  4906   001556  C04D  F08F         	movff	?___flmul+2,efgtoa@ou+2
  4907   00155A  C04E  F090         	movff	?___flmul+3,efgtoa@ou+3
  4908   00155E                     
  4909                           ;C:\Program Files\Microchip\xc8\v2.40\pic\sources\c99\common\doprnt.c: 681:   if (nmode 
      +                          == 'f') {
  4910   00155E  0E66               	movlw	102
  4911   001560  0100               	movlb	0	; () banked
  4912   001562  1984               	xorwf	efgtoa@nmode& (0+255),w,b
  4913   001564  A4D8               	btfss	status,2,c
  4914   001566  EFB7  F00A         	goto	u3541
  4915   00156A  EFB9  F00A         	goto	u3540
  4916   00156E                     u3541:
  4917   00156E  EFBB  F00A         	goto	l3341
  4918   001572                     u3540:
  4919   001572                     
  4920                           ; BSR set to: 0
  4921                           ;C:\Program Files\Microchip\xc8\v2.40\pic\sources\c99\common\doprnt.c: 683:    m++;
  4922   001572  4B87               	infsnz	efgtoa@m& (0+255),f,b
  4923   001574  2B88               	incf	(efgtoa@m+1)& (0+255),f,b
  4924   001576                     l3341:
  4925                           
  4926                           ;C:\Program Files\Microchip\xc8\v2.40\pic\sources\c99\common\doprnt.c: 689:     u = ou;
  4927   001576  C08D  F0A2         	movff	efgtoa@ou,efgtoa@u
  4928   00157A  C08E  F0A3         	movff	efgtoa@ou+1,efgtoa@u+1
  4929   00157E  C08F  F0A4         	movff	efgtoa@ou+2,efgtoa@u+2
  4930   001582  C090  F0A5         	movff	efgtoa@ou+3,efgtoa@u+3
  4931   001586                     
  4932                           ;C:\Program Files\Microchip\xc8\v2.40\pic\sources\c99\common\doprnt.c: 693:  ne = e;
  4933   001586  C089  F07A         	movff	efgtoa@e,efgtoa@ne
  4934   00158A  C08A  F07B         	movff	efgtoa@e+1,efgtoa@ne+1
  4935   00158E                     
  4936                           ;C:\Program Files\Microchip\xc8\v2.40\pic\sources\c99\common\doprnt.c: 695:     pp = 0;
  4937   00158E  0E00               	movlw	0
  4938   001590  0100               	movlb	0	; () banked
  4939   001592  6F82               	movwf	efgtoa@pp& (0+255),b
  4940   001594                     
  4941                           ; BSR set to: 0
  4942                           ;C:\Program Files\Microchip\xc8\v2.40\pic\sources\c99\common\doprnt.c: 696:     t = 0;
  4943   001594  0E00               	movlw	0
  4944   001596  6F7F               	movwf	(efgtoa@t+1)& (0+255),b
  4945   001598  0E00               	movlw	0
  4946   00159A  6F7E               	movwf	efgtoa@t& (0+255),b
  4947   00159C                     
  4948                           ; BSR set to: 0
  4949                           ;C:\Program Files\Microchip\xc8\v2.40\pic\sources\c99\common\doprnt.c: 697:     i = 0;
  4950   00159C  0E00               	movlw	0
  4951   00159E  6F92               	movwf	(efgtoa@i+1)& (0+255),b
  4952   0015A0  0E00               	movlw	0
  4953   0015A2  6F91               	movwf	efgtoa@i& (0+255),b
  4954                           
  4955                           ;C:\Program Files\Microchip\xc8\v2.40\pic\sources\c99\common\doprnt.c: 698:     while ((
      +                          i < m) && (n < (80 - 5))) {
  4956   0015A4  EFB9  F00B         	goto	l3391
  4957   0015A8                     l3351:
  4958                           
  4959                           ; BSR set to: 0
  4960                           ;C:\Program Files\Microchip\xc8\v2.40\pic\sources\c99\common\doprnt.c: 699:         l = 
      +                          floorf(h/u.f);
  4961   0015A8  C093  F032         	movff	efgtoa@h,___fldiv@b
  4962   0015AC  C094  F033         	movff	efgtoa@h+1,___fldiv@b+1
  4963   0015B0  C095  F034         	movff	efgtoa@h+2,___fldiv@b+2
  4964   0015B4  C096  F035         	movff	efgtoa@h+3,___fldiv@b+3
  4965   0015B8  C0A2  F036         	movff	efgtoa@u,___fldiv@a
  4966   0015BC  C0A3  F037         	movff	efgtoa@u+1,___fldiv@a+1
  4967   0015C0  C0A4  F038         	movff	efgtoa@u+2,___fldiv@a+2
  4968   0015C4  C0A5  F039         	movff	efgtoa@u+3,___fldiv@a+3
  4969   0015C8  ECD0  F016         	call	___fldiv	;wreg free
  4970   0015CC  C032  F04B         	movff	?___fldiv,floorf@x
  4971   0015D0  C033  F04C         	movff	?___fldiv+1,floorf@x+1
  4972   0015D4  C034  F04D         	movff	?___fldiv+2,floorf@x+2
  4973   0015D8  C035  F04E         	movff	?___fldiv+3,floorf@x+3
  4974   0015DC  ECB5  F019         	call	_floorf	;wreg free
  4975   0015E0  C04B  F097         	movff	?_floorf,efgtoa@l
  4976   0015E4  C04C  F098         	movff	?_floorf+1,efgtoa@l+1
  4977   0015E8  C04D  F099         	movff	?_floorf+2,efgtoa@l+2
  4978   0015EC  C04E  F09A         	movff	?_floorf+3,efgtoa@l+3
  4979                           
  4980                           ;C:\Program Files\Microchip\xc8\v2.40\pic\sources\c99\common\doprnt.c: 700:         d = 
      +                          (int)l > 9 ? 9 : (int)l;
  4981   0015F0  C097  F001         	movff	efgtoa@l,___fltol@f1
  4982   0015F4  C098  F002         	movff	efgtoa@l+1,___fltol@f1+1
  4983   0015F8  C099  F003         	movff	efgtoa@l+2,___fltol@f1+2
  4984   0015FC  C09A  F004         	movff	efgtoa@l+3,___fltol@f1+3
  4985   001600  EC1B  F01C         	call	___fltol	;wreg free
  4986   001604  BE02               	btfsc	(?___fltol+1)^0,7,c
  4987   001606  EF10  F00B         	goto	u3550
  4988   00160A  5002               	movf	(?___fltol+1)^0,w,c
  4989   00160C  E107               	bnz	u3551
  4990   00160E  0E0A               	movlw	10
  4991   001610  5C01               	subwf	?___fltol^0,w,c
  4992   001612  B0D8               	btfsc	status,0,c
  4993   001614  EF0E  F00B         	goto	u3551
  4994   001618  EF10  F00B         	goto	u3550
  4995   00161C                     u3551:
  4996   00161C  EF20  F00B         	goto	l3355
  4997   001620                     u3550:
  4998   001620  C097  F001         	movff	efgtoa@l,___fltol@f1
  4999   001624  C098  F002         	movff	efgtoa@l+1,___fltol@f1+1
  5000   001628  C099  F003         	movff	efgtoa@l+2,___fltol@f1+2
  5001   00162C  C09A  F004         	movff	efgtoa@l+3,___fltol@f1+3
  5002   001630  EC1B  F01C         	call	___fltol	;wreg free
  5003   001634  C001  F085         	movff	?___fltol,efgtoa@d
  5004   001638  C002  F086         	movff	?___fltol+1,efgtoa@d+1
  5005   00163C  EF25  F00B         	goto	l997
  5006   001640                     l3355:
  5007   001640  0E00               	movlw	0
  5008   001642  0100               	movlb	0	; () banked
  5009   001644  6F86               	movwf	(efgtoa@d+1)& (0+255),b
  5010   001646  0E09               	movlw	9
  5011   001648  6F85               	movwf	efgtoa@d& (0+255),b
  5012   00164A                     l997:
  5013                           
  5014                           ;C:\Program Files\Microchip\xc8\v2.40\pic\sources\c99\common\doprnt.c: 711:   {;C:\Progr
      +                          am Files\Microchip\xc8\v2.40\pic\sources\c99\common\doprnt.c: 712:             if (!pp &
      +                          & (ne < 0)) {
  5015   00164A  0100               	movlb	0	; () banked
  5016   00164C  5182               	movf	efgtoa@pp& (0+255),w,b
  5017   00164E  A4D8               	btfss	status,2,c
  5018   001650  EF2C  F00B         	goto	u3561
  5019   001654  EF2E  F00B         	goto	u3560
  5020   001658                     u3561:
  5021   001658  EF56  F00B         	goto	l3375
  5022   00165C                     u3560:
  5023   00165C                     
  5024                           ; BSR set to: 0
  5025   00165C  BF7B               	btfsc	(efgtoa@ne+1)& (0+255),7,b
  5026   00165E  EF35  F00B         	goto	u3570
  5027   001662  EF33  F00B         	goto	u3571
  5028   001666                     u3571:
  5029   001666  EF56  F00B         	goto	l3375
  5030   00166A                     u3570:
  5031   00166A                     
  5032                           ; BSR set to: 0
  5033                           ;C:\Program Files\Microchip\xc8\v2.40\pic\sources\c99\common\doprnt.c: 713:             
      +                              dbuf[n++] = '.';
  5034   00166A  0E12               	movlw	low _dbuf
  5035   00166C  259C               	addwf	efgtoa@n& (0+255),w,b
  5036   00166E  6ED9               	movwf	fsr2l,c
  5037   001670  0E01               	movlw	high _dbuf
  5038   001672  219D               	addwfc	(efgtoa@n+1)& (0+255),w,b
  5039   001674  6EDA               	movwf	fsr2h,c
  5040   001676  0E2E               	movlw	46
  5041   001678  6EDF               	movwf	indf2,c
  5042   00167A                     
  5043                           ; BSR set to: 0
  5044   00167A  4B9C               	infsnz	efgtoa@n& (0+255),f,b
  5045   00167C  2B9D               	incf	(efgtoa@n+1)& (0+255),f,b
  5046   00167E                     
  5047                           ; BSR set to: 0
  5048                           ;C:\Program Files\Microchip\xc8\v2.40\pic\sources\c99\common\doprnt.c: 714:             
      +                              --w;
  5049   00167E  078B               	decf	efgtoa@w& (0+255),f,b
  5050   001680  A0D8               	btfss	status,0,c
  5051   001682  078C               	decf	(efgtoa@w+1)& (0+255),f,b
  5052   001684                     
  5053                           ; BSR set to: 0
  5054                           ;C:\Program Files\Microchip\xc8\v2.40\pic\sources\c99\common\doprnt.c: 715:             
      +                              pp = 1;
  5055   001684  0E01               	movlw	1
  5056   001686  6F82               	movwf	efgtoa@pp& (0+255),b
  5057   001688  EF56  F00B         	goto	l3375
  5058   00168C                     l3367:
  5059                           
  5060                           ; BSR set to: 0
  5061                           ;C:\Program Files\Microchip\xc8\v2.40\pic\sources\c99\common\doprnt.c: 718:             
      +                              dbuf[n++] = '0';
  5062   00168C  0E12               	movlw	low _dbuf
  5063   00168E  259C               	addwf	efgtoa@n& (0+255),w,b
  5064   001690  6ED9               	movwf	fsr2l,c
  5065   001692  0E01               	movlw	high _dbuf
  5066   001694  219D               	addwfc	(efgtoa@n+1)& (0+255),w,b
  5067   001696  6EDA               	movwf	fsr2h,c
  5068   001698  0E30               	movlw	48
  5069   00169A  6EDF               	movwf	indf2,c
  5070   00169C                     
  5071                           ; BSR set to: 0
  5072   00169C  4B9C               	infsnz	efgtoa@n& (0+255),f,b
  5073   00169E  2B9D               	incf	(efgtoa@n+1)& (0+255),f,b
  5074   0016A0                     
  5075                           ; BSR set to: 0
  5076                           ;C:\Program Files\Microchip\xc8\v2.40\pic\sources\c99\common\doprnt.c: 719:             
      +                              --w;
  5077   0016A0  078B               	decf	efgtoa@w& (0+255),f,b
  5078   0016A2  A0D8               	btfss	status,0,c
  5079   0016A4  078C               	decf	(efgtoa@w+1)& (0+255),f,b
  5080   0016A6                     
  5081                           ; BSR set to: 0
  5082                           ;C:\Program Files\Microchip\xc8\v2.40\pic\sources\c99\common\doprnt.c: 720:             
      +                              --t;
  5083   0016A6  077E               	decf	efgtoa@t& (0+255),f,b
  5084   0016A8  A0D8               	btfss	status,0,c
  5085   0016AA  077F               	decf	(efgtoa@t+1)& (0+255),f,b
  5086   0016AC                     l3375:
  5087                           
  5088                           ; BSR set to: 0
  5089                           ;C:\Program Files\Microchip\xc8\v2.40\pic\sources\c99\common\doprnt.c: 717:             
      +                          while (t) {
  5090   0016AC  517E               	movf	efgtoa@t& (0+255),w,b
  5091   0016AE  117F               	iorwf	(efgtoa@t+1)& (0+255),w,b
  5092   0016B0  A4D8               	btfss	status,2,c
  5093   0016B2  EF5D  F00B         	goto	u3581
  5094   0016B6  EF5F  F00B         	goto	u3580
  5095   0016BA                     u3581:
  5096   0016BA  EF46  F00B         	goto	l3367
  5097   0016BE                     u3580:
  5098   0016BE                     
  5099                           ; BSR set to: 0
  5100                           ;C:\Program Files\Microchip\xc8\v2.40\pic\sources\c99\common\doprnt.c: 722:             
      +                          dbuf[n++] = (char)((int)'0' + d);
  5101   0016BE  0E12               	movlw	low _dbuf
  5102   0016C0  259C               	addwf	efgtoa@n& (0+255),w,b
  5103   0016C2  6ED9               	movwf	fsr2l,c
  5104   0016C4  0E01               	movlw	high _dbuf
  5105   0016C6  219D               	addwfc	(efgtoa@n+1)& (0+255),w,b
  5106   0016C8  6EDA               	movwf	fsr2h,c
  5107   0016CA  5185               	movf	efgtoa@d& (0+255),w,b
  5108   0016CC  0F30               	addlw	48
  5109   0016CE  6EDF               	movwf	indf2,c
  5110   0016D0                     
  5111                           ; BSR set to: 0
  5112   0016D0  4B9C               	infsnz	efgtoa@n& (0+255),f,b
  5113   0016D2  2B9D               	incf	(efgtoa@n+1)& (0+255),f,b
  5114   0016D4                     
  5115                           ; BSR set to: 0
  5116                           ;C:\Program Files\Microchip\xc8\v2.40\pic\sources\c99\common\doprnt.c: 723:             
      +                          --w;
  5117   0016D4  078B               	decf	efgtoa@w& (0+255),f,b
  5118   0016D6  A0D8               	btfss	status,0,c
  5119   0016D8  078C               	decf	(efgtoa@w+1)& (0+255),f,b
  5120   0016DA                     
  5121                           ; BSR set to: 0
  5122                           ;C:\Program Files\Microchip\xc8\v2.40\pic\sources\c99\common\doprnt.c: 724:         };C:
      +                          \Program Files\Microchip\xc8\v2.40\pic\sources\c99\common\doprnt.c: 725:         h -= l*
      +                          u.f;
  5123   0016DA  C093  F02A         	movff	efgtoa@h,___flsub@b
  5124   0016DE  C094  F02B         	movff	efgtoa@h+1,___flsub@b+1
  5125   0016E2  C095  F02C         	movff	efgtoa@h+2,___flsub@b+2
  5126   0016E6  C096  F02D         	movff	efgtoa@h+3,___flsub@b+3
  5127   0016EA  C097  F04F         	movff	efgtoa@l,___flmul@a
  5128   0016EE  C098  F050         	movff	efgtoa@l+1,___flmul@a+1
  5129   0016F2  C099  F051         	movff	efgtoa@l+2,___flmul@a+2
  5130   0016F6  C09A  F052         	movff	efgtoa@l+3,___flmul@a+3
  5131   0016FA  C0A2  F04B         	movff	efgtoa@u,___flmul@b
  5132   0016FE  C0A3  F04C         	movff	efgtoa@u+1,___flmul@b+1
  5133   001702  C0A4  F04D         	movff	efgtoa@u+2,___flmul@b+2
  5134   001706  C0A5  F04E         	movff	efgtoa@u+3,___flmul@b+3
  5135   00170A  ECBA  F014         	call	___flmul	;wreg free
  5136   00170E  C04B  F02E         	movff	?___flmul,___flsub@a
  5137   001712  C04C  F02F         	movff	?___flmul+1,___flsub@a+1
  5138   001716  C04D  F030         	movff	?___flmul+2,___flsub@a+2
  5139   00171A  C04E  F031         	movff	?___flmul+3,___flsub@a+3
  5140   00171E  ECC2  F020         	call	___flsub	;wreg free
  5141   001722  C02A  F093         	movff	?___flsub,efgtoa@h
  5142   001726  C02B  F094         	movff	?___flsub+1,efgtoa@h+1
  5143   00172A  C02C  F095         	movff	?___flsub+2,efgtoa@h+2
  5144   00172E  C02D  F096         	movff	?___flsub+3,efgtoa@h+3
  5145   001732                     
  5146                           ;C:\Program Files\Microchip\xc8\v2.40\pic\sources\c99\common\doprnt.c: 726:         u.f 
      +                          = u.f/10.0;
  5147   001732  C0A2  F032         	movff	efgtoa@u,___fldiv@b
  5148   001736  C0A3  F033         	movff	efgtoa@u+1,___fldiv@b+1
  5149   00173A  C0A4  F034         	movff	efgtoa@u+2,___fldiv@b+2
  5150   00173E  C0A5  F035         	movff	efgtoa@u+3,___fldiv@b+3
  5151   001742  0E00               	movlw	0
  5152   001744  6E36               	movwf	___fldiv@a^0,c
  5153   001746  0E00               	movlw	0
  5154   001748  6E37               	movwf	(___fldiv@a+1)^0,c
  5155   00174A  0E20               	movlw	32
  5156   00174C  6E38               	movwf	(___fldiv@a+2)^0,c
  5157   00174E  0E41               	movlw	65
  5158   001750  6E39               	movwf	(___fldiv@a+3)^0,c
  5159   001752  ECD0  F016         	call	___fldiv	;wreg free
  5160   001756  C032  F0A2         	movff	?___fldiv,efgtoa@u
  5161   00175A  C033  F0A3         	movff	?___fldiv+1,efgtoa@u+1
  5162   00175E  C034  F0A4         	movff	?___fldiv+2,efgtoa@u+2
  5163   001762  C035  F0A5         	movff	?___fldiv+3,efgtoa@u+3
  5164   001766                     
  5165                           ;C:\Program Files\Microchip\xc8\v2.40\pic\sources\c99\common\doprnt.c: 727:         --ne
      +                          ;
  5166   001766  0100               	movlb	0	; () banked
  5167   001768  077A               	decf	efgtoa@ne& (0+255),f,b
  5168   00176A  A0D8               	btfss	status,0,c
  5169   00176C  077B               	decf	(efgtoa@ne+1)& (0+255),f,b
  5170   00176E                     
  5171                           ; BSR set to: 0
  5172                           ;C:\Program Files\Microchip\xc8\v2.40\pic\sources\c99\common\doprnt.c: 728:         ++i;
  5173   00176E  4B91               	infsnz	efgtoa@i& (0+255),f,b
  5174   001770  2B92               	incf	(efgtoa@i+1)& (0+255),f,b
  5175   001772                     l3391:
  5176                           
  5177                           ; BSR set to: 0
  5178                           ;C:\Program Files\Microchip\xc8\v2.40\pic\sources\c99\common\doprnt.c: 698:     while ((
      +                          i < m) && (n < (80 - 5))) {
  5179   001772  5187               	movf	efgtoa@m& (0+255),w,b
  5180   001774  5D91               	subwf	efgtoa@i& (0+255),w,b
  5181   001776  5192               	movf	(efgtoa@i+1)& (0+255),w,b
  5182   001778  0A80               	xorlw	128
  5183   00177A  6F78               	movwf	??_efgtoa& (0+255),b
  5184   00177C  5188               	movf	(efgtoa@m+1)& (0+255),w,b
  5185   00177E  0A80               	xorlw	128
  5186   001780  5978               	subwfb	??_efgtoa& (0+255),w,b
  5187   001782  B0D8               	btfsc	status,0,c
  5188   001784  EFC6  F00B         	goto	u3591
  5189   001788  EFC8  F00B         	goto	u3590
  5190   00178C                     u3591:
  5191   00178C  EFD6  F00B         	goto	l3395
  5192   001790                     u3590:
  5193   001790                     
  5194                           ; BSR set to: 0
  5195   001790  BF9D               	btfsc	(efgtoa@n+1)& (0+255),7,b
  5196   001792  EFD4  F00B         	goto	u3601
  5197   001796  519D               	movf	(efgtoa@n+1)& (0+255),w,b
  5198   001798  E109               	bnz	u3600
  5199   00179A  0E4B               	movlw	75
  5200   00179C  5D9C               	subwf	efgtoa@n& (0+255),w,b
  5201   00179E  A0D8               	btfss	status,0,c
  5202   0017A0  EFD4  F00B         	goto	u3601
  5203   0017A4  EFD6  F00B         	goto	u3600
  5204   0017A8                     u3601:
  5205   0017A8  EFD4  F00A         	goto	l3351
  5206   0017AC                     u3600:
  5207   0017AC                     l3395:
  5208                           
  5209                           ; BSR set to: 0
  5210                           ;C:\Program Files\Microchip\xc8\v2.40\pic\sources\c99\common\doprnt.c: 735:  i = sizeof(
      +                          dbuf) - 1;
  5211   0017AC  0E00               	movlw	0
  5212   0017AE  6F92               	movwf	(efgtoa@i+1)& (0+255),b
  5213   0017B0  0E4F               	movlw	79
  5214   0017B2  6F91               	movwf	efgtoa@i& (0+255),b
  5215   0017B4                     
  5216                           ; BSR set to: 0
  5217                           ;C:\Program Files\Microchip\xc8\v2.40\pic\sources\c99\common\doprnt.c: 736:     dbuf[i] 
      +                          = '\0';
  5218   0017B4  0E12               	movlw	low _dbuf
  5219   0017B6  2591               	addwf	efgtoa@i& (0+255),w,b
  5220   0017B8  6ED9               	movwf	fsr2l,c
  5221   0017BA  0E01               	movlw	high _dbuf
  5222   0017BC  2192               	addwfc	(efgtoa@i+1)& (0+255),w,b
  5223   0017BE  6EDA               	movwf	fsr2h,c
  5224   0017C0  0E00               	movlw	0
  5225   0017C2  6EDF               	movwf	indf2,c
  5226   0017C4                     
  5227                           ; BSR set to: 0
  5228                           ;C:\Program Files\Microchip\xc8\v2.40\pic\sources\c99\common\doprnt.c: 767:  memcpy(&dbu
      +                          f[i-n], &dbuf[0], (size_t)n);
  5229   0017C4  0E12               	movlw	low _dbuf
  5230   0017C6  6F78               	movwf	??_efgtoa& (0+255),b
  5231   0017C8  0E01               	movlw	high _dbuf
  5232   0017CA  6F79               	movwf	(??_efgtoa+1)& (0+255),b
  5233   0017CC  519C               	movf	efgtoa@n& (0+255),w,b
  5234   0017CE  5F78               	subwf	??_efgtoa& (0+255),f,b
  5235   0017D0  519D               	movf	(efgtoa@n+1)& (0+255),w,b
  5236   0017D2  5B79               	subwfb	(??_efgtoa+1)& (0+255),f,b
  5237   0017D4  5191               	movf	efgtoa@i& (0+255),w,b
  5238   0017D6  2578               	addwf	??_efgtoa& (0+255),w,b
  5239   0017D8  6E01               	movwf	memcpy@d1^0,c
  5240   0017DA  5192               	movf	(efgtoa@i+1)& (0+255),w,b
  5241   0017DC  2179               	addwfc	(??_efgtoa+1)& (0+255),w,b
  5242   0017DE  6E02               	movwf	(memcpy@d1+1)^0,c
  5243   0017E0  0E12               	movlw	low _dbuf
  5244   0017E2  6E03               	movwf	memcpy@s1^0,c
  5245   0017E4  0E01               	movlw	high _dbuf
  5246   0017E6  6E04               	movwf	(memcpy@s1+1)^0,c
  5247   0017E8  C09C  F005         	movff	efgtoa@n,memcpy@n
  5248   0017EC  C09D  F006         	movff	efgtoa@n+1,memcpy@n+1
  5249   0017F0  EC9A  F020         	call	_memcpy	;wreg free
  5250   0017F4                     
  5251                           ;C:\Program Files\Microchip\xc8\v2.40\pic\sources\c99\common\doprnt.c: 768:  n = i-n;
  5252   0017F4  0100               	movlb	0	; () banked
  5253   0017F6  519C               	movf	efgtoa@n& (0+255),w,b
  5254   0017F8  5D91               	subwf	efgtoa@i& (0+255),w,b
  5255   0017FA  6F9C               	movwf	efgtoa@n& (0+255),b
  5256   0017FC  519D               	movf	(efgtoa@n+1)& (0+255),w,b
  5257   0017FE  5992               	subwfb	(efgtoa@i+1)& (0+255),w,b
  5258   001800  6F9D               	movwf	(efgtoa@n+1)& (0+255),b
  5259   001802                     
  5260                           ; BSR set to: 0
  5261                           ;C:\Program Files\Microchip\xc8\v2.40\pic\sources\c99\common\doprnt.c: 769:  i = sign ==
      +                           0 ? 0 : 1;
  5262   001802  519B               	movf	efgtoa@sign& (0+255),w,b
  5263   001804  A4D8               	btfss	status,2,c
  5264   001806  EF07  F00C         	goto	u3611
  5265   00180A  EF0A  F00C         	goto	u3610
  5266   00180E                     u3611:
  5267   00180E  0E01               	movlw	1
  5268   001810  EF0B  F00C         	goto	u3620
  5269   001814                     u3610:
  5270   001814  0E00               	movlw	0
  5271   001816                     u3620:
  5272   001816  6F91               	movwf	efgtoa@i& (0+255),b
  5273   001818  6B92               	clrf	(efgtoa@i+1)& (0+255),b
  5274   00181A                     
  5275                           ; BSR set to: 0
  5276                           ;C:\Program Files\Microchip\xc8\v2.40\pic\sources\c99\common\doprnt.c: 780:  if (sign) {
  5277   00181A  519B               	movf	efgtoa@sign& (0+255),w,b
  5278   00181C  B4D8               	btfsc	status,2,c
  5279   00181E  EF13  F00C         	goto	u3631
  5280   001822  EF15  F00C         	goto	u3630
  5281   001826                     u3631:
  5282   001826  EF20  F00C         	goto	l3409
  5283   00182A                     u3630:
  5284   00182A                     
  5285                           ; BSR set to: 0
  5286                           ;C:\Program Files\Microchip\xc8\v2.40\pic\sources\c99\common\doprnt.c: 781:   dbuf[--n] 
      +                          = sign;
  5287   00182A  079C               	decf	efgtoa@n& (0+255),f,b
  5288   00182C  A0D8               	btfss	status,0,c
  5289   00182E  079D               	decf	(efgtoa@n+1)& (0+255),f,b
  5290   001830  0E12               	movlw	low _dbuf
  5291   001832  259C               	addwf	efgtoa@n& (0+255),w,b
  5292   001834  6ED9               	movwf	fsr2l,c
  5293   001836  0E01               	movlw	high _dbuf
  5294   001838  219D               	addwfc	(efgtoa@n+1)& (0+255),w,b
  5295   00183A  6EDA               	movwf	fsr2h,c
  5296   00183C  C09B  FFDF         	movff	efgtoa@sign,indf2
  5297   001840                     l3409:
  5298                           
  5299                           ; BSR set to: 0
  5300                           ;C:\Program Files\Microchip\xc8\v2.40\pic\sources\c99\common\doprnt.c: 783:  w -= i;
  5301   001840  5191               	movf	efgtoa@i& (0+255),w,b
  5302   001842  5F8B               	subwf	efgtoa@w& (0+255),f,b
  5303   001844  5192               	movf	(efgtoa@i+1)& (0+255),w,b
  5304   001846  5B8C               	subwfb	(efgtoa@w+1)& (0+255),f,b
  5305   001848                     
  5306                           ; BSR set to: 0
  5307                           ;C:\Program Files\Microchip\xc8\v2.40\pic\sources\c99\common\doprnt.c: 786:     return (
      +                          void) pad(fp, &dbuf[n], w);
  5308   001848  C071  F011         	movff	efgtoa@fp,pad@fp
  5309   00184C  C072  F012         	movff	efgtoa@fp+1,pad@fp+1
  5310   001850  0E12               	movlw	low _dbuf
  5311   001852  259C               	addwf	efgtoa@n& (0+255),w,b
  5312   001854  6E13               	movwf	pad@buf^0,c
  5313   001856  0E01               	movlw	high _dbuf
  5314   001858  219D               	addwfc	(efgtoa@n+1)& (0+255),w,b
  5315   00185A  6E14               	movwf	(pad@buf+1)^0,c
  5316   00185C  C08B  F015         	movff	efgtoa@w,pad@p
  5317   001860  C08C  F016         	movff	efgtoa@w+1,pad@p+1
  5318   001864  EC36  F01F         	call	_pad	;wreg free
  5319   001868                     l964:
  5320   001868  0012               	return		;funcret
  5321   00186A                     __end_of_efgtoa:
  5322                           	callstack 0
  5323                           
  5324 ;; *************** function _strcpy *****************
  5325 ;; Defined at:
  5326 ;;		line 3 in file "C:\Program Files\Microchip\xc8\v2.40\pic\sources\c99\common\strcpy.c"
  5327 ;; Parameters:    Size  Location     Type
  5328 ;;  dest            2    0[COMRAM] PTR unsigned char 
  5329 ;;		 -> dbuf(80), 
  5330 ;;  src             2    2[COMRAM] PTR const unsigned char 
  5331 ;;		 -> STR_14(4), STR_11(4), 
  5332 ;; Auto vars:     Size  Location     Type
  5333 ;;  d               2    6[COMRAM] PTR unsigned char 
  5334 ;;		 -> dbuf(80), 
  5335 ;;  s               2    4[COMRAM] PTR const unsigned char 
  5336 ;;		 -> STR_14(4), STR_11(4), 
  5337 ;; Return value:  Size  Location     Type
  5338 ;;                  2    0[COMRAM] PTR unsigned char 
  5339 ;; Registers used:
  5340 ;;		wreg, fsr2l, fsr2h, status,2, status,0, tblptrl, tblptrh, tblptru
  5341 ;; Tracked objects:
  5342 ;;		On entry : 0/0
  5343 ;;		On exit  : 0/0
  5344 ;;		Unchanged: 0/0
  5345 ;; Data sizes:     COMRAM   BANK0   BANK1   BANK2   BANK3   BANK4   BANK5   BANK6   BANK7   BANK8   BANK9  BANK10  BANK1
      +1  BANK12  BANK13
  5346 ;;      Params:         4       0       0       0       0       0       0       0       0       0       0       0       
      +0       0       0
  5347 ;;      Locals:         4       0       0       0       0       0       0       0       0       0       0       0       
      +0       0       0
  5348 ;;      Temps:          0       0       0       0       0       0       0       0       0       0       0       0       
      +0       0       0
  5349 ;;      Totals:         8       0       0       0       0       0       0       0       0       0       0       0       
      +0       0       0
  5350 ;;Total ram usage:        8 bytes
  5351 ;; Hardware stack levels used: 1
  5352 ;; This function calls:
  5353 ;;		Nothing
  5354 ;; This function is called by:
  5355 ;;		_efgtoa
  5356 ;; This function uses a non-reentrant model
  5357 ;;
  5358                           
  5359                           	psect	text23
  5360   0041CA                     __ptext23:
  5361                           	callstack 0
  5362   0041CA                     _strcpy:
  5363                           	callstack 25
  5364   0041CA  C003  F005         	movff	strcpy@src,strcpy@s
  5365   0041CE  C004  F006         	movff	strcpy@src+1,strcpy@s+1
  5366   0041D2  C001  F007         	movff	strcpy@dest,strcpy@d
  5367   0041D6  C002  F008         	movff	strcpy@dest+1,strcpy@d+1
  5368   0041DA                     l3147:
  5369   0041DA  C005  FFF6         	movff	strcpy@s,tblptrl
  5370   0041DE  C006  FFF7         	movff	strcpy@s+1,tblptrh
  5371   0041E2  4A05               	infsnz	strcpy@s^0,f,c
  5372   0041E4  2A06               	incf	(strcpy@s+1)^0,f,c
  5373   0041E6                     	if	0	;tblptru may be non-zero
  5374   0041E6                     	endif
  5375   0041E6                     	if	1	;Program memory is > 0xFFFF, there are 3 active tblptr bytes
  5376   0041E6  0E00               	movlw	low (__mediumconst shr (0+16))
  5377   0041E8  6EF8               	movwf	tblptru,c
  5378   0041EA                     	endif
  5379   0041EA  C007  FFD9         	movff	strcpy@d,fsr2l
  5380   0041EE  C008  FFDA         	movff	strcpy@d+1,fsr2h
  5381   0041F2  4A07               	infsnz	strcpy@d^0,f,c
  5382   0041F4  2A08               	incf	(strcpy@d+1)^0,f,c
  5383   0041F6  0008               	tblrd		*
  5384   0041F8  CFF5 FFDF          	movff	tablat,indf2
  5385   0041FC  50DF               	movf	indf2,w,c
  5386   0041FE  A4D8               	btfss	status,2,c
  5387   004200  EF04  F021         	goto	u3191
  5388   004204  EF06  F021         	goto	u3190
  5389   004208                     u3191:
  5390   004208  EFED  F020         	goto	l3147
  5391   00420C                     u3190:
  5392   00420C  0012               	return		;funcret
  5393   00420E                     __end_of_strcpy:
  5394                           	callstack 0
  5395                           
  5396 ;; *************** function _pad *****************
  5397 ;; Defined at:
  5398 ;;		line 133 in file "C:\Program Files\Microchip\xc8\v2.40\pic\sources\c99\common\doprnt.c"
  5399 ;; Parameters:    Size  Location     Type
  5400 ;;  fp              2   16[COMRAM] PTR struct _IO_FILE
  5401 ;;		 -> sprintf@f(11), 
  5402 ;;  buf             2   18[COMRAM] PTR unsigned char 
  5403 ;;		 -> dbuf(80), 
  5404 ;;  p               2   20[COMRAM] int 
  5405 ;; Auto vars:     Size  Location     Type
  5406 ;;  w               2   25[COMRAM] int 
  5407 ;;  i               2   23[COMRAM] int 
  5408 ;; Return value:  Size  Location     Type
  5409 ;;                  1    wreg      void 
  5410 ;; Registers used:
  5411 ;;		wreg, fsr1l, fsr1h, fsr2l, fsr2h, status,2, status,0, cstack
  5412 ;; Tracked objects:
  5413 ;;		On entry : 0/0
  5414 ;;		On exit  : 0/0
  5415 ;;		Unchanged: 0/0
  5416 ;; Data sizes:     COMRAM   BANK0   BANK1   BANK2   BANK3   BANK4   BANK5   BANK6   BANK7   BANK8   BANK9  BANK10  BANK1
      +1  BANK12  BANK13
  5417 ;;      Params:         6       0       0       0       0       0       0       0       0       0       0       0       
      +0       0       0
  5418 ;;      Locals:         4       0       0       0       0       0       0       0       0       0       0       0       
      +0       0       0
  5419 ;;      Temps:          1       0       0       0       0       0       0       0       0       0       0       0       
      +0       0       0
  5420 ;;      Totals:        11       0       0       0       0       0       0       0       0       0       0       0       
      +0       0       0
  5421 ;;Total ram usage:       11 bytes
  5422 ;; Hardware stack levels used: 1
  5423 ;; Hardware stack levels required when called: 3
  5424 ;; This function calls:
  5425 ;;		_fputc
  5426 ;;		_fputs
  5427 ;; This function is called by:
  5428 ;;		_efgtoa
  5429 ;; This function uses a non-reentrant model
  5430 ;;
  5431                           
  5432                           	psect	text24
  5433   003E6C                     __ptext24:
  5434                           	callstack 0
  5435   003E6C                     _pad:
  5436                           	callstack 22
  5437   003E6C                     
  5438                           ;C:\Program Files\Microchip\xc8\v2.40\pic\sources\c99\common\doprnt.c: 133: static void 
      +                          pad(FILE *fp, char *buf, int p);C:\Program Files\Microchip\xc8\v2.40\pic\sources\c99\com
      +                          mon\doprnt.c: 134: {;C:\Program Files\Microchip\xc8\v2.40\pic\sources\c99\common\doprnt.
      +                          c: 135:     int i, w;;C:\Program Files\Microchip\xc8\v2.40\pic\sources\c99\common\doprnt
      +                          .c: 145:     w = (p < 0) ? 0 : p;
  5439   003E6C  BE16               	btfsc	(pad@p+1)^0,7,c
  5440   003E6E  EF3B  F01F         	goto	u3101
  5441   003E72  EF3D  F01F         	goto	u3100
  5442   003E76                     u3101:
  5443   003E76  EF43  F01F         	goto	l3113
  5444   003E7A                     u3100:
  5445   003E7A  C015  F01A         	movff	pad@p,pad@w
  5446   003E7E  C016  F01B         	movff	pad@p+1,pad@w+1
  5447   003E82  EF47  F01F         	goto	l949
  5448   003E86                     l3113:
  5449   003E86  0E00               	movlw	0
  5450   003E88  6E1B               	movwf	(pad@w+1)^0,c
  5451   003E8A  0E00               	movlw	0
  5452   003E8C  6E1A               	movwf	pad@w^0,c
  5453   003E8E                     l949:
  5454                           
  5455                           ;C:\Program Files\Microchip\xc8\v2.40\pic\sources\c99\common\doprnt.c: 146:     i = 0;
  5456   003E8E  0E00               	movlw	0
  5457   003E90  6E19               	movwf	(pad@i+1)^0,c
  5458   003E92  0E00               	movlw	0
  5459   003E94  6E18               	movwf	pad@i^0,c
  5460                           
  5461                           ;C:\Program Files\Microchip\xc8\v2.40\pic\sources\c99\common\doprnt.c: 147:     while (i
      +                           < w) {
  5462   003E96  EF59  F01F         	goto	l3119
  5463   003E9A                     l3115:
  5464                           
  5465                           ;C:\Program Files\Microchip\xc8\v2.40\pic\sources\c99\common\doprnt.c: 148:         fput
      +                          c(' ', fp);
  5466   003E9A  0E00               	movlw	0
  5467   003E9C  6E02               	movwf	(fputc@c+1)^0,c
  5468   003E9E  0E20               	movlw	32
  5469   003EA0  6E01               	movwf	fputc@c^0,c
  5470   003EA2  C011  F003         	movff	pad@fp,fputc@fp
  5471   003EA6  C012  F004         	movff	pad@fp+1,fputc@fp+1
  5472   003EAA  EC20  F01E         	call	_fputc	;wreg free
  5473   003EAE                     
  5474                           ;C:\Program Files\Microchip\xc8\v2.40\pic\sources\c99\common\doprnt.c: 149:         ++i;
  5475   003EAE  4A18               	infsnz	pad@i^0,f,c
  5476   003EB0  2A19               	incf	(pad@i+1)^0,f,c
  5477   003EB2                     l3119:
  5478                           
  5479                           ;C:\Program Files\Microchip\xc8\v2.40\pic\sources\c99\common\doprnt.c: 147:     while (i
      +                           < w) {
  5480   003EB2  501A               	movf	pad@w^0,w,c
  5481   003EB4  5C18               	subwf	pad@i^0,w,c
  5482   003EB6  5019               	movf	(pad@i+1)^0,w,c
  5483   003EB8  0A80               	xorlw	128
  5484   003EBA  6E17               	movwf	??_pad^0,c
  5485   003EBC  501B               	movf	(pad@w+1)^0,w,c
  5486   003EBE  0A80               	xorlw	128
  5487   003EC0  5817               	subwfb	??_pad^0,w,c
  5488   003EC2  A0D8               	btfss	status,0,c
  5489   003EC4  EF66  F01F         	goto	u3111
  5490   003EC8  EF68  F01F         	goto	u3110
  5491   003ECC                     u3111:
  5492   003ECC  EF4D  F01F         	goto	l3115
  5493   003ED0                     u3110:
  5494   003ED0                     
  5495                           ;C:\Program Files\Microchip\xc8\v2.40\pic\sources\c99\common\doprnt.c: 156:         fput
      +                          s((const char *)buf, fp);
  5496   003ED0  C013  F00A         	movff	pad@buf,fputs@s
  5497   003ED4  C014  F00B         	movff	pad@buf+1,fputs@s+1
  5498   003ED8  C011  F00C         	movff	pad@fp,fputs@fp
  5499   003EDC  C012  F00D         	movff	pad@fp+1,fputs@fp+1
  5500   003EE0  EC07  F021         	call	_fputs	;wreg free
  5501   003EE4  0012               	return		;funcret
  5502   003EE6                     __end_of_pad:
  5503                           	callstack 0
  5504                           
  5505 ;; *************** function _fputs *****************
  5506 ;; Defined at:
  5507 ;;		line 8 in file "C:\Program Files\Microchip\xc8\v2.40\pic\sources\c99\common\nf_fputs.c"
  5508 ;; Parameters:    Size  Location     Type
  5509 ;;  s               2    9[COMRAM] PTR const unsigned char 
  5510 ;;		 -> dbuf(80), 
  5511 ;;  fp              2   11[COMRAM] PTR struct _IO_FILE
  5512 ;;		 -> sprintf@f(11), 
  5513 ;; Auto vars:     Size  Location     Type
  5514 ;;  i               2   14[COMRAM] int 
  5515 ;;  c               1   13[COMRAM] unsigned char 
  5516 ;; Return value:  Size  Location     Type
  5517 ;;                  2    9[COMRAM] int 
  5518 ;; Registers used:
  5519 ;;		wreg, fsr1l, fsr1h, fsr2l, fsr2h, status,2, status,0, cstack
  5520 ;; Tracked objects:
  5521 ;;		On entry : 0/0
  5522 ;;		On exit  : 0/0
  5523 ;;		Unchanged: 0/0
  5524 ;; Data sizes:     COMRAM   BANK0   BANK1   BANK2   BANK3   BANK4   BANK5   BANK6   BANK7   BANK8   BANK9  BANK10  BANK1
      +1  BANK12  BANK13
  5525 ;;      Params:         4       0       0       0       0       0       0       0       0       0       0       0       
      +0       0       0
  5526 ;;      Locals:         3       0       0       0       0       0       0       0       0       0       0       0       
      +0       0       0
  5527 ;;      Temps:          0       0       0       0       0       0       0       0       0       0       0       0       
      +0       0       0
  5528 ;;      Totals:         7       0       0       0       0       0       0       0       0       0       0       0       
      +0       0       0
  5529 ;;Total ram usage:        7 bytes
  5530 ;; Hardware stack levels used: 1
  5531 ;; Hardware stack levels required when called: 2
  5532 ;; This function calls:
  5533 ;;		_fputc
  5534 ;; This function is called by:
  5535 ;;		_pad
  5536 ;; This function uses a non-reentrant model
  5537 ;;
  5538                           
  5539                           	psect	text25
  5540   00420E                     __ptext25:
  5541                           	callstack 0
  5542   00420E                     _fputs:
  5543                           	callstack 22
  5544   00420E  0E00               	movlw	0
  5545   004210  6E10               	movwf	(fputs@i+1)^0,c
  5546   004212  0E00               	movlw	0
  5547   004214  6E0F               	movwf	fputs@i^0,c
  5548   004216  EF18  F021         	goto	l2743
  5549   00421A                     l2739:
  5550   00421A  C00E  F001         	movff	fputs@c,fputc@c
  5551   00421E  6A02               	clrf	(fputc@c+1)^0,c
  5552   004220  C00C  F003         	movff	fputs@fp,fputc@fp
  5553   004224  C00D  F004         	movff	fputs@fp+1,fputc@fp+1
  5554   004228  EC20  F01E         	call	_fputc	;wreg free
  5555   00422C  4A0F               	infsnz	fputs@i^0,f,c
  5556   00422E  2A10               	incf	(fputs@i+1)^0,f,c
  5557   004230                     l2743:
  5558   004230  500F               	movf	fputs@i^0,w,c
  5559   004232  240A               	addwf	fputs@s^0,w,c
  5560   004234  6ED9               	movwf	fsr2l,c
  5561   004236  5010               	movf	(fputs@i+1)^0,w,c
  5562   004238  200B               	addwfc	(fputs@s+1)^0,w,c
  5563   00423A  6EDA               	movwf	fsr2h,c
  5564   00423C  50DF               	movf	indf2,w,c
  5565   00423E  6E0E               	movwf	fputs@c^0,c
  5566   004240  500E               	movf	fputs@c^0,w,c
  5567   004242  A4D8               	btfss	status,2,c
  5568   004244  EF26  F021         	goto	u2511
  5569   004248  EF28  F021         	goto	u2510
  5570   00424C                     u2511:
  5571   00424C  EF0D  F021         	goto	l2739
  5572   004250                     u2510:
  5573   004250  0012               	return		;funcret
  5574   004252                     __end_of_fputs:
  5575                           	callstack 0
  5576                           
  5577 ;; *************** function _fputc *****************
  5578 ;; Defined at:
  5579 ;;		line 8 in file "C:\Program Files\Microchip\xc8\v2.40\pic\sources\c99\common\nf_fputc.c"
  5580 ;; Parameters:    Size  Location     Type
  5581 ;;  c               2    0[COMRAM] int 
  5582 ;;  fp              2    2[COMRAM] PTR struct _IO_FILE
  5583 ;;		 -> sprintf@f(11), 
  5584 ;; Auto vars:     Size  Location     Type
  5585 ;;		None
  5586 ;; Return value:  Size  Location     Type
  5587 ;;                  2    0[COMRAM] int 
  5588 ;; Registers used:
  5589 ;;		wreg, fsr1l, fsr1h, fsr2l, fsr2h, status,2, status,0, cstack
  5590 ;; Tracked objects:
  5591 ;;		On entry : 0/0
  5592 ;;		On exit  : 0/0
  5593 ;;		Unchanged: 0/0
  5594 ;; Data sizes:     COMRAM   BANK0   BANK1   BANK2   BANK3   BANK4   BANK5   BANK6   BANK7   BANK8   BANK9  BANK10  BANK1
      +1  BANK12  BANK13
  5595 ;;      Params:         4       0       0       0       0       0       0       0       0       0       0       0       
      +0       0       0
  5596 ;;      Locals:         0       0       0       0       0       0       0       0       0       0       0       0       
      +0       0       0
  5597 ;;      Temps:          5       0       0       0       0       0       0       0       0       0       0       0       
      +0       0       0
  5598 ;;      Totals:         9       0       0       0       0       0       0       0       0       0       0       0       
      +0       0       0
  5599 ;;Total ram usage:        9 bytes
  5600 ;; Hardware stack levels used: 1
  5601 ;; Hardware stack levels required when called: 1
  5602 ;; This function calls:
  5603 ;;		_putch
  5604 ;; This function is called by:
  5605 ;;		_pad
  5606 ;;		_vfpfcnvrt
  5607 ;;		_fputs
  5608 ;; This function uses a non-reentrant model
  5609 ;;
  5610                           
  5611                           	psect	text26
  5612   003C40                     __ptext26:
  5613                           	callstack 0
  5614   003C40                     _fputc:
  5615                           	callstack 25
  5616   003C40  5003               	movf	fputc@fp^0,w,c
  5617   003C42  1004               	iorwf	(fputc@fp+1)^0,w,c
  5618   003C44  B4D8               	btfsc	status,2,c
  5619   003C46  EF27  F01E         	goto	u2081
  5620   003C4A  EF29  F01E         	goto	u2080
  5621   003C4E                     u2081:
  5622   003C4E  EF32  F01E         	goto	l2525
  5623   003C52                     u2080:
  5624   003C52  5003               	movf	fputc@fp^0,w,c
  5625   003C54  1004               	iorwf	(fputc@fp+1)^0,w,c
  5626   003C56  A4D8               	btfss	status,2,c
  5627   003C58  EF30  F01E         	goto	u2091
  5628   003C5C  EF32  F01E         	goto	u2090
  5629   003C60                     u2091:
  5630   003C60  EF37  F01E         	goto	l2527
  5631   003C64                     u2090:
  5632   003C64                     l2525:
  5633   003C64  5001               	movf	fputc@c^0,w,c
  5634   003C66  EC48  F022         	call	_putch
  5635   003C6A  EF84  F01E         	goto	l1080
  5636   003C6E                     l2527:
  5637   003C6E  EE20 F009          	lfsr	2,9
  5638   003C72  5003               	movf	fputc@fp^0,w,c
  5639   003C74  26D9               	addwf	fsr2l,f,c
  5640   003C76  5004               	movf	(fputc@fp+1)^0,w,c
  5641   003C78  22DA               	addwfc	fsr2h,f,c
  5642   003C7A  50DE               	movf	postinc2,w,c
  5643   003C7C  10DE               	iorwf	postinc2,w,c
  5644   003C7E  B4D8               	btfsc	status,2,c
  5645   003C80  EF44  F01E         	goto	u2101
  5646   003C84  EF46  F01E         	goto	u2100
  5647   003C88                     u2101:
  5648   003C88  EF61  F01E         	goto	l2531
  5649   003C8C                     u2100:
  5650   003C8C  EE20 F009          	lfsr	2,9
  5651   003C90  5003               	movf	fputc@fp^0,w,c
  5652   003C92  26D9               	addwf	fsr2l,f,c
  5653   003C94  5004               	movf	(fputc@fp+1)^0,w,c
  5654   003C96  22DA               	addwfc	fsr2h,f,c
  5655   003C98  EE10 F003          	lfsr	1,3
  5656   003C9C  5003               	movf	fputc@fp^0,w,c
  5657   003C9E  26E1               	addwf	fsr1l,f,c
  5658   003CA0  5004               	movf	(fputc@fp+1)^0,w,c
  5659   003CA2  22E2               	addwfc	fsr1h,f,c
  5660   003CA4  50DE               	movf	postinc2,w,c
  5661   003CA6  5CE6               	subwf	postinc1,w,c
  5662   003CA8  50E6               	movf	postinc1,w,c
  5663   003CAA  0A80               	xorlw	128
  5664   003CAC  6E09               	movwf	(??_fputc+4)^0,c
  5665   003CAE  50DE               	movf	postinc2,w,c
  5666   003CB0  0A80               	xorlw	128
  5667   003CB2  5809               	subwfb	(??_fputc+4)^0,w,c
  5668   003CB4  B0D8               	btfsc	status,0,c
  5669   003CB6  EF5F  F01E         	goto	u2111
  5670   003CBA  EF61  F01E         	goto	u2110
  5671   003CBE                     u2111:
  5672   003CBE  EF84  F01E         	goto	l1080
  5673   003CC2                     u2110:
  5674   003CC2                     l2531:
  5675   003CC2  EE20 F003          	lfsr	2,3
  5676   003CC6  5003               	movf	fputc@fp^0,w,c
  5677   003CC8  26D9               	addwf	fsr2l,f,c
  5678   003CCA  5004               	movf	(fputc@fp+1)^0,w,c
  5679   003CCC  22DA               	addwfc	fsr2h,f,c
  5680   003CCE  CFDE F005          	movff	postinc2,??_fputc
  5681   003CD2  CFDD F006          	movff	postdec2,??_fputc+1
  5682   003CD6  C003  FFD9         	movff	fputc@fp,fsr2l
  5683   003CDA  C004  FFDA         	movff	fputc@fp+1,fsr2h
  5684   003CDE  CFDE F007          	movff	postinc2,??_fputc+2
  5685   003CE2  CFDD F008          	movff	postdec2,??_fputc+3
  5686   003CE6  5005               	movf	??_fputc^0,w,c
  5687   003CE8  2407               	addwf	(??_fputc+2)^0,w,c
  5688   003CEA  6ED9               	movwf	fsr2l,c
  5689   003CEC  5006               	movf	(??_fputc+1)^0,w,c
  5690   003CEE  2008               	addwfc	(??_fputc+3)^0,w,c
  5691   003CF0  6EDA               	movwf	fsr2h,c
  5692   003CF2  C001  FFDF         	movff	fputc@c,indf2
  5693   003CF6  EE20 F003          	lfsr	2,3
  5694   003CFA  5003               	movf	fputc@fp^0,w,c
  5695   003CFC  26D9               	addwf	fsr2l,f,c
  5696   003CFE  5004               	movf	(fputc@fp+1)^0,w,c
  5697   003D00  22DA               	addwfc	fsr2h,f,c
  5698   003D02  2ADE               	incf	postinc2,f,c
  5699   003D04  0E00               	movlw	0
  5700   003D06  22DD               	addwfc	postdec2,f,c
  5701   003D08                     l1080:
  5702   003D08  0012               	return		;funcret
  5703   003D0A                     __end_of_fputc:
  5704                           	callstack 0
  5705                           
  5706 ;; *************** function _putch *****************
  5707 ;; Defined at:
  5708 ;;		line 7 in file "C:\Program Files\Microchip\xc8\v2.40\pic\sources\c99\common\putch.c"
  5709 ;; Parameters:    Size  Location     Type
  5710 ;;  c               1    wreg     unsigned char 
  5711 ;; Auto vars:     Size  Location     Type
  5712 ;;  c               1    0[COMRAM] unsigned char 
  5713 ;; Return value:  Size  Location     Type
  5714 ;;                  1    wreg      void 
  5715 ;; Registers used:
  5716 ;;		wreg
  5717 ;; Tracked objects:
  5718 ;;		On entry : 0/0
  5719 ;;		On exit  : 0/0
  5720 ;;		Unchanged: 0/0
  5721 ;; Data sizes:     COMRAM   BANK0   BANK1   BANK2   BANK3   BANK4   BANK5   BANK6   BANK7   BANK8   BANK9  BANK10  BANK1
      +1  BANK12  BANK13
  5722 ;;      Params:         0       0       0       0       0       0       0       0       0       0       0       0       
      +0       0       0
  5723 ;;      Locals:         0       0       0       0       0       0       0       0       0       0       0       0       
      +0       0       0
  5724 ;;      Temps:          0       0       0       0       0       0       0       0       0       0       0       0       
      +0       0       0
  5725 ;;      Totals:         0       0       0       0       0       0       0       0       0       0       0       0       
      +0       0       0
  5726 ;;Total ram usage:        0 bytes
  5727 ;; Hardware stack levels used: 1
  5728 ;; This function calls:
  5729 ;;		Nothing
  5730 ;; This function is called by:
  5731 ;;		_fputc
  5732 ;; This function uses a non-reentrant model
  5733 ;;
  5734                           
  5735                           	psect	text27
  5736   004490                     __ptext27:
  5737                           	callstack 0
  5738   004490                     _putch:
  5739                           	callstack 25
  5740   004490  0012               	return		;funcret
  5741   004492                     __end_of_putch:
  5742                           	callstack 0
  5743                           
  5744 ;; *************** function _memcpy *****************
  5745 ;; Defined at:
  5746 ;;		line 4 in file "C:\Program Files\Microchip\xc8\v2.40\pic\sources\c99\common\memcpy.c"
  5747 ;; Parameters:    Size  Location     Type
  5748 ;;  d1              2    0[COMRAM] PTR void 
  5749 ;;		 -> dbuf(80), 
  5750 ;;  s1              2    2[COMRAM] PTR const void 
  5751 ;;		 -> dbuf(80), 
  5752 ;;  n               2    4[COMRAM] unsigned int 
  5753 ;; Auto vars:     Size  Location     Type
  5754 ;;  s               2    8[COMRAM] PTR const unsigned char 
  5755 ;;		 -> dbuf(80), 
  5756 ;;  d               2    6[COMRAM] PTR unsigned char 
  5757 ;;		 -> dbuf(80), 
  5758 ;;  tmp             1   10[COMRAM] unsigned char 
  5759 ;; Return value:  Size  Location     Type
  5760 ;;                  2    0[COMRAM] PTR void 
  5761 ;; Registers used:
  5762 ;;		wreg, fsr2l, fsr2h, status,2, status,0
  5763 ;; Tracked objects:
  5764 ;;		On entry : 0/0
  5765 ;;		On exit  : 0/0
  5766 ;;		Unchanged: 0/0
  5767 ;; Data sizes:     COMRAM   BANK0   BANK1   BANK2   BANK3   BANK4   BANK5   BANK6   BANK7   BANK8   BANK9  BANK10  BANK1
      +1  BANK12  BANK13
  5768 ;;      Params:         6       0       0       0       0       0       0       0       0       0       0       0       
      +0       0       0
  5769 ;;      Locals:         5       0       0       0       0       0       0       0       0       0       0       0       
      +0       0       0
  5770 ;;      Temps:          0       0       0       0       0       0       0       0       0       0       0       0       
      +0       0       0
  5771 ;;      Totals:        11       0       0       0       0       0       0       0       0       0       0       0       
      +0       0       0
  5772 ;;Total ram usage:       11 bytes
  5773 ;; Hardware stack levels used: 1
  5774 ;; This function calls:
  5775 ;;		Nothing
  5776 ;; This function is called by:
  5777 ;;		_efgtoa
  5778 ;; This function uses a non-reentrant model
  5779 ;;
  5780                           
  5781                           	psect	text28
  5782   004134                     __ptext28:
  5783                           	callstack 0
  5784   004134                     _memcpy:
  5785                           	callstack 25
  5786   004134  C003  F009         	movff	memcpy@s1,memcpy@s
  5787   004138  C004  F00A         	movff	memcpy@s1+1,memcpy@s+1
  5788   00413C  C001  F007         	movff	memcpy@d1,memcpy@d
  5789   004140  C002  F008         	movff	memcpy@d1+1,memcpy@d+1
  5790   004144  EFB4  F020         	goto	l3191
  5791   004148                     l3183:
  5792   004148  C009  FFD9         	movff	memcpy@s,fsr2l
  5793   00414C  C00A  FFDA         	movff	memcpy@s+1,fsr2h
  5794   004150  50DF               	movf	indf2,w,c
  5795   004152  6E0B               	movwf	memcpy@tmp^0,c
  5796   004154  4A09               	infsnz	memcpy@s^0,f,c
  5797   004156  2A0A               	incf	(memcpy@s+1)^0,f,c
  5798   004158  C007  FFD9         	movff	memcpy@d,fsr2l
  5799   00415C  C008  FFDA         	movff	memcpy@d+1,fsr2h
  5800   004160  C00B  FFDF         	movff	memcpy@tmp,indf2
  5801   004164  4A07               	infsnz	memcpy@d^0,f,c
  5802   004166  2A08               	incf	(memcpy@d+1)^0,f,c
  5803   004168                     l3191:
  5804   004168  0605               	decf	memcpy@n^0,f,c
  5805   00416A  A0D8               	btfss	status,0,c
  5806   00416C  0606               	decf	(memcpy@n+1)^0,f,c
  5807   00416E  2805               	incf	memcpy@n^0,w,c
  5808   004170  E106               	bnz	u3311
  5809   004172  2806               	incf	(memcpy@n+1)^0,w,c
  5810   004174  A4D8               	btfss	status,2,c
  5811   004176  EFBF  F020         	goto	u3311
  5812   00417A  EFC1  F020         	goto	u3310
  5813   00417E                     u3311:
  5814   00417E  EFA4  F020         	goto	l3183
  5815   004182                     u3310:
  5816   004182  0012               	return		;funcret
  5817   004184                     __end_of_memcpy:
  5818                           	callstack 0
  5819                           
  5820 ;; *************** function _labs *****************
  5821 ;; Defined at:
  5822 ;;		line 1 in file "C:\Program Files\Microchip\xc8\v2.40\pic\sources\c99\common\labs.c"
  5823 ;; Parameters:    Size  Location     Type
  5824 ;;  a               4    0[COMRAM] long 
  5825 ;; Auto vars:     Size  Location     Type
  5826 ;;		None
  5827 ;; Return value:  Size  Location     Type
  5828 ;;                  4    0[COMRAM] long 
  5829 ;; Registers used:
  5830 ;;		wreg, status,2, status,0
  5831 ;; Tracked objects:
  5832 ;;		On entry : 0/0
  5833 ;;		On exit  : 0/0
  5834 ;;		Unchanged: 0/0
  5835 ;; Data sizes:     COMRAM   BANK0   BANK1   BANK2   BANK3   BANK4   BANK5   BANK6   BANK7   BANK8   BANK9  BANK10  BANK1
      +1  BANK12  BANK13
  5836 ;;      Params:         4       0       0       0       0       0       0       0       0       0       0       0       
      +0       0       0
  5837 ;;      Locals:         0       0       0       0       0       0       0       0       0       0       0       0       
      +0       0       0
  5838 ;;      Temps:          4       0       0       0       0       0       0       0       0       0       0       0       
      +0       0       0
  5839 ;;      Totals:         8       0       0       0       0       0       0       0       0       0       0       0       
      +0       0       0
  5840 ;;Total ram usage:        8 bytes
  5841 ;; Hardware stack levels used: 1
  5842 ;; This function calls:
  5843 ;;		Nothing
  5844 ;; This function is called by:
  5845 ;;		_efgtoa
  5846 ;; This function uses a non-reentrant model
  5847 ;;
  5848                           
  5849                           	psect	text29
  5850   003EE6                     __ptext29:
  5851                           	callstack 0
  5852   003EE6                     _labs:
  5853                           	callstack 25
  5854   003EE6  BE04               	btfsc	(labs@a+3)^0,7,c
  5855   003EE8  EF82  F01F         	goto	u3200
  5856   003EEC  5004               	movf	(labs@a+3)^0,w,c
  5857   003EEE  1003               	iorwf	(labs@a+2)^0,w,c
  5858   003EF0  1002               	iorwf	(labs@a+1)^0,w,c
  5859   003EF2  E106               	bnz	u3201
  5860   003EF4  0401               	decf	labs@a^0,w,c
  5861   003EF6  B0D8               	btfsc	status,0,c
  5862   003EF8  EF80  F01F         	goto	u3201
  5863   003EFC  EF82  F01F         	goto	u3200
  5864   003F00                     u3201:
  5865   003F00  EF9D  F01F         	goto	l1059
  5866   003F04                     u3200:
  5867   003F04  C001  F005         	movff	labs@a,??_labs
  5868   003F08  C002  F006         	movff	labs@a+1,??_labs+1
  5869   003F0C  C003  F007         	movff	labs@a+2,??_labs+2
  5870   003F10  C004  F008         	movff	labs@a+3,??_labs+3
  5871   003F14  1E05               	comf	??_labs^0,f,c
  5872   003F16  1E06               	comf	(??_labs+1)^0,f,c
  5873   003F18  1E07               	comf	(??_labs+2)^0,f,c
  5874   003F1A  1E08               	comf	(??_labs+3)^0,f,c
  5875   003F1C  2A05               	incf	??_labs^0,f,c
  5876   003F1E  0E00               	movlw	0
  5877   003F20  2206               	addwfc	(??_labs+1)^0,f,c
  5878   003F22  2207               	addwfc	(??_labs+2)^0,f,c
  5879   003F24  2208               	addwfc	(??_labs+3)^0,f,c
  5880   003F26  C005  F001         	movff	??_labs,?_labs
  5881   003F2A  C006  F002         	movff	??_labs+1,?_labs+1
  5882   003F2E  C007  F003         	movff	??_labs+2,?_labs+2
  5883   003F32  C008  F004         	movff	??_labs+3,?_labs+3
  5884   003F36  EFA5  F01F         	goto	l1062
  5885   003F3A                     l1059:
  5886   003F3A  C001  F001         	movff	labs@a,?_labs
  5887   003F3E  C002  F002         	movff	labs@a+1,?_labs+1
  5888   003F42  C003  F003         	movff	labs@a+2,?_labs+2
  5889   003F46  C004  F004         	movff	labs@a+3,?_labs+3
  5890   003F4A                     l1062:
  5891   003F4A  0012               	return		;funcret
  5892   003F4C                     __end_of_labs:
  5893                           	callstack 0
  5894                           
  5895 ;; *************** function _floorf *****************
  5896 ;; Defined at:
  5897 ;;		line 3 in file "C:\Program Files\Microchip\xc8\v2.40\pic\sources\c99\common\floorf.c"
  5898 ;; Parameters:    Size  Location     Type
  5899 ;;  x               4   74[COMRAM] float 
  5900 ;; Auto vars:     Size  Location     Type
  5901 ;;  u               4   90[COMRAM] struct .
  5902 ;;  m               4   84[COMRAM] unsigned long 
  5903 ;;  e               2   88[COMRAM] int 
  5904 ;; Return value:  Size  Location     Type
  5905 ;;                  4   74[COMRAM] float 
  5906 ;; Registers used:
  5907 ;;		wreg, status,2, status,0
  5908 ;; Tracked objects:
  5909 ;;		On entry : 0/0
  5910 ;;		On exit  : 0/0
  5911 ;;		Unchanged: 0/0
  5912 ;; Data sizes:     COMRAM   BANK0   BANK1   BANK2   BANK3   BANK4   BANK5   BANK6   BANK7   BANK8   BANK9  BANK10  BANK1
      +1  BANK12  BANK13
  5913 ;;      Params:         4       0       0       0       0       0       0       0       0       0       0       0       
      +0       0       0
  5914 ;;      Locals:        10       0       0       0       0       0       0       0       0       0       0       0       
      +0       0       0
  5915 ;;      Temps:          6       0       0       0       0       0       0       0       0       0       0       0       
      +0       0       0
  5916 ;;      Totals:        20       0       0       0       0       0       0       0       0       0       0       0       
      +0       0       0
  5917 ;;Total ram usage:       20 bytes
  5918 ;; Hardware stack levels used: 1
  5919 ;; This function calls:
  5920 ;;		Nothing
  5921 ;; This function is called by:
  5922 ;;		_efgtoa
  5923 ;; This function uses a non-reentrant model
  5924 ;;
  5925                           
  5926                           	psect	text30
  5927   00336A                     __ptext30:
  5928                           	callstack 0
  5929   00336A                     _floorf:
  5930                           	callstack 25
  5931   00336A  C0EC  F05B         	movff	floorf@F526,floorf@u
  5932   00336E  C0ED  F05C         	movff	floorf@F526+1,floorf@u+1
  5933   003372  C0EE  F05D         	movff	floorf@F526+2,floorf@u+2
  5934   003376  C0EF  F05E         	movff	floorf@F526+3,floorf@u+3
  5935   00337A  C04B  F05B         	movff	floorf@x,floorf@u
  5936   00337E  C04C  F05C         	movff	floorf@x+1,floorf@u+1
  5937   003382  C04D  F05D         	movff	floorf@x+2,floorf@u+2
  5938   003386  C04E  F05E         	movff	floorf@x+3,floorf@u+3
  5939   00338A  0E81               	movlw	129
  5940   00338C  6E4F               	movwf	??_floorf^0,c
  5941   00338E  0EFF               	movlw	255
  5942   003390  6E50               	movwf	(??_floorf+1)^0,c
  5943   003392  C05B  F051         	movff	floorf@u,??_floorf+2
  5944   003396  C05C  F052         	movff	floorf@u+1,??_floorf+3
  5945   00339A  C05D  F053         	movff	floorf@u+2,??_floorf+4
  5946   00339E  C05E  F054         	movff	floorf@u+3,??_floorf+5
  5947   0033A2  0E18               	movlw	24
  5948   0033A4  EFD9  F019         	goto	u3210
  5949   0033A8                     u3215:
  5950   0033A8  90D8               	bcf	status,0,c
  5951   0033AA  3254               	rrcf	(??_floorf+5)^0,f,c
  5952   0033AC  3253               	rrcf	(??_floorf+4)^0,f,c
  5953   0033AE  3252               	rrcf	(??_floorf+3)^0,f,c
  5954   0033B0  3251               	rrcf	(??_floorf+2)^0,f,c
  5955   0033B2                     u3210:
  5956   0033B2  2EE8               	decfsz	wreg,f,c
  5957   0033B4  EFD4  F019         	goto	u3215
  5958   0033B8  5051               	movf	(??_floorf+2)^0,w,c
  5959   0033BA  244F               	addwf	??_floorf^0,w,c
  5960   0033BC  6E59               	movwf	floorf@e^0,c
  5961   0033BE  0E00               	movlw	0
  5962   0033C0  2050               	addwfc	(??_floorf+1)^0,w,c
  5963   0033C2  6E5A               	movwf	(floorf@e+1)^0,c
  5964   0033C4  BE5A               	btfsc	(floorf@e+1)^0,7,c
  5965   0033C6  EFEE  F019         	goto	u3221
  5966   0033CA  505A               	movf	(floorf@e+1)^0,w,c
  5967   0033CC  E109               	bnz	u3220
  5968   0033CE  0E17               	movlw	23
  5969   0033D0  5C59               	subwf	floorf@e^0,w,c
  5970   0033D2  A0D8               	btfss	status,0,c
  5971   0033D4  EFEE  F019         	goto	u3221
  5972   0033D8  EFF0  F019         	goto	u3220
  5973   0033DC                     u3221:
  5974   0033DC  EFFA  F019         	goto	l3159
  5975   0033E0                     u3220:
  5976   0033E0                     l3157:
  5977   0033E0  C04B  F04B         	movff	floorf@x,?_floorf
  5978   0033E4  C04C  F04C         	movff	floorf@x+1,?_floorf+1
  5979   0033E8  C04D  F04D         	movff	floorf@x+2,?_floorf+2
  5980   0033EC  C04E  F04E         	movff	floorf@x+3,?_floorf+3
  5981   0033F0  EFBD  F01A         	goto	l1048
  5982   0033F4                     l3159:
  5983   0033F4  BE5A               	btfsc	(floorf@e+1)^0,7,c
  5984   0033F6  EFFF  F019         	goto	u3231
  5985   0033FA  EF01  F01A         	goto	u3230
  5986   0033FE                     u3231:
  5987   0033FE  EF71  F01A         	goto	l3169
  5988   003402                     u3230:
  5989   003402  C059  F04F         	movff	floorf@e,??_floorf
  5990   003406  0EFF               	movlw	255
  5991   003408  6E50               	movwf	(??_floorf+1)^0,c
  5992   00340A  0EFF               	movlw	255
  5993   00340C  6E51               	movwf	(??_floorf+2)^0,c
  5994   00340E  0E7F               	movlw	127
  5995   003410  6E52               	movwf	(??_floorf+3)^0,c
  5996   003412  0E00               	movlw	0
  5997   003414  6E53               	movwf	(??_floorf+4)^0,c
  5998   003416                     u3245:
  5999   003416  664F               	tstfsz	??_floorf^0,c
  6000   003418  EF10  F01A         	goto	u3246
  6001   00341C  EF18  F01A         	goto	u3247
  6002   003420                     u3246:
  6003   003420  3453               	rlcf	(??_floorf+4)^0,w,c
  6004   003422  3253               	rrcf	(??_floorf+4)^0,f,c
  6005   003424  3252               	rrcf	(??_floorf+3)^0,f,c
  6006   003426  3251               	rrcf	(??_floorf+2)^0,f,c
  6007   003428  3250               	rrcf	(??_floorf+1)^0,f,c
  6008   00342A  2E4F               	decfsz	??_floorf^0,f,c
  6009   00342C  EF0B  F01A         	goto	u3245
  6010   003430                     u3247:
  6011   003430  C050  F055         	movff	??_floorf+1,floorf@m
  6012   003434  C051  F056         	movff	??_floorf+2,floorf@m+1
  6013   003438  C052  F057         	movff	??_floorf+3,floorf@m+2
  6014   00343C  C053  F058         	movff	??_floorf+4,floorf@m+3
  6015   003440  5055               	movf	floorf@m^0,w,c
  6016   003442  145B               	andwf	floorf@u^0,w,c
  6017   003444  6E4F               	movwf	??_floorf^0,c
  6018   003446  5056               	movf	(floorf@m+1)^0,w,c
  6019   003448  145C               	andwf	(floorf@u+1)^0,w,c
  6020   00344A  6E50               	movwf	(??_floorf+1)^0,c
  6021   00344C  5057               	movf	(floorf@m+2)^0,w,c
  6022   00344E  145D               	andwf	(floorf@u+2)^0,w,c
  6023   003450  6E51               	movwf	(??_floorf+2)^0,c
  6024   003452  5058               	movf	(floorf@m+3)^0,w,c
  6025   003454  145E               	andwf	(floorf@u+3)^0,w,c
  6026   003456  6E52               	movwf	(??_floorf+3)^0,c
  6027   003458  504F               	movf	??_floorf^0,w,c
  6028   00345A  1050               	iorwf	(??_floorf+1)^0,w,c
  6029   00345C  1051               	iorwf	(??_floorf+2)^0,w,c
  6030   00345E  1052               	iorwf	(??_floorf+3)^0,w,c
  6031   003460  A4D8               	btfss	status,2,c
  6032   003462  EF35  F01A         	goto	u3251
  6033   003466  EF37  F01A         	goto	u3250
  6034   00346A                     u3251:
  6035   00346A  EF39  F01A         	goto	l3165
  6036   00346E                     u3250:
  6037   00346E  EFF0  F019         	goto	l3157
  6038   003472                     l3165:
  6039   003472  C05B  F04F         	movff	floorf@u,??_floorf
  6040   003476  C05C  F050         	movff	floorf@u+1,??_floorf+1
  6041   00347A  C05D  F051         	movff	floorf@u+2,??_floorf+2
  6042   00347E  C05E  F052         	movff	floorf@u+3,??_floorf+3
  6043   003482  0E20               	movlw	32
  6044   003484  EF49  F01A         	goto	u3260
  6045   003488                     u3265:
  6046   003488  90D8               	bcf	status,0,c
  6047   00348A  3252               	rrcf	(??_floorf+3)^0,f,c
  6048   00348C  3251               	rrcf	(??_floorf+2)^0,f,c
  6049   00348E  3250               	rrcf	(??_floorf+1)^0,f,c
  6050   003490  324F               	rrcf	??_floorf^0,f,c
  6051   003492                     u3260:
  6052   003492  2EE8               	decfsz	wreg,f,c
  6053   003494  EF44  F01A         	goto	u3265
  6054   003498  504F               	movf	??_floorf^0,w,c
  6055   00349A  1050               	iorwf	(??_floorf+1)^0,w,c
  6056   00349C  1051               	iorwf	(??_floorf+2)^0,w,c
  6057   00349E  1052               	iorwf	(??_floorf+3)^0,w,c
  6058   0034A0  B4D8               	btfsc	status,2,c
  6059   0034A2  EF55  F01A         	goto	u3271
  6060   0034A6  EF57  F01A         	goto	u3270
  6061   0034AA                     u3271:
  6062   0034AA  EF5F  F01A         	goto	l1051
  6063   0034AE                     u3270:
  6064   0034AE  5055               	movf	floorf@m^0,w,c
  6065   0034B0  265B               	addwf	floorf@u^0,f,c
  6066   0034B2  5056               	movf	(floorf@m+1)^0,w,c
  6067   0034B4  225C               	addwfc	(floorf@u+1)^0,f,c
  6068   0034B6  5057               	movf	(floorf@m+2)^0,w,c
  6069   0034B8  225D               	addwfc	(floorf@u+2)^0,f,c
  6070   0034BA  5058               	movf	(floorf@m+3)^0,w,c
  6071   0034BC  225E               	addwfc	(floorf@u+3)^0,f,c
  6072   0034BE                     l1051:
  6073   0034BE  1C55               	comf	floorf@m^0,w,c
  6074   0034C0  6E4F               	movwf	??_floorf^0,c
  6075   0034C2  1C56               	comf	(floorf@m+1)^0,w,c
  6076   0034C4  6E50               	movwf	(??_floorf+1)^0,c
  6077   0034C6  1C57               	comf	(floorf@m+2)^0,w,c
  6078   0034C8  6E51               	movwf	(??_floorf+2)^0,c
  6079   0034CA  1C58               	comf	(floorf@m+3)^0,w,c
  6080   0034CC  6E52               	movwf	(??_floorf+3)^0,c
  6081   0034CE  504F               	movf	??_floorf^0,w,c
  6082   0034D0  165B               	andwf	floorf@u^0,f,c
  6083   0034D2  5050               	movf	(??_floorf+1)^0,w,c
  6084   0034D4  165C               	andwf	(floorf@u+1)^0,f,c
  6085   0034D6  5051               	movf	(??_floorf+2)^0,w,c
  6086   0034D8  165D               	andwf	(floorf@u+2)^0,f,c
  6087   0034DA  5052               	movf	(??_floorf+3)^0,w,c
  6088   0034DC  165E               	andwf	(floorf@u+3)^0,f,c
  6089   0034DE  EFB5  F01A         	goto	l3177
  6090   0034E2                     l3169:
  6091   0034E2  C05B  F04F         	movff	floorf@u,??_floorf
  6092   0034E6  C05C  F050         	movff	floorf@u+1,??_floorf+1
  6093   0034EA  C05D  F051         	movff	floorf@u+2,??_floorf+2
  6094   0034EE  C05E  F052         	movff	floorf@u+3,??_floorf+3
  6095   0034F2  0E20               	movlw	32
  6096   0034F4  EF81  F01A         	goto	u3280
  6097   0034F8                     u3285:
  6098   0034F8  90D8               	bcf	status,0,c
  6099   0034FA  3252               	rrcf	(??_floorf+3)^0,f,c
  6100   0034FC  3251               	rrcf	(??_floorf+2)^0,f,c
  6101   0034FE  3250               	rrcf	(??_floorf+1)^0,f,c
  6102   003500  324F               	rrcf	??_floorf^0,f,c
  6103   003502                     u3280:
  6104   003502  2EE8               	decfsz	wreg,f,c
  6105   003504  EF7C  F01A         	goto	u3285
  6106   003508  504F               	movf	??_floorf^0,w,c
  6107   00350A  1050               	iorwf	(??_floorf+1)^0,w,c
  6108   00350C  1051               	iorwf	(??_floorf+2)^0,w,c
  6109   00350E  1052               	iorwf	(??_floorf+3)^0,w,c
  6110   003510  A4D8               	btfss	status,2,c
  6111   003512  EF8D  F01A         	goto	u3291
  6112   003516  EF8F  F01A         	goto	u3290
  6113   00351A                     u3291:
  6114   00351A  EF99  F01A         	goto	l3173
  6115   00351E                     u3290:
  6116   00351E  0E00               	movlw	0
  6117   003520  6E5B               	movwf	floorf@u^0,c
  6118   003522  0E00               	movlw	0
  6119   003524  6E5C               	movwf	(floorf@u+1)^0,c
  6120   003526  0E00               	movlw	0
  6121   003528  6E5D               	movwf	(floorf@u+2)^0,c
  6122   00352A  0E00               	movlw	0
  6123   00352C  6E5E               	movwf	(floorf@u+3)^0,c
  6124   00352E  EFB5  F01A         	goto	l3177
  6125   003532                     l3173:
  6126   003532  90D8               	bcf	status,0,c
  6127   003534  345B               	rlcf	floorf@u^0,w,c
  6128   003536  6E4F               	movwf	??_floorf^0,c
  6129   003538  345C               	rlcf	(floorf@u+1)^0,w,c
  6130   00353A  6E50               	movwf	(??_floorf+1)^0,c
  6131   00353C  345D               	rlcf	(floorf@u+2)^0,w,c
  6132   00353E  6E51               	movwf	(??_floorf+2)^0,c
  6133   003540  345E               	rlcf	(floorf@u+3)^0,w,c
  6134   003542  6E52               	movwf	(??_floorf+3)^0,c
  6135   003544  504F               	movf	??_floorf^0,w,c
  6136   003546  1050               	iorwf	(??_floorf+1)^0,w,c
  6137   003548  1051               	iorwf	(??_floorf+2)^0,w,c
  6138   00354A  1052               	iorwf	(??_floorf+3)^0,w,c
  6139   00354C  B4D8               	btfsc	status,2,c
  6140   00354E  EFAB  F01A         	goto	u3301
  6141   003552  EFAD  F01A         	goto	u3300
  6142   003556                     u3301:
  6143   003556  EFB5  F01A         	goto	l3177
  6144   00355A                     u3300:
  6145   00355A  0E00               	movlw	0
  6146   00355C  6E5B               	movwf	floorf@u^0,c
  6147   00355E  0E00               	movlw	0
  6148   003560  6E5C               	movwf	(floorf@u+1)^0,c
  6149   003562  0E80               	movlw	128
  6150   003564  6E5D               	movwf	(floorf@u+2)^0,c
  6151   003566  0EBF               	movlw	191
  6152   003568  6E5E               	movwf	(floorf@u+3)^0,c
  6153   00356A                     l3177:
  6154   00356A  C05B  F04B         	movff	floorf@u,?_floorf
  6155   00356E  C05C  F04C         	movff	floorf@u+1,?_floorf+1
  6156   003572  C05D  F04D         	movff	floorf@u+2,?_floorf+2
  6157   003576  C05E  F04E         	movff	floorf@u+3,?_floorf+3
  6158   00357A                     l1048:
  6159   00357A  0012               	return		;funcret
  6160   00357C                     __end_of_floorf:
  6161                           	callstack 0
  6162                           
  6163 ;; *************** function ___fpclassifyf *****************
  6164 ;; Defined at:
  6165 ;;		line 4 in file "C:\Program Files\Microchip\xc8\v2.40\pic\sources\c99\common\__fpclassifyf.c"
  6166 ;; Parameters:    Size  Location     Type
  6167 ;;  x               4    0[COMRAM] float 
  6168 ;; Auto vars:     Size  Location     Type
  6169 ;;  u               4   10[COMRAM] struct .
  6170 ;;  e               2    8[COMRAM] int 
  6171 ;; Return value:  Size  Location     Type
  6172 ;;                  2    0[COMRAM] int 
  6173 ;; Registers used:
  6174 ;;		wreg, status,2, status,0
  6175 ;; Tracked objects:
  6176 ;;		On entry : 0/0
  6177 ;;		On exit  : 0/0
  6178 ;;		Unchanged: 0/0
  6179 ;; Data sizes:     COMRAM   BANK0   BANK1   BANK2   BANK3   BANK4   BANK5   BANK6   BANK7   BANK8   BANK9  BANK10  BANK1
      +1  BANK12  BANK13
  6180 ;;      Params:         4       0       0       0       0       0       0       0       0       0       0       0       
      +0       0       0
  6181 ;;      Locals:         6       0       0       0       0       0       0       0       0       0       0       0       
      +0       0       0
  6182 ;;      Temps:          4       0       0       0       0       0       0       0       0       0       0       0       
      +0       0       0
  6183 ;;      Totals:        14       0       0       0       0       0       0       0       0       0       0       0       
      +0       0       0
  6184 ;;Total ram usage:       14 bytes
  6185 ;; Hardware stack levels used: 1
  6186 ;; This function calls:
  6187 ;;		Nothing
  6188 ;; This function is called by:
  6189 ;;		_efgtoa
  6190 ;; This function uses a non-reentrant model
  6191 ;;
  6192                           
  6193                           	psect	text31
  6194   003B42                     __ptext31:
  6195                           	callstack 0
  6196   003B42                     ___fpclassifyf:
  6197                           	callstack 25
  6198   003B42  C0F0  F00B         	movff	___fpclassifyf@F465,___fpclassifyf@u
  6199   003B46  C0F1  F00C         	movff	___fpclassifyf@F465+1,___fpclassifyf@u+1
  6200   003B4A  C0F2  F00D         	movff	___fpclassifyf@F465+2,___fpclassifyf@u+2
  6201   003B4E  C0F3  F00E         	movff	___fpclassifyf@F465+3,___fpclassifyf@u+3
  6202   003B52  C001  F00B         	movff	___fpclassifyf@x,___fpclassifyf@u
  6203   003B56  C002  F00C         	movff	___fpclassifyf@x+1,___fpclassifyf@u+1
  6204   003B5A  C003  F00D         	movff	___fpclassifyf@x+2,___fpclassifyf@u+2
  6205   003B5E  C004  F00E         	movff	___fpclassifyf@x+3,___fpclassifyf@u+3
  6206   003B62  C00B  F005         	movff	___fpclassifyf@u,??___fpclassifyf
  6207   003B66  C00C  F006         	movff	___fpclassifyf@u+1,??___fpclassifyf+1
  6208   003B6A  C00D  F007         	movff	___fpclassifyf@u+2,??___fpclassifyf+2
  6209   003B6E  C00E  F008         	movff	___fpclassifyf@u+3,??___fpclassifyf+3
  6210   003B72  0E18               	movlw	24
  6211   003B74  EFC1  F01D         	goto	u3120
  6212   003B78                     u3125:
  6213   003B78  90D8               	bcf	status,0,c
  6214   003B7A  3208               	rrcf	(??___fpclassifyf+3)^0,f,c
  6215   003B7C  3207               	rrcf	(??___fpclassifyf+2)^0,f,c
  6216   003B7E  3206               	rrcf	(??___fpclassifyf+1)^0,f,c
  6217   003B80  3205               	rrcf	??___fpclassifyf^0,f,c
  6218   003B82                     u3120:
  6219   003B82  2EE8               	decfsz	wreg,f,c
  6220   003B84  EFBC  F01D         	goto	u3125
  6221   003B88  5005               	movf	??___fpclassifyf^0,w,c
  6222   003B8A  6E09               	movwf	___fpclassifyf@e^0,c
  6223   003B8C  6A0A               	clrf	(___fpclassifyf@e+1)^0,c
  6224   003B8E  5009               	movf	___fpclassifyf@e^0,w,c
  6225   003B90  100A               	iorwf	(___fpclassifyf@e+1)^0,w,c
  6226   003B92  A4D8               	btfss	status,2,c
  6227   003B94  EFCE  F01D         	goto	u3131
  6228   003B98  EFD0  F01D         	goto	u3130
  6229   003B9C                     u3131:
  6230   003B9C  EFF0  F01D         	goto	l3135
  6231   003BA0                     u3130:
  6232   003BA0  90D8               	bcf	status,0,c
  6233   003BA2  340B               	rlcf	___fpclassifyf@u^0,w,c
  6234   003BA4  6E05               	movwf	??___fpclassifyf^0,c
  6235   003BA6  340C               	rlcf	(___fpclassifyf@u+1)^0,w,c
  6236   003BA8  6E06               	movwf	(??___fpclassifyf+1)^0,c
  6237   003BAA  340D               	rlcf	(___fpclassifyf@u+2)^0,w,c
  6238   003BAC  6E07               	movwf	(??___fpclassifyf+2)^0,c
  6239   003BAE  340E               	rlcf	(___fpclassifyf@u+3)^0,w,c
  6240   003BB0  6E08               	movwf	(??___fpclassifyf+3)^0,c
  6241   003BB2  5005               	movf	??___fpclassifyf^0,w,c
  6242   003BB4  1006               	iorwf	(??___fpclassifyf+1)^0,w,c
  6243   003BB6  1007               	iorwf	(??___fpclassifyf+2)^0,w,c
  6244   003BB8  1008               	iorwf	(??___fpclassifyf+3)^0,w,c
  6245   003BBA  A4D8               	btfss	status,2,c
  6246   003BBC  EFE2  F01D         	goto	u3141
  6247   003BC0  EFE4  F01D         	goto	u3140
  6248   003BC4                     u3141:
  6249   003BC4  EFEA  F01D         	goto	l3131
  6250   003BC8                     u3140:
  6251   003BC8  0E00               	movlw	0
  6252   003BCA  6E02               	movwf	(?___fpclassifyf+1)^0,c
  6253   003BCC  0E02               	movlw	2
  6254   003BCE  6E01               	movwf	?___fpclassifyf^0,c
  6255   003BD0  EF1F  F01E         	goto	l1041
  6256   003BD4                     l3131:
  6257   003BD4  0E00               	movlw	0
  6258   003BD6  6E02               	movwf	(?___fpclassifyf+1)^0,c
  6259   003BD8  0E03               	movlw	3
  6260   003BDA  6E01               	movwf	?___fpclassifyf^0,c
  6261   003BDC  EF1F  F01E         	goto	l1041
  6262   003BE0                     l3135:
  6263   003BE0  2809               	incf	___fpclassifyf@e^0,w,c
  6264   003BE2  100A               	iorwf	(___fpclassifyf@e+1)^0,w,c
  6265   003BE4  A4D8               	btfss	status,2,c
  6266   003BE6  EFF7  F01D         	goto	u3151
  6267   003BEA  EFF9  F01D         	goto	u3150
  6268   003BEE                     u3151:
  6269   003BEE  EF1B  F01E         	goto	l3141
  6270   003BF2                     u3150:
  6271   003BF2  C00B  F005         	movff	___fpclassifyf@u,??___fpclassifyf
  6272   003BF6  C00C  F006         	movff	___fpclassifyf@u+1,??___fpclassifyf+1
  6273   003BFA  C00D  F007         	movff	___fpclassifyf@u+2,??___fpclassifyf+2
  6274   003BFE  C00E  F008         	movff	___fpclassifyf@u+3,??___fpclassifyf+3
  6275   003C02  0E09               	movlw	9
  6276   003C04                     u3165:
  6277   003C04  90D8               	bcf	status,0,c
  6278   003C06  3605               	rlcf	??___fpclassifyf^0,f,c
  6279   003C08  3606               	rlcf	(??___fpclassifyf+1)^0,f,c
  6280   003C0A  3607               	rlcf	(??___fpclassifyf+2)^0,f,c
  6281   003C0C  3608               	rlcf	(??___fpclassifyf+3)^0,f,c
  6282   003C0E  2EE8               	decfsz	wreg,f,c
  6283   003C10  EF02  F01E         	goto	u3165
  6284   003C14  5005               	movf	??___fpclassifyf^0,w,c
  6285   003C16  1006               	iorwf	(??___fpclassifyf+1)^0,w,c
  6286   003C18  1007               	iorwf	(??___fpclassifyf+2)^0,w,c
  6287   003C1A  1008               	iorwf	(??___fpclassifyf+3)^0,w,c
  6288   003C1C  B4D8               	btfsc	status,2,c
  6289   003C1E  EF13  F01E         	goto	u3171
  6290   003C22  EF16  F01E         	goto	u3170
  6291   003C26                     u3171:
  6292   003C26  0E01               	movlw	1
  6293   003C28  EF17  F01E         	goto	u3180
  6294   003C2C                     u3170:
  6295   003C2C  0E00               	movlw	0
  6296   003C2E                     u3180:
  6297   003C2E  6E01               	movwf	?___fpclassifyf^0,c
  6298   003C30  6A02               	clrf	(?___fpclassifyf+1)^0,c
  6299   003C32  EF1F  F01E         	goto	l1041
  6300   003C36                     l3141:
  6301   003C36  0E00               	movlw	0
  6302   003C38  6E02               	movwf	(?___fpclassifyf+1)^0,c
  6303   003C3A  0E04               	movlw	4
  6304   003C3C  6E01               	movwf	?___fpclassifyf^0,c
  6305   003C3E                     l1041:
  6306   003C3E  0012               	return		;funcret
  6307   003C40                     __end_of___fpclassifyf:
  6308                           	callstack 0
  6309                           
  6310 ;; *************** function ___fltol *****************
  6311 ;; Defined at:
  6312 ;;		line 43 in file "C:\Program Files\Microchip\xc8\v2.40\pic\sources\c99\common\fltol.c"
  6313 ;; Parameters:    Size  Location     Type
  6314 ;;  f1              4    0[COMRAM] int 
  6315 ;; Auto vars:     Size  Location     Type
  6316 ;;  exp1            1    9[COMRAM] unsigned char 
  6317 ;;  sign1           1    8[COMRAM] unsigned char 
  6318 ;; Return value:  Size  Location     Type
  6319 ;;                  4    0[COMRAM] long 
  6320 ;; Registers used:
  6321 ;;		wreg, status,2, status,0
  6322 ;; Tracked objects:
  6323 ;;		On entry : 0/0
  6324 ;;		On exit  : 0/0
  6325 ;;		Unchanged: 0/0
  6326 ;; Data sizes:     COMRAM   BANK0   BANK1   BANK2   BANK3   BANK4   BANK5   BANK6   BANK7   BANK8   BANK9  BANK10  BANK1
      +1  BANK12  BANK13
  6327 ;;      Params:         4       0       0       0       0       0       0       0       0       0       0       0       
      +0       0       0
  6328 ;;      Locals:         2       0       0       0       0       0       0       0       0       0       0       0       
      +0       0       0
  6329 ;;      Temps:          4       0       0       0       0       0       0       0       0       0       0       0       
      +0       0       0
  6330 ;;      Totals:        10       0       0       0       0       0       0       0       0       0       0       0       
      +0       0       0
  6331 ;;Total ram usage:       10 bytes
  6332 ;; Hardware stack levels used: 1
  6333 ;; This function calls:
  6334 ;;		Nothing
  6335 ;; This function is called by:
  6336 ;;		_RGB2Hue
  6337 ;;		_efgtoa
  6338 ;; This function uses a non-reentrant model
  6339 ;;
  6340                           
  6341                           	psect	text32
  6342   003836                     __ptext32:
  6343                           	callstack 0
  6344   003836                     ___fltol:
  6345                           	callstack 29
  6346   003836  3403               	rlcf	(___fltol@f1+2)^0,w,c
  6347   003838  3404               	rlcf	(___fltol@f1+3)^0,w,c
  6348   00383A  6E0A               	movwf	___fltol@exp1^0,c
  6349   00383C  500A               	movf	___fltol@exp1^0,w,c
  6350   00383E  A4D8               	btfss	status,2,c
  6351   003840  EF24  F01C         	goto	u3031
  6352   003844  EF26  F01C         	goto	u3030
  6353   003848                     u3031:
  6354   003848  EF30  F01C         	goto	l3071
  6355   00384C                     u3030:
  6356   00384C                     l3067:
  6357   00384C  0E00               	movlw	0
  6358   00384E  6E01               	movwf	?___fltol^0,c
  6359   003850  0E00               	movlw	0
  6360   003852  6E02               	movwf	(?___fltol+1)^0,c
  6361   003854  0E00               	movlw	0
  6362   003856  6E03               	movwf	(?___fltol+2)^0,c
  6363   003858  0E00               	movlw	0
  6364   00385A  6E04               	movwf	(?___fltol+3)^0,c
  6365   00385C  EF9D  F01C         	goto	l538
  6366   003860                     l3071:
  6367   003860  C001  F005         	movff	___fltol@f1,??___fltol
  6368   003864  C002  F006         	movff	___fltol@f1+1,??___fltol+1
  6369   003868  C003  F007         	movff	___fltol@f1+2,??___fltol+2
  6370   00386C  C004  F008         	movff	___fltol@f1+3,??___fltol+3
  6371   003870  0E20               	movlw	32
  6372   003872  EF40  F01C         	goto	u3040
  6373   003876                     u3045:
  6374   003876  90D8               	bcf	status,0,c
  6375   003878  3208               	rrcf	(??___fltol+3)^0,f,c
  6376   00387A  3207               	rrcf	(??___fltol+2)^0,f,c
  6377   00387C  3206               	rrcf	(??___fltol+1)^0,f,c
  6378   00387E  3205               	rrcf	??___fltol^0,f,c
  6379   003880                     u3040:
  6380   003880  2EE8               	decfsz	wreg,f,c
  6381   003882  EF3B  F01C         	goto	u3045
  6382   003886  5005               	movf	??___fltol^0,w,c
  6383   003888  6E09               	movwf	___fltol@sign1^0,c
  6384   00388A  8E03               	bsf	(___fltol@f1+2)^0,7,c
  6385   00388C  0EFF               	movlw	255
  6386   00388E  1601               	andwf	___fltol@f1^0,f,c
  6387   003890  0EFF               	movlw	255
  6388   003892  1602               	andwf	(___fltol@f1+1)^0,f,c
  6389   003894  0EFF               	movlw	255
  6390   003896  1603               	andwf	(___fltol@f1+2)^0,f,c
  6391   003898  0E00               	movlw	0
  6392   00389A  1604               	andwf	(___fltol@f1+3)^0,f,c
  6393   00389C  0E96               	movlw	150
  6394   00389E  5E0A               	subwf	___fltol@exp1^0,f,c
  6395   0038A0  BE0A               	btfsc	___fltol@exp1^0,7,c
  6396   0038A2  EF57  F01C         	goto	u3050
  6397   0038A6  EF55  F01C         	goto	u3051
  6398   0038AA                     u3051:
  6399   0038AA  EF6D  F01C         	goto	l3091
  6400   0038AE                     u3050:
  6401   0038AE  500A               	movf	___fltol@exp1^0,w,c
  6402   0038B0  0A80               	xorlw	128
  6403   0038B2  0F97               	addlw	151
  6404   0038B4  B0D8               	btfsc	status,0,c
  6405   0038B6  EF5F  F01C         	goto	u3061
  6406   0038BA  EF61  F01C         	goto	u3060
  6407   0038BE                     u3061:
  6408   0038BE  EF63  F01C         	goto	l3087
  6409   0038C2                     u3060:
  6410   0038C2  EF26  F01C         	goto	l3067
  6411   0038C6                     l3087:
  6412   0038C6  90D8               	bcf	status,0,c
  6413   0038C8  3204               	rrcf	(___fltol@f1+3)^0,f,c
  6414   0038CA  3203               	rrcf	(___fltol@f1+2)^0,f,c
  6415   0038CC  3202               	rrcf	(___fltol@f1+1)^0,f,c
  6416   0038CE  3201               	rrcf	___fltol@f1^0,f,c
  6417   0038D0  3E0A               	incfsz	___fltol@exp1^0,f,c
  6418   0038D2  EF63  F01C         	goto	l3087
  6419   0038D6  EF85  F01C         	goto	l3101
  6420   0038DA                     l3091:
  6421   0038DA  0E1F               	movlw	31
  6422   0038DC  640A               	cpfsgt	___fltol@exp1^0,c
  6423   0038DE  EF73  F01C         	goto	u3071
  6424   0038E2  EF75  F01C         	goto	u3070
  6425   0038E6                     u3071:
  6426   0038E6  EF7D  F01C         	goto	l3099
  6427   0038EA                     u3070:
  6428   0038EA  EF26  F01C         	goto	l3067
  6429   0038EE                     l3097:
  6430   0038EE  90D8               	bcf	status,0,c
  6431   0038F0  3601               	rlcf	___fltol@f1^0,f,c
  6432   0038F2  3602               	rlcf	(___fltol@f1+1)^0,f,c
  6433   0038F4  3603               	rlcf	(___fltol@f1+2)^0,f,c
  6434   0038F6  3604               	rlcf	(___fltol@f1+3)^0,f,c
  6435   0038F8  060A               	decf	___fltol@exp1^0,f,c
  6436   0038FA                     l3099:
  6437   0038FA  500A               	movf	___fltol@exp1^0,w,c
  6438   0038FC  A4D8               	btfss	status,2,c
  6439   0038FE  EF83  F01C         	goto	u3081
  6440   003902  EF85  F01C         	goto	u3080
  6441   003906                     u3081:
  6442   003906  EF77  F01C         	goto	l3097
  6443   00390A                     u3080:
  6444   00390A                     l3101:
  6445   00390A  5009               	movf	___fltol@sign1^0,w,c
  6446   00390C  B4D8               	btfsc	status,2,c
  6447   00390E  EF8B  F01C         	goto	u3091
  6448   003912  EF8D  F01C         	goto	u3090
  6449   003916                     u3091:
  6450   003916  EF95  F01C         	goto	l3105
  6451   00391A                     u3090:
  6452   00391A  1E04               	comf	(___fltol@f1+3)^0,f,c
  6453   00391C  1E03               	comf	(___fltol@f1+2)^0,f,c
  6454   00391E  1E02               	comf	(___fltol@f1+1)^0,f,c
  6455   003920  6C01               	negf	___fltol@f1^0,c
  6456   003922  0E00               	movlw	0
  6457   003924  2202               	addwfc	(___fltol@f1+1)^0,f,c
  6458   003926  2203               	addwfc	(___fltol@f1+2)^0,f,c
  6459   003928  2204               	addwfc	(___fltol@f1+3)^0,f,c
  6460   00392A                     l3105:
  6461   00392A  C001  F001         	movff	___fltol@f1,?___fltol
  6462   00392E  C002  F002         	movff	___fltol@f1+1,?___fltol+1
  6463   003932  C003  F003         	movff	___fltol@f1+2,?___fltol+2
  6464   003936  C004  F004         	movff	___fltol@f1+3,?___fltol+3
  6465   00393A                     l538:
  6466   00393A  0012               	return		;funcret
  6467   00393C                     __end_of___fltol:
  6468                           	callstack 0
  6469                           
  6470 ;; *************** function ___flsub *****************
  6471 ;; Defined at:
  6472 ;;		line 245 in file "C:\Program Files\Microchip\xc8\v2.40\pic\sources\c99\common\sprcadd.c"
  6473 ;; Parameters:    Size  Location     Type
  6474 ;;  b               4   41[COMRAM] long 
  6475 ;;  a               4   45[COMRAM] long 
  6476 ;; Auto vars:     Size  Location     Type
  6477 ;;		None
  6478 ;; Return value:  Size  Location     Type
  6479 ;;                  4   41[COMRAM] long 
  6480 ;; Registers used:
  6481 ;;		wreg, status,2, status,0, cstack
  6482 ;; Tracked objects:
  6483 ;;		On entry : 0/0
  6484 ;;		On exit  : 0/0
  6485 ;;		Unchanged: 0/0
  6486 ;; Data sizes:     COMRAM   BANK0   BANK1   BANK2   BANK3   BANK4   BANK5   BANK6   BANK7   BANK8   BANK9  BANK10  BANK1
      +1  BANK12  BANK13
  6487 ;;      Params:         8       0       0       0       0       0       0       0       0       0       0       0       
      +0       0       0
  6488 ;;      Locals:         0       0       0       0       0       0       0       0       0       0       0       0       
      +0       0       0
  6489 ;;      Temps:          0       0       0       0       0       0       0       0       0       0       0       0       
      +0       0       0
  6490 ;;      Totals:         8       0       0       0       0       0       0       0       0       0       0       0       
      +0       0       0
  6491 ;;Total ram usage:        8 bytes
  6492 ;; Hardware stack levels used: 1
  6493 ;; Hardware stack levels required when called: 1
  6494 ;; This function calls:
  6495 ;;		___fladd
  6496 ;; This function is called by:
  6497 ;;		_RGB2Hue
  6498 ;;		_efgtoa
  6499 ;; This function uses a non-reentrant model
  6500 ;;
  6501                           
  6502                           	psect	text33
  6503   004184                     __ptext33:
  6504                           	callstack 0
  6505   004184                     ___flsub:
  6506                           	callstack 28
  6507   004184  0E00               	movlw	0
  6508   004186  1A2E               	xorwf	___flsub@a^0,f,c
  6509   004188  0E00               	movlw	0
  6510   00418A  1A2F               	xorwf	(___flsub@a+1)^0,f,c
  6511   00418C  0E00               	movlw	0
  6512   00418E  1A30               	xorwf	(___flsub@a+2)^0,f,c
  6513   004190  0E80               	movlw	128
  6514   004192  1A31               	xorwf	(___flsub@a+3)^0,f,c
  6515   004194  C02A  F01A         	movff	___flsub@b,___fladd@b
  6516   004198  C02B  F01B         	movff	___flsub@b+1,___fladd@b+1
  6517   00419C  C02C  F01C         	movff	___flsub@b+2,___fladd@b+2
  6518   0041A0  C02D  F01D         	movff	___flsub@b+3,___fladd@b+3
  6519   0041A4  C02E  F01E         	movff	___flsub@a,___fladd@a
  6520   0041A8  C02F  F01F         	movff	___flsub@a+1,___fladd@a+1
  6521   0041AC  C030  F020         	movff	___flsub@a+2,___fladd@a+2
  6522   0041B0  C031  F021         	movff	___flsub@a+3,___fladd@a+3
  6523   0041B4  EC5A  F012         	call	___fladd	;wreg free
  6524   0041B8  C01A  F02A         	movff	?___fladd,?___flsub
  6525   0041BC  C01B  F02B         	movff	?___fladd+1,?___flsub+1
  6526   0041C0  C01C  F02C         	movff	?___fladd+2,?___flsub+2
  6527   0041C4  C01D  F02D         	movff	?___fladd+3,?___flsub+3
  6528   0041C8  0012               	return		;funcret
  6529   0041CA                     __end_of___flsub:
  6530                           	callstack 0
  6531                           
  6532 ;; *************** function ___fladd *****************
  6533 ;; Defined at:
  6534 ;;		line 10 in file "C:\Program Files\Microchip\xc8\v2.40\pic\sources\c99\common\sprcadd.c"
  6535 ;; Parameters:    Size  Location     Type
  6536 ;;  b               4   25[COMRAM] long 
  6537 ;;  a               4   29[COMRAM] long 
  6538 ;; Auto vars:     Size  Location     Type
  6539 ;;  grs             1   40[COMRAM] unsigned char 
  6540 ;;  bexp            1   39[COMRAM] unsigned char 
  6541 ;;  aexp            1   38[COMRAM] unsigned char 
  6542 ;;  signs           1   37[COMRAM] unsigned char 
  6543 ;; Return value:  Size  Location     Type
  6544 ;;                  4   25[COMRAM] unsigned char 
  6545 ;; Registers used:
  6546 ;;		wreg, status,2, status,0
  6547 ;; Tracked objects:
  6548 ;;		On entry : 0/0
  6549 ;;		On exit  : 0/0
  6550 ;;		Unchanged: 0/0
  6551 ;; Data sizes:     COMRAM   BANK0   BANK1   BANK2   BANK3   BANK4   BANK5   BANK6   BANK7   BANK8   BANK9  BANK10  BANK1
      +1  BANK12  BANK13
  6552 ;;      Params:         8       0       0       0       0       0       0       0       0       0       0       0       
      +0       0       0
  6553 ;;      Locals:         4       0       0       0       0       0       0       0       0       0       0       0       
      +0       0       0
  6554 ;;      Temps:          4       0       0       0       0       0       0       0       0       0       0       0       
      +0       0       0
  6555 ;;      Totals:        16       0       0       0       0       0       0       0       0       0       0       0       
      +0       0       0
  6556 ;;Total ram usage:       16 bytes
  6557 ;; Hardware stack levels used: 1
  6558 ;; This function calls:
  6559 ;;		Nothing
  6560 ;; This function is called by:
  6561 ;;		_RGB2Hue
  6562 ;;		___flsub
  6563 ;;		_efgtoa
  6564 ;; This function uses a non-reentrant model
  6565 ;;
  6566                           
  6567                           	psect	text34
  6568   0024B4                     __ptext34:
  6569                           	callstack 0
  6570   0024B4                     ___fladd:
  6571                           	callstack 28
  6572   0024B4  501D               	movf	(___fladd@b+3)^0,w,c
  6573   0024B6  0B80               	andlw	128
  6574   0024B8  6E26               	movwf	___fladd@signs^0,c
  6575   0024BA  501D               	movf	(___fladd@b+3)^0,w,c
  6576   0024BC  241D               	addwf	(___fladd@b+3)^0,w,c
  6577   0024BE  6E28               	movwf	___fladd@bexp^0,c
  6578   0024C0  AE1C               	btfss	(___fladd@b+2)^0,7,c
  6579   0024C2  EF65  F012         	goto	u2121
  6580   0024C6  EF67  F012         	goto	u2120
  6581   0024CA                     u2121:
  6582   0024CA  EF68  F012         	goto	l2541
  6583   0024CE                     u2120:
  6584   0024CE  8028               	bsf	___fladd@bexp^0,0,c
  6585   0024D0                     l2541:
  6586   0024D0  5028               	movf	___fladd@bexp^0,w,c
  6587   0024D2  B4D8               	btfsc	status,2,c
  6588   0024D4  EF6E  F012         	goto	u2131
  6589   0024D8  EF70  F012         	goto	u2130
  6590   0024DC                     u2131:
  6591   0024DC  EF85  F012         	goto	l2551
  6592   0024E0                     u2130:
  6593   0024E0  2828               	incf	___fladd@bexp^0,w,c
  6594   0024E2  A4D8               	btfss	status,2,c
  6595   0024E4  EF76  F012         	goto	u2141
  6596   0024E8  EF78  F012         	goto	u2140
  6597   0024EC                     u2141:
  6598   0024EC  EF80  F012         	goto	l2547
  6599   0024F0                     u2140:
  6600   0024F0  0E00               	movlw	0
  6601   0024F2  6E1A               	movwf	___fladd@b^0,c
  6602   0024F4  0E00               	movlw	0
  6603   0024F6  6E1B               	movwf	(___fladd@b+1)^0,c
  6604   0024F8  0E00               	movlw	0
  6605   0024FA  6E1C               	movwf	(___fladd@b+2)^0,c
  6606   0024FC  0E00               	movlw	0
  6607   0024FE  6E1D               	movwf	(___fladd@b+3)^0,c
  6608   002500                     l2547:
  6609   002500  8E1C               	bsf	(___fladd@b+2)^0,7,c
  6610   002502  0E00               	movlw	0
  6611   002504  6E1D               	movwf	(___fladd@b+3)^0,c
  6612   002506  EF8D  F012         	goto	l2553
  6613   00250A                     l2551:
  6614   00250A  0E00               	movlw	0
  6615   00250C  6E1A               	movwf	___fladd@b^0,c
  6616   00250E  0E00               	movlw	0
  6617   002510  6E1B               	movwf	(___fladd@b+1)^0,c
  6618   002512  0E00               	movlw	0
  6619   002514  6E1C               	movwf	(___fladd@b+2)^0,c
  6620   002516  0E00               	movlw	0
  6621   002518  6E1D               	movwf	(___fladd@b+3)^0,c
  6622   00251A                     l2553:
  6623   00251A  5021               	movf	(___fladd@a+3)^0,w,c
  6624   00251C  0B80               	andlw	128
  6625   00251E  6E27               	movwf	___fladd@aexp^0,c
  6626   002520  5026               	movf	___fladd@signs^0,w,c
  6627   002522  1827               	xorwf	___fladd@aexp^0,w,c
  6628   002524  B4D8               	btfsc	status,2,c
  6629   002526  EF97  F012         	goto	u2151
  6630   00252A  EF99  F012         	goto	u2150
  6631   00252E                     u2151:
  6632   00252E  EF9A  F012         	goto	l2559
  6633   002532                     u2150:
  6634   002532  8C26               	bsf	___fladd@signs^0,6,c
  6635   002534                     l2559:
  6636   002534  5021               	movf	(___fladd@a+3)^0,w,c
  6637   002536  2421               	addwf	(___fladd@a+3)^0,w,c
  6638   002538  6E27               	movwf	___fladd@aexp^0,c
  6639   00253A  AE20               	btfss	(___fladd@a+2)^0,7,c
  6640   00253C  EFA2  F012         	goto	u2161
  6641   002540  EFA4  F012         	goto	u2160
  6642   002544                     u2161:
  6643   002544  EFA5  F012         	goto	l2565
  6644   002548                     u2160:
  6645   002548  8027               	bsf	___fladd@aexp^0,0,c
  6646   00254A                     l2565:
  6647   00254A  5027               	movf	___fladd@aexp^0,w,c
  6648   00254C  B4D8               	btfsc	status,2,c
  6649   00254E  EFAB  F012         	goto	u2171
  6650   002552  EFAD  F012         	goto	u2170
  6651   002556                     u2171:
  6652   002556  EFC2  F012         	goto	l2575
  6653   00255A                     u2170:
  6654   00255A  2827               	incf	___fladd@aexp^0,w,c
  6655   00255C  A4D8               	btfss	status,2,c
  6656   00255E  EFB3  F012         	goto	u2181
  6657   002562  EFB5  F012         	goto	u2180
  6658   002566                     u2181:
  6659   002566  EFBD  F012         	goto	l2571
  6660   00256A                     u2180:
  6661   00256A  0E00               	movlw	0
  6662   00256C  6E1E               	movwf	___fladd@a^0,c
  6663   00256E  0E00               	movlw	0
  6664   002570  6E1F               	movwf	(___fladd@a+1)^0,c
  6665   002572  0E00               	movlw	0
  6666   002574  6E20               	movwf	(___fladd@a+2)^0,c
  6667   002576  0E00               	movlw	0
  6668   002578  6E21               	movwf	(___fladd@a+3)^0,c
  6669   00257A                     l2571:
  6670   00257A  8E20               	bsf	(___fladd@a+2)^0,7,c
  6671   00257C  0E00               	movlw	0
  6672   00257E  6E21               	movwf	(___fladd@a+3)^0,c
  6673   002580  EFCA  F012         	goto	l2577
  6674   002584                     l2575:
  6675   002584  0E00               	movlw	0
  6676   002586  6E1E               	movwf	___fladd@a^0,c
  6677   002588  0E00               	movlw	0
  6678   00258A  6E1F               	movwf	(___fladd@a+1)^0,c
  6679   00258C  0E00               	movlw	0
  6680   00258E  6E20               	movwf	(___fladd@a+2)^0,c
  6681   002590  0E00               	movlw	0
  6682   002592  6E21               	movwf	(___fladd@a+3)^0,c
  6683   002594                     l2577:
  6684   002594  5028               	movf	___fladd@bexp^0,w,c
  6685   002596  5C27               	subwf	___fladd@aexp^0,w,c
  6686   002598  B0D8               	btfsc	status,0,c
  6687   00259A  EFD1  F012         	goto	u2191
  6688   00259E  EFD3  F012         	goto	u2190
  6689   0025A2                     u2191:
  6690   0025A2  EFFA  F012         	goto	l2613
  6691   0025A6                     u2190:
  6692   0025A6  AC26               	btfss	___fladd@signs^0,6,c
  6693   0025A8  EFD8  F012         	goto	u2201
  6694   0025AC  EFDA  F012         	goto	u2200
  6695   0025B0                     u2201:
  6696   0025B0  EFDC  F012         	goto	l2583
  6697   0025B4                     u2200:
  6698   0025B4  0E80               	movlw	128
  6699   0025B6  1A26               	xorwf	___fladd@signs^0,f,c
  6700   0025B8                     l2583:
  6701   0025B8  C028  F029         	movff	___fladd@bexp,___fladd@grs
  6702   0025BC  C027  F028         	movff	___fladd@aexp,___fladd@bexp
  6703   0025C0  C029  F027         	movff	___fladd@grs,___fladd@aexp
  6704   0025C4  C01A  F029         	movff	___fladd@b,___fladd@grs
  6705   0025C8  C01E  F01A         	movff	___fladd@a,___fladd@b
  6706   0025CC  C029  F01E         	movff	___fladd@grs,___fladd@a
  6707   0025D0  C01B  F029         	movff	___fladd@b+1,___fladd@grs
  6708   0025D4  C01F  F01B         	movff	___fladd@a+1,___fladd@b+1
  6709   0025D8  C029  F01F         	movff	___fladd@grs,___fladd@a+1
  6710   0025DC  C01C  F029         	movff	___fladd@b+2,___fladd@grs
  6711   0025E0  C020  F01C         	movff	___fladd@a+2,___fladd@b+2
  6712   0025E4  C029  F020         	movff	___fladd@grs,___fladd@a+2
  6713   0025E8  C01D  F029         	movff	___fladd@b+3,___fladd@grs
  6714   0025EC  C021  F01D         	movff	___fladd@a+3,___fladd@b+3
  6715   0025F0  C029  F021         	movff	___fladd@grs,___fladd@a+3
  6716   0025F4                     l2613:
  6717   0025F4  0E00               	movlw	0
  6718   0025F6  6E29               	movwf	___fladd@grs^0,c
  6719   0025F8  5028               	movf	___fladd@bexp^0,w,c
  6720   0025FA  C027  F022         	movff	___fladd@aexp,??___fladd
  6721   0025FE  6A23               	clrf	(??___fladd+1)^0,c
  6722   002600  5E22               	subwf	??___fladd^0,f,c
  6723   002602  0E00               	movlw	0
  6724   002604  5A23               	subwfb	(??___fladd+1)^0,f,c
  6725   002606  BE23               	btfsc	(??___fladd+1)^0,7,c
  6726   002608  EF0F  F013         	goto	u2211
  6727   00260C  5023               	movf	(??___fladd+1)^0,w,c
  6728   00260E  E109               	bnz	u2210
  6729   002610  0E1A               	movlw	26
  6730   002612  5C22               	subwf	??___fladd^0,w,c
  6731   002614  A0D8               	btfss	status,0,c
  6732   002616  EF0F  F013         	goto	u2211
  6733   00261A  EF11  F013         	goto	u2210
  6734   00261E                     u2211:
  6735   00261E  EF48  F013         	goto	l770
  6736   002622                     u2210:
  6737   002622  501A               	movf	___fladd@b^0,w,c
  6738   002624  101B               	iorwf	(___fladd@b+1)^0,w,c
  6739   002626  101C               	iorwf	(___fladd@b+2)^0,w,c
  6740   002628  101D               	iorwf	(___fladd@b+3)^0,w,c
  6741   00262A  A4D8               	btfss	status,2,c
  6742   00262C  EF1A  F013         	goto	u2221
  6743   002630  EF1D  F013         	goto	u2220
  6744   002634                     u2221:
  6745   002634  0E01               	movlw	1
  6746   002636  EF1E  F013         	goto	u2230
  6747   00263A                     u2220:
  6748   00263A  0E00               	movlw	0
  6749   00263C                     u2230:
  6750   00263C  6E29               	movwf	___fladd@grs^0,c
  6751   00263E  0E00               	movlw	0
  6752   002640  6E1A               	movwf	___fladd@b^0,c
  6753   002642  0E00               	movlw	0
  6754   002644  6E1B               	movwf	(___fladd@b+1)^0,c
  6755   002646  0E00               	movlw	0
  6756   002648  6E1C               	movwf	(___fladd@b+2)^0,c
  6757   00264A  0E00               	movlw	0
  6758   00264C  6E1D               	movwf	(___fladd@b+3)^0,c
  6759   00264E  C027  F028         	movff	___fladd@aexp,___fladd@bexp
  6760   002652  EF51  F013         	goto	l769
  6761   002656                     l771:
  6762   002656  A029               	btfss	___fladd@grs^0,0,c
  6763   002658  EF30  F013         	goto	u2241
  6764   00265C  EF32  F013         	goto	u2240
  6765   002660                     u2241:
  6766   002660  EF38  F013         	goto	l2625
  6767   002664                     u2240:
  6768   002664  90D8               	bcf	status,0,c
  6769   002666  3029               	rrcf	___fladd@grs^0,w,c
  6770   002668  0901               	iorlw	1
  6771   00266A  6E29               	movwf	___fladd@grs^0,c
  6772   00266C  EF3A  F013         	goto	l2627
  6773   002670                     l2625:
  6774   002670  90D8               	bcf	status,0,c
  6775   002672  3229               	rrcf	___fladd@grs^0,f,c
  6776   002674                     l2627:
  6777   002674  A01A               	btfss	___fladd@b^0,0,c
  6778   002676  EF3F  F013         	goto	u2251
  6779   00267A  EF41  F013         	goto	u2250
  6780   00267E                     u2251:
  6781   00267E  EF42  F013         	goto	l2631
  6782   002682                     u2250:
  6783   002682  8E29               	bsf	___fladd@grs^0,7,c
  6784   002684                     l2631:
  6785   002684  341D               	rlcf	(___fladd@b+3)^0,w,c
  6786   002686  321D               	rrcf	(___fladd@b+3)^0,f,c
  6787   002688  321C               	rrcf	(___fladd@b+2)^0,f,c
  6788   00268A  321B               	rrcf	(___fladd@b+1)^0,f,c
  6789   00268C  321A               	rrcf	___fladd@b^0,f,c
  6790   00268E  2A28               	incf	___fladd@bexp^0,f,c
  6791   002690                     l770:
  6792   002690  5027               	movf	___fladd@aexp^0,w,c
  6793   002692  5C28               	subwf	___fladd@bexp^0,w,c
  6794   002694  A0D8               	btfss	status,0,c
  6795   002696  EF4F  F013         	goto	u2261
  6796   00269A  EF51  F013         	goto	u2260
  6797   00269E                     u2261:
  6798   00269E  EF2B  F013         	goto	l771
  6799   0026A2                     u2260:
  6800   0026A2                     l769:
  6801   0026A2  BC26               	btfsc	___fladd@signs^0,6,c
  6802   0026A4  EF56  F013         	goto	u2271
  6803   0026A8  EF58  F013         	goto	u2270
  6804   0026AC                     u2271:
  6805   0026AC  EF98  F013         	goto	l2659
  6806   0026B0                     u2270:
  6807   0026B0  5028               	movf	___fladd@bexp^0,w,c
  6808   0026B2  A4D8               	btfss	status,2,c
  6809   0026B4  EF5E  F013         	goto	u2281
  6810   0026B8  EF60  F013         	goto	u2280
  6811   0026BC                     u2281:
  6812   0026BC  EF6A  F013         	goto	l2641
  6813   0026C0                     u2280:
  6814   0026C0  0E00               	movlw	0
  6815   0026C2  6E1A               	movwf	?___fladd^0,c
  6816   0026C4  0E00               	movlw	0
  6817   0026C6  6E1B               	movwf	(?___fladd+1)^0,c
  6818   0026C8  0E00               	movlw	0
  6819   0026CA  6E1C               	movwf	(?___fladd+2)^0,c
  6820   0026CC  0E00               	movlw	0
  6821   0026CE  6E1D               	movwf	(?___fladd+3)^0,c
  6822   0026D0  EFB9  F014         	goto	l778
  6823   0026D4                     l2641:
  6824   0026D4  501E               	movf	___fladd@a^0,w,c
  6825   0026D6  261A               	addwf	___fladd@b^0,f,c
  6826   0026D8  501F               	movf	(___fladd@a+1)^0,w,c
  6827   0026DA  221B               	addwfc	(___fladd@b+1)^0,f,c
  6828   0026DC  5020               	movf	(___fladd@a+2)^0,w,c
  6829   0026DE  221C               	addwfc	(___fladd@b+2)^0,f,c
  6830   0026E0  5021               	movf	(___fladd@a+3)^0,w,c
  6831   0026E2  221D               	addwfc	(___fladd@b+3)^0,f,c
  6832   0026E4  A01D               	btfss	(___fladd@b+3)^0,0,c
  6833   0026E6  EF77  F013         	goto	u2291
  6834   0026EA  EF79  F013         	goto	u2290
  6835   0026EE                     u2291:
  6836   0026EE  EF25  F014         	goto	l2695
  6837   0026F2                     u2290:
  6838   0026F2  A029               	btfss	___fladd@grs^0,0,c
  6839   0026F4  EF7E  F013         	goto	u2301
  6840   0026F8  EF80  F013         	goto	u2300
  6841   0026FC                     u2301:
  6842   0026FC  EF86  F013         	goto	l2649
  6843   002700                     u2300:
  6844   002700  90D8               	bcf	status,0,c
  6845   002702  3029               	rrcf	___fladd@grs^0,w,c
  6846   002704  0901               	iorlw	1
  6847   002706  6E29               	movwf	___fladd@grs^0,c
  6848   002708  EF88  F013         	goto	l2651
  6849   00270C                     l2649:
  6850   00270C  90D8               	bcf	status,0,c
  6851   00270E  3229               	rrcf	___fladd@grs^0,f,c
  6852   002710                     l2651:
  6853   002710  A01A               	btfss	___fladd@b^0,0,c
  6854   002712  EF8D  F013         	goto	u2311
  6855   002716  EF8F  F013         	goto	u2310
  6856   00271A                     u2311:
  6857   00271A  EF90  F013         	goto	l2655
  6858   00271E                     u2310:
  6859   00271E  8E29               	bsf	___fladd@grs^0,7,c
  6860   002720                     l2655:
  6861   002720  341D               	rlcf	(___fladd@b+3)^0,w,c
  6862   002722  321D               	rrcf	(___fladd@b+3)^0,f,c
  6863   002724  321C               	rrcf	(___fladd@b+2)^0,f,c
  6864   002726  321B               	rrcf	(___fladd@b+1)^0,f,c
  6865   002728  321A               	rrcf	___fladd@b^0,f,c
  6866   00272A  2A28               	incf	___fladd@bexp^0,f,c
  6867   00272C  EF25  F014         	goto	l2695
  6868   002730                     l2659:
  6869   002730  501E               	movf	___fladd@a^0,w,c
  6870   002732  5C1A               	subwf	___fladd@b^0,w,c
  6871   002734  501F               	movf	(___fladd@a+1)^0,w,c
  6872   002736  581B               	subwfb	(___fladd@b+1)^0,w,c
  6873   002738  5020               	movf	(___fladd@a+2)^0,w,c
  6874   00273A  581C               	subwfb	(___fladd@b+2)^0,w,c
  6875   00273C  501D               	movf	(___fladd@b+3)^0,w,c
  6876   00273E  0A80               	xorlw	128
  6877   002740  6E22               	movwf	??___fladd^0,c
  6878   002742  5021               	movf	(___fladd@a+3)^0,w,c
  6879   002744  0A80               	xorlw	128
  6880   002746  5822               	subwfb	??___fladd^0,w,c
  6881   002748  B0D8               	btfsc	status,0,c
  6882   00274A  EFA9  F013         	goto	u2321
  6883   00274E  EFAB  F013         	goto	u2320
  6884   002752                     u2321:
  6885   002752  EFD6  F013         	goto	l2669
  6886   002756                     u2320:
  6887   002756  501A               	movf	___fladd@b^0,w,c
  6888   002758  5C1E               	subwf	___fladd@a^0,w,c
  6889   00275A  6E22               	movwf	??___fladd^0,c
  6890   00275C  501B               	movf	(___fladd@b+1)^0,w,c
  6891   00275E  581F               	subwfb	(___fladd@a+1)^0,w,c
  6892   002760  6E23               	movwf	(??___fladd+1)^0,c
  6893   002762  501C               	movf	(___fladd@b+2)^0,w,c
  6894   002764  5820               	subwfb	(___fladd@a+2)^0,w,c
  6895   002766  6E24               	movwf	(??___fladd+2)^0,c
  6896   002768  501D               	movf	(___fladd@b+3)^0,w,c
  6897   00276A  5821               	subwfb	(___fladd@a+3)^0,w,c
  6898   00276C  6E25               	movwf	(??___fladd+3)^0,c
  6899   00276E  0EFF               	movlw	255
  6900   002770  2422               	addwf	??___fladd^0,w,c
  6901   002772  6E1A               	movwf	___fladd@b^0,c
  6902   002774  0EFF               	movlw	255
  6903   002776  2023               	addwfc	(??___fladd+1)^0,w,c
  6904   002778  6E1B               	movwf	(___fladd@b+1)^0,c
  6905   00277A  0EFF               	movlw	255
  6906   00277C  2024               	addwfc	(??___fladd+2)^0,w,c
  6907   00277E  6E1C               	movwf	(___fladd@b+2)^0,c
  6908   002780  0EFF               	movlw	255
  6909   002782  2025               	addwfc	(??___fladd+3)^0,w,c
  6910   002784  6E1D               	movwf	(___fladd@b+3)^0,c
  6911   002786  0E80               	movlw	128
  6912   002788  1A26               	xorwf	___fladd@signs^0,f,c
  6913   00278A  6C29               	negf	___fladd@grs^0,c
  6914   00278C  5029               	movf	___fladd@grs^0,w,c
  6915   00278E  A4D8               	btfss	status,2,c
  6916   002790  EFCC  F013         	goto	u2331
  6917   002794  EFCE  F013         	goto	u2330
  6918   002798                     u2331:
  6919   002798  EFDE  F013         	goto	l786
  6920   00279C                     u2330:
  6921   00279C  0E01               	movlw	1
  6922   00279E  261A               	addwf	___fladd@b^0,f,c
  6923   0027A0  0E00               	movlw	0
  6924   0027A2  221B               	addwfc	(___fladd@b+1)^0,f,c
  6925   0027A4  221C               	addwfc	(___fladd@b+2)^0,f,c
  6926   0027A6  221D               	addwfc	(___fladd@b+3)^0,f,c
  6927   0027A8  EFDE  F013         	goto	l786
  6928   0027AC                     l2669:
  6929   0027AC  501E               	movf	___fladd@a^0,w,c
  6930   0027AE  5E1A               	subwf	___fladd@b^0,f,c
  6931   0027B0  501F               	movf	(___fladd@a+1)^0,w,c
  6932   0027B2  5A1B               	subwfb	(___fladd@b+1)^0,f,c
  6933   0027B4  5020               	movf	(___fladd@a+2)^0,w,c
  6934   0027B6  5A1C               	subwfb	(___fladd@b+2)^0,f,c
  6935   0027B8  5021               	movf	(___fladd@a+3)^0,w,c
  6936   0027BA  5A1D               	subwfb	(___fladd@b+3)^0,f,c
  6937   0027BC                     l786:
  6938   0027BC  501A               	movf	___fladd@b^0,w,c
  6939   0027BE  101B               	iorwf	(___fladd@b+1)^0,w,c
  6940   0027C0  101C               	iorwf	(___fladd@b+2)^0,w,c
  6941   0027C2  101D               	iorwf	(___fladd@b+3)^0,w,c
  6942   0027C4  A4D8               	btfss	status,2,c
  6943   0027C6  EFE7  F013         	goto	u2341
  6944   0027CA  EFE9  F013         	goto	u2340
  6945   0027CE                     u2341:
  6946   0027CE  EF1E  F014         	goto	l2693
  6947   0027D2                     u2340:
  6948   0027D2  5029               	movf	___fladd@grs^0,w,c
  6949   0027D4  A4D8               	btfss	status,2,c
  6950   0027D6  EFEF  F013         	goto	u2351
  6951   0027DA  EFF1  F013         	goto	u2350
  6952   0027DE                     u2351:
  6953   0027DE  EF1E  F014         	goto	l2693
  6954   0027E2                     u2350:
  6955   0027E2  0E00               	movlw	0
  6956   0027E4  6E1A               	movwf	?___fladd^0,c
  6957   0027E6  0E00               	movlw	0
  6958   0027E8  6E1B               	movwf	(?___fladd+1)^0,c
  6959   0027EA  0E00               	movlw	0
  6960   0027EC  6E1C               	movwf	(?___fladd+2)^0,c
  6961   0027EE  0E00               	movlw	0
  6962   0027F0  6E1D               	movwf	(?___fladd+3)^0,c
  6963   0027F2  EFB9  F014         	goto	l778
  6964   0027F6                     l2677:
  6965   0027F6  90D8               	bcf	status,0,c
  6966   0027F8  361A               	rlcf	___fladd@b^0,f,c
  6967   0027FA  361B               	rlcf	(___fladd@b+1)^0,f,c
  6968   0027FC  361C               	rlcf	(___fladd@b+2)^0,f,c
  6969   0027FE  361D               	rlcf	(___fladd@b+3)^0,f,c
  6970   002800  AE29               	btfss	___fladd@grs^0,7,c
  6971   002802  EF05  F014         	goto	u2361
  6972   002806  EF07  F014         	goto	u2360
  6973   00280A                     u2361:
  6974   00280A  EF08  F014         	goto	l2683
  6975   00280E                     u2360:
  6976   00280E  801A               	bsf	___fladd@b^0,0,c
  6977   002810                     l2683:
  6978   002810  A029               	btfss	___fladd@grs^0,0,c
  6979   002812  EF0D  F014         	goto	u2371
  6980   002816  EF0F  F014         	goto	u2370
  6981   00281A                     u2371:
  6982   00281A  EF13  F014         	goto	l2687
  6983   00281E                     u2370:
  6984   00281E  80D8               	bsf	status,0,c
  6985   002820  3629               	rlcf	___fladd@grs^0,f,c
  6986   002822  EF15  F014         	goto	l2689
  6987   002826                     l2687:
  6988   002826  90D8               	bcf	status,0,c
  6989   002828  3629               	rlcf	___fladd@grs^0,f,c
  6990   00282A                     l2689:
  6991   00282A  5028               	movf	___fladd@bexp^0,w,c
  6992   00282C  B4D8               	btfsc	status,2,c
  6993   00282E  EF1B  F014         	goto	u2381
  6994   002832  EF1D  F014         	goto	u2380
  6995   002836                     u2381:
  6996   002836  EF1E  F014         	goto	l2693
  6997   00283A                     u2380:
  6998   00283A  0628               	decf	___fladd@bexp^0,f,c
  6999   00283C                     l2693:
  7000   00283C  AE1C               	btfss	(___fladd@b+2)^0,7,c
  7001   00283E  EF23  F014         	goto	u2391
  7002   002842  EF25  F014         	goto	u2390
  7003   002846                     u2391:
  7004   002846  EFFB  F013         	goto	l2677
  7005   00284A                     u2390:
  7006   00284A                     l2695:
  7007   00284A  0E00               	movlw	0
  7008   00284C  6E27               	movwf	___fladd@aexp^0,c
  7009   00284E  AE29               	btfss	___fladd@grs^0,7,c
  7010   002850  EF2C  F014         	goto	u2401
  7011   002854  EF2E  F014         	goto	u2400
  7012   002858                     u2401:
  7013   002858  EF46  F014         	goto	l795
  7014   00285C                     u2400:
  7015   00285C  C029  F022         	movff	___fladd@grs,??___fladd
  7016   002860  0E7F               	movlw	127
  7017   002862  1622               	andwf	??___fladd^0,f,c
  7018   002864  B4D8               	btfsc	status,2,c
  7019   002866  EF37  F014         	goto	u2411
  7020   00286A  EF39  F014         	goto	u2410
  7021   00286E                     u2411:
  7022   00286E  EF3D  F014         	goto	l796
  7023   002872                     u2410:
  7024   002872                     l2701:
  7025   002872  0E01               	movlw	1
  7026   002874  6E27               	movwf	___fladd@aexp^0,c
  7027   002876  EF46  F014         	goto	l795
  7028   00287A                     l796:
  7029   00287A  A01A               	btfss	___fladd@b^0,0,c
  7030   00287C  EF42  F014         	goto	u2421
  7031   002880  EF44  F014         	goto	u2420
  7032   002884                     u2421:
  7033   002884  EF46  F014         	goto	l795
  7034   002888                     u2420:
  7035   002888  EF39  F014         	goto	l2701
  7036   00288C                     l795:
  7037   00288C  5027               	movf	___fladd@aexp^0,w,c
  7038   00288E  B4D8               	btfsc	status,2,c
  7039   002890  EF4C  F014         	goto	u2431
  7040   002894  EF4E  F014         	goto	u2430
  7041   002898                     u2431:
  7042   002898  EF79  F014         	goto	l2713
  7043   00289C                     u2430:
  7044   00289C  0E01               	movlw	1
  7045   00289E  261A               	addwf	___fladd@b^0,f,c
  7046   0028A0  0E00               	movlw	0
  7047   0028A2  221B               	addwfc	(___fladd@b+1)^0,f,c
  7048   0028A4  221C               	addwfc	(___fladd@b+2)^0,f,c
  7049   0028A6  221D               	addwfc	(___fladd@b+3)^0,f,c
  7050   0028A8  A01D               	btfss	(___fladd@b+3)^0,0,c
  7051   0028AA  EF59  F014         	goto	u2441
  7052   0028AE  EF5B  F014         	goto	u2440
  7053   0028B2                     u2441:
  7054   0028B2  EF79  F014         	goto	l2713
  7055   0028B6                     u2440:
  7056   0028B6  C01A  F022         	movff	___fladd@b,??___fladd
  7057   0028BA  C01B  F023         	movff	___fladd@b+1,??___fladd+1
  7058   0028BE  C01C  F024         	movff	___fladd@b+2,??___fladd+2
  7059   0028C2  C01D  F025         	movff	___fladd@b+3,??___fladd+3
  7060   0028C6  3425               	rlcf	(??___fladd+3)^0,w,c
  7061   0028C8  3225               	rrcf	(??___fladd+3)^0,f,c
  7062   0028CA  3224               	rrcf	(??___fladd+2)^0,f,c
  7063   0028CC  3223               	rrcf	(??___fladd+1)^0,f,c
  7064   0028CE  3222               	rrcf	??___fladd^0,f,c
  7065   0028D0  C022  F01A         	movff	??___fladd,___fladd@b
  7066   0028D4  C023  F01B         	movff	??___fladd+1,___fladd@b+1
  7067   0028D8  C024  F01C         	movff	??___fladd+2,___fladd@b+2
  7068   0028DC  C025  F01D         	movff	??___fladd+3,___fladd@b+3
  7069   0028E0  2828               	incf	___fladd@bexp^0,w,c
  7070   0028E2  B4D8               	btfsc	status,2,c
  7071   0028E4  EF76  F014         	goto	u2451
  7072   0028E8  EF78  F014         	goto	u2450
  7073   0028EC                     u2451:
  7074   0028EC  EF79  F014         	goto	l2713
  7075   0028F0                     u2450:
  7076   0028F0  2A28               	incf	___fladd@bexp^0,f,c
  7077   0028F2                     l2713:
  7078   0028F2  2828               	incf	___fladd@bexp^0,w,c
  7079   0028F4  B4D8               	btfsc	status,2,c
  7080   0028F6  EF7F  F014         	goto	u2461
  7081   0028FA  EF81  F014         	goto	u2460
  7082   0028FE                     u2461:
  7083   0028FE  EF89  F014         	goto	l2717
  7084   002902                     u2460:
  7085   002902  5028               	movf	___fladd@bexp^0,w,c
  7086   002904  A4D8               	btfss	status,2,c
  7087   002906  EF87  F014         	goto	u2471
  7088   00290A  EF89  F014         	goto	u2470
  7089   00290E                     u2471:
  7090   00290E  EF9B  F014         	goto	l2721
  7091   002912                     u2470:
  7092   002912                     l2717:
  7093   002912  0E00               	movlw	0
  7094   002914  6E1A               	movwf	___fladd@b^0,c
  7095   002916  0E00               	movlw	0
  7096   002918  6E1B               	movwf	(___fladd@b+1)^0,c
  7097   00291A  0E00               	movlw	0
  7098   00291C  6E1C               	movwf	(___fladd@b+2)^0,c
  7099   00291E  0E00               	movlw	0
  7100   002920  6E1D               	movwf	(___fladd@b+3)^0,c
  7101   002922  5028               	movf	___fladd@bexp^0,w,c
  7102   002924  A4D8               	btfss	status,2,c
  7103   002926  EF97  F014         	goto	u2481
  7104   00292A  EF99  F014         	goto	u2480
  7105   00292E                     u2481:
  7106   00292E  EF9B  F014         	goto	l2721
  7107   002932                     u2480:
  7108   002932  0E00               	movlw	0
  7109   002934  6E26               	movwf	___fladd@signs^0,c
  7110   002936                     l2721:
  7111   002936  A028               	btfss	___fladd@bexp^0,0,c
  7112   002938  EFA0  F014         	goto	u2491
  7113   00293C  EFA2  F014         	goto	u2490
  7114   002940                     u2491:
  7115   002940  EFA5  F014         	goto	l2725
  7116   002944                     u2490:
  7117   002944  8E1C               	bsf	(___fladd@b+2)^0,7,c
  7118   002946  EFA6  F014         	goto	l2727
  7119   00294A                     l2725:
  7120   00294A  9E1C               	bcf	(___fladd@b+2)^0,7,c
  7121   00294C                     l2727:
  7122   00294C  90D8               	bcf	status,0,c
  7123   00294E  3028               	rrcf	___fladd@bexp^0,w,c
  7124   002950  6E1D               	movwf	(___fladd@b+3)^0,c
  7125   002952  AE26               	btfss	___fladd@signs^0,7,c
  7126   002954  EFAE  F014         	goto	u2501
  7127   002958  EFB0  F014         	goto	u2500
  7128   00295C                     u2501:
  7129   00295C  EFB1  F014         	goto	l2733
  7130   002960                     u2500:
  7131   002960  8E1D               	bsf	(___fladd@b+3)^0,7,c
  7132   002962                     l2733:
  7133   002962  C01A  F01A         	movff	___fladd@b,?___fladd
  7134   002966  C01B  F01B         	movff	___fladd@b+1,?___fladd+1
  7135   00296A  C01C  F01C         	movff	___fladd@b+2,?___fladd+2
  7136   00296E  C01D  F01D         	movff	___fladd@b+3,?___fladd+3
  7137   002972                     l778:
  7138   002972  0012               	return		;funcret
  7139   002974                     __end_of___fladd:
  7140                           	callstack 0
  7141                           
  7142 ;; *************** function ___flneg *****************
  7143 ;; Defined at:
  7144 ;;		line 15 in file "C:\Program Files\Microchip\xc8\v2.40\pic\sources\c99\common\flneg.c"
  7145 ;; Parameters:    Size  Location     Type
  7146 ;;  f1              4    0[COMRAM] unsigned char 
  7147 ;; Auto vars:     Size  Location     Type
  7148 ;;		None
  7149 ;; Return value:  Size  Location     Type
  7150 ;;                  4    0[COMRAM] unsigned char 
  7151 ;; Registers used:
  7152 ;;		wreg, status,2, status,0
  7153 ;; Tracked objects:
  7154 ;;		On entry : 0/0
  7155 ;;		On exit  : 0/0
  7156 ;;		Unchanged: 0/0
  7157 ;; Data sizes:     COMRAM   BANK0   BANK1   BANK2   BANK3   BANK4   BANK5   BANK6   BANK7   BANK8   BANK9  BANK10  BANK1
      +1  BANK12  BANK13
  7158 ;;      Params:         4       0       0       0       0       0       0       0       0       0       0       0       
      +0       0       0
  7159 ;;      Locals:         0       0       0       0       0       0       0       0       0       0       0       0       
      +0       0       0
  7160 ;;      Temps:          0       0       0       0       0       0       0       0       0       0       0       0       
      +0       0       0
  7161 ;;      Totals:         4       0       0       0       0       0       0       0       0       0       0       0       
      +0       0       0
  7162 ;;Total ram usage:        4 bytes
  7163 ;; Hardware stack levels used: 1
  7164 ;; This function calls:
  7165 ;;		Nothing
  7166 ;; This function is called by:
  7167 ;;		_efgtoa
  7168 ;; This function uses a non-reentrant model
  7169 ;;
  7170                           
  7171                           	psect	text35
  7172   004312                     __ptext35:
  7173                           	callstack 0
  7174   004312                     ___flneg:
  7175                           	callstack 25
  7176   004312  5001               	movf	___flneg@f1^0,w,c
  7177   004314  1002               	iorwf	(___flneg@f1+1)^0,w,c
  7178   004316  1003               	iorwf	(___flneg@f1+2)^0,w,c
  7179   004318  1004               	iorwf	(___flneg@f1+3)^0,w,c
  7180   00431A  B4D8               	btfsc	status,2,c
  7181   00431C  EF92  F021         	goto	u3021
  7182   004320  EF94  F021         	goto	u3020
  7183   004324                     u3021:
  7184   004324  EF9C  F021         	goto	l3061
  7185   004328                     u3020:
  7186   004328  0E00               	movlw	0
  7187   00432A  1A01               	xorwf	___flneg@f1^0,f,c
  7188   00432C  0E00               	movlw	0
  7189   00432E  1A02               	xorwf	(___flneg@f1+1)^0,f,c
  7190   004330  0E00               	movlw	0
  7191   004332  1A03               	xorwf	(___flneg@f1+2)^0,f,c
  7192   004334  0E80               	movlw	128
  7193   004336  1A04               	xorwf	(___flneg@f1+3)^0,f,c
  7194   004338                     l3061:
  7195   004338  C001  F001         	movff	___flneg@f1,?___flneg
  7196   00433C  C002  F002         	movff	___flneg@f1+1,?___flneg+1
  7197   004340  C003  F003         	movff	___flneg@f1+2,?___flneg+2
  7198   004344  C004  F004         	movff	___flneg@f1+3,?___flneg+3
  7199   004348  0012               	return		;funcret
  7200   00434A                     __end_of___flneg:
  7201                           	callstack 0
  7202                           
  7203 ;; *************** function ___flmul *****************
  7204 ;; Defined at:
  7205 ;;		line 8 in file "C:\Program Files\Microchip\xc8\v2.40\pic\sources\c99\common\sprcmul.c"
  7206 ;; Parameters:    Size  Location     Type
  7207 ;;  b               4   74[COMRAM] unsigned char 
  7208 ;;  a               4   78[COMRAM] unsigned char 
  7209 ;; Auto vars:     Size  Location     Type
  7210 ;;  prod            4    7[BANK0 ] struct .
  7211 ;;  grs             4    1[BANK0 ] unsigned long 
  7212 ;;  temp            2   11[BANK0 ] struct .
  7213 ;;  bexp            1    6[BANK0 ] unsigned char 
  7214 ;;  aexp            1    5[BANK0 ] unsigned char 
  7215 ;;  sign            1    0[BANK0 ] unsigned char 
  7216 ;; Return value:  Size  Location     Type
  7217 ;;                  4   74[COMRAM] unsigned char 
  7218 ;; Registers used:
  7219 ;;		wreg, status,2, status,0, prodl, prodh
  7220 ;; Tracked objects:
  7221 ;;		On entry : 0/0
  7222 ;;		On exit  : 0/0
  7223 ;;		Unchanged: 0/0
  7224 ;; Data sizes:     COMRAM   BANK0   BANK1   BANK2   BANK3   BANK4   BANK5   BANK6   BANK7   BANK8   BANK9  BANK10  BANK1
      +1  BANK12  BANK13
  7225 ;;      Params:         8       0       0       0       0       0       0       0       0       0       0       0       
      +0       0       0
  7226 ;;      Locals:         0      13       0       0       0       0       0       0       0       0       0       0       
      +0       0       0
  7227 ;;      Temps:          4       0       0       0       0       0       0       0       0       0       0       0       
      +0       0       0
  7228 ;;      Totals:        12      13       0       0       0       0       0       0       0       0       0       0       
      +0       0       0
  7229 ;;Total ram usage:       25 bytes
  7230 ;; Hardware stack levels used: 1
  7231 ;; This function calls:
  7232 ;;		Nothing
  7233 ;; This function is called by:
  7234 ;;		_RGB2Hue
  7235 ;;		_efgtoa
  7236 ;; This function uses a non-reentrant model
  7237 ;;
  7238                           
  7239                           	psect	text36
  7240   002974                     __ptext36:
  7241                           	callstack 0
  7242   002974                     ___flmul:
  7243                           	callstack 29
  7244   002974  504E               	movf	(___flmul@b+3)^0,w,c
  7245   002976  0B80               	andlw	128
  7246   002978  0100               	movlb	0	; () banked
  7247   00297A  6F60               	movwf	___flmul@sign& (0+255),b
  7248   00297C  504E               	movf	(___flmul@b+3)^0,w,c
  7249   00297E  244E               	addwf	(___flmul@b+3)^0,w,c
  7250   002980  6F66               	movwf	___flmul@bexp& (0+255),b
  7251   002982                     
  7252                           ; BSR set to: 0
  7253   002982  AE4D               	btfss	(___flmul@b+2)^0,7,c
  7254   002984  EFC6  F014         	goto	u2751
  7255   002988  EFC8  F014         	goto	u2750
  7256   00298C                     u2751:
  7257   00298C  EFC9  F014         	goto	l2889
  7258   002990                     u2750:
  7259   002990                     
  7260                           ; BSR set to: 0
  7261   002990  8166               	bsf	___flmul@bexp& (0+255),0,b
  7262   002992                     l2889:
  7263                           
  7264                           ; BSR set to: 0
  7265   002992  5166               	movf	___flmul@bexp& (0+255),w,b
  7266   002994  B4D8               	btfsc	status,2,c
  7267   002996  EFCF  F014         	goto	u2761
  7268   00299A  EFD1  F014         	goto	u2760
  7269   00299E                     u2761:
  7270   00299E  EFE4  F014         	goto	l2897
  7271   0029A2                     u2760:
  7272   0029A2                     
  7273                           ; BSR set to: 0
  7274   0029A2  2966               	incf	___flmul@bexp& (0+255),w,b
  7275   0029A4  A4D8               	btfss	status,2,c
  7276   0029A6  EFD7  F014         	goto	u2771
  7277   0029AA  EFD9  F014         	goto	u2770
  7278   0029AE                     u2771:
  7279   0029AE  EFE1  F014         	goto	l2895
  7280   0029B2                     u2770:
  7281   0029B2                     
  7282                           ; BSR set to: 0
  7283   0029B2  0E00               	movlw	0
  7284   0029B4  6E4B               	movwf	___flmul@b^0,c
  7285   0029B6  0E00               	movlw	0
  7286   0029B8  6E4C               	movwf	(___flmul@b+1)^0,c
  7287   0029BA  0E00               	movlw	0
  7288   0029BC  6E4D               	movwf	(___flmul@b+2)^0,c
  7289   0029BE  0E00               	movlw	0
  7290   0029C0  6E4E               	movwf	(___flmul@b+3)^0,c
  7291   0029C2                     l2895:
  7292                           
  7293                           ; BSR set to: 0
  7294   0029C2  8E4D               	bsf	(___flmul@b+2)^0,7,c
  7295   0029C4  EFEC  F014         	goto	l2899
  7296   0029C8                     l2897:
  7297                           
  7298                           ; BSR set to: 0
  7299   0029C8  0E00               	movlw	0
  7300   0029CA  6E4B               	movwf	___flmul@b^0,c
  7301   0029CC  0E00               	movlw	0
  7302   0029CE  6E4C               	movwf	(___flmul@b+1)^0,c
  7303   0029D0  0E00               	movlw	0
  7304   0029D2  6E4D               	movwf	(___flmul@b+2)^0,c
  7305   0029D4  0E00               	movlw	0
  7306   0029D6  6E4E               	movwf	(___flmul@b+3)^0,c
  7307   0029D8                     l2899:
  7308                           
  7309                           ; BSR set to: 0
  7310   0029D8  5052               	movf	(___flmul@a+3)^0,w,c
  7311   0029DA  0B80               	andlw	128
  7312   0029DC  1B60               	xorwf	___flmul@sign& (0+255),f,b
  7313   0029DE                     
  7314                           ; BSR set to: 0
  7315   0029DE  5052               	movf	(___flmul@a+3)^0,w,c
  7316   0029E0  2452               	addwf	(___flmul@a+3)^0,w,c
  7317   0029E2  6F65               	movwf	___flmul@aexp& (0+255),b
  7318   0029E4                     
  7319                           ; BSR set to: 0
  7320   0029E4  AE51               	btfss	(___flmul@a+2)^0,7,c
  7321   0029E6  EFF7  F014         	goto	u2781
  7322   0029EA  EFF9  F014         	goto	u2780
  7323   0029EE                     u2781:
  7324   0029EE  EFFA  F014         	goto	l2907
  7325   0029F2                     u2780:
  7326   0029F2                     
  7327                           ; BSR set to: 0
  7328   0029F2  8165               	bsf	___flmul@aexp& (0+255),0,b
  7329   0029F4                     l2907:
  7330                           
  7331                           ; BSR set to: 0
  7332   0029F4  5165               	movf	___flmul@aexp& (0+255),w,b
  7333   0029F6  B4D8               	btfsc	status,2,c
  7334   0029F8  EF00  F015         	goto	u2791
  7335   0029FC  EF02  F015         	goto	u2790
  7336   002A00                     u2791:
  7337   002A00  EF15  F015         	goto	l2915
  7338   002A04                     u2790:
  7339   002A04                     
  7340                           ; BSR set to: 0
  7341   002A04  2965               	incf	___flmul@aexp& (0+255),w,b
  7342   002A06  A4D8               	btfss	status,2,c
  7343   002A08  EF08  F015         	goto	u2801
  7344   002A0C  EF0A  F015         	goto	u2800
  7345   002A10                     u2801:
  7346   002A10  EF12  F015         	goto	l2913
  7347   002A14                     u2800:
  7348   002A14                     
  7349                           ; BSR set to: 0
  7350   002A14  0E00               	movlw	0
  7351   002A16  6E4F               	movwf	___flmul@a^0,c
  7352   002A18  0E00               	movlw	0
  7353   002A1A  6E50               	movwf	(___flmul@a+1)^0,c
  7354   002A1C  0E00               	movlw	0
  7355   002A1E  6E51               	movwf	(___flmul@a+2)^0,c
  7356   002A20  0E00               	movlw	0
  7357   002A22  6E52               	movwf	(___flmul@a+3)^0,c
  7358   002A24                     l2913:
  7359                           
  7360                           ; BSR set to: 0
  7361   002A24  8E51               	bsf	(___flmul@a+2)^0,7,c
  7362   002A26  EF1D  F015         	goto	l855
  7363   002A2A                     l2915:
  7364                           
  7365                           ; BSR set to: 0
  7366   002A2A  0E00               	movlw	0
  7367   002A2C  6E4F               	movwf	___flmul@a^0,c
  7368   002A2E  0E00               	movlw	0
  7369   002A30  6E50               	movwf	(___flmul@a+1)^0,c
  7370   002A32  0E00               	movlw	0
  7371   002A34  6E51               	movwf	(___flmul@a+2)^0,c
  7372   002A36  0E00               	movlw	0
  7373   002A38  6E52               	movwf	(___flmul@a+3)^0,c
  7374   002A3A                     l855:
  7375                           
  7376                           ; BSR set to: 0
  7377   002A3A  5165               	movf	___flmul@aexp& (0+255),w,b
  7378   002A3C  B4D8               	btfsc	status,2,c
  7379   002A3E  EF23  F015         	goto	u2811
  7380   002A42  EF25  F015         	goto	u2810
  7381   002A46                     u2811:
  7382   002A46  EF2D  F015         	goto	l2919
  7383   002A4A                     u2810:
  7384   002A4A                     
  7385                           ; BSR set to: 0
  7386   002A4A  5166               	movf	___flmul@bexp& (0+255),w,b
  7387   002A4C  A4D8               	btfss	status,2,c
  7388   002A4E  EF2B  F015         	goto	u2821
  7389   002A52  EF2D  F015         	goto	u2820
  7390   002A56                     u2821:
  7391   002A56  EF37  F015         	goto	l2923
  7392   002A5A                     u2820:
  7393   002A5A                     l2919:
  7394                           
  7395                           ; BSR set to: 0
  7396   002A5A  0E00               	movlw	0
  7397   002A5C  6E4B               	movwf	?___flmul^0,c
  7398   002A5E  0E00               	movlw	0
  7399   002A60  6E4C               	movwf	(?___flmul+1)^0,c
  7400   002A62  0E00               	movlw	0
  7401   002A64  6E4D               	movwf	(?___flmul+2)^0,c
  7402   002A66  0E00               	movlw	0
  7403   002A68  6E4E               	movwf	(?___flmul+3)^0,c
  7404   002A6A  EFCF  F016         	goto	l859
  7405   002A6E                     l2923:
  7406                           
  7407                           ; BSR set to: 0
  7408   002A6E  5051               	movf	(___flmul@a+2)^0,w,c
  7409   002A70  024B               	mulwf	___flmul@b^0,c
  7410   002A72  CFF3 F06B          	movff	prodl,___flmul@temp
  7411   002A76  CFF4 F06C          	movff	prodh,___flmul@temp+1
  7412   002A7A                     
  7413                           ; BSR set to: 0
  7414   002A7A  516B               	movf	___flmul@temp& (0+255),w,b
  7415   002A7C  6F61               	movwf	___flmul@grs& (0+255),b
  7416   002A7E  6B62               	clrf	(___flmul@grs+1)& (0+255),b
  7417   002A80  6B63               	clrf	(___flmul@grs+2)& (0+255),b
  7418   002A82  6B64               	clrf	(___flmul@grs+3)& (0+255),b
  7419   002A84                     
  7420                           ; BSR set to: 0
  7421   002A84  516C               	movf	(___flmul@temp+1)& (0+255),w,b
  7422   002A86  6F67               	movwf	___flmul@prod& (0+255),b
  7423   002A88  6B68               	clrf	(___flmul@prod+1)& (0+255),b
  7424   002A8A  6B69               	clrf	(___flmul@prod+2)& (0+255),b
  7425   002A8C  6B6A               	clrf	(___flmul@prod+3)& (0+255),b
  7426   002A8E  5050               	movf	(___flmul@a+1)^0,w,c
  7427   002A90  024C               	mulwf	(___flmul@b+1)^0,c
  7428   002A92  CFF3 F06B          	movff	prodl,___flmul@temp
  7429   002A96  CFF4 F06C          	movff	prodh,___flmul@temp+1
  7430   002A9A                     
  7431                           ; BSR set to: 0
  7432   002A9A  516B               	movf	___flmul@temp& (0+255),w,b
  7433   002A9C  2761               	addwf	___flmul@grs& (0+255),f,b
  7434   002A9E  0E00               	movlw	0
  7435   002AA0  2362               	addwfc	(___flmul@grs+1)& (0+255),f,b
  7436   002AA2  2363               	addwfc	(___flmul@grs+2)& (0+255),f,b
  7437   002AA4  2364               	addwfc	(___flmul@grs+3)& (0+255),f,b
  7438   002AA6                     
  7439                           ; BSR set to: 0
  7440   002AA6  516C               	movf	(___flmul@temp+1)& (0+255),w,b
  7441   002AA8  2767               	addwf	___flmul@prod& (0+255),f,b
  7442   002AAA  0E00               	movlw	0
  7443   002AAC  2368               	addwfc	(___flmul@prod+1)& (0+255),f,b
  7444   002AAE  2369               	addwfc	(___flmul@prod+2)& (0+255),f,b
  7445   002AB0  236A               	addwfc	(___flmul@prod+3)& (0+255),f,b
  7446   002AB2  504F               	movf	___flmul@a^0,w,c
  7447   002AB4  024D               	mulwf	(___flmul@b+2)^0,c
  7448   002AB6  CFF3 F06B          	movff	prodl,___flmul@temp
  7449   002ABA  CFF4 F06C          	movff	prodh,___flmul@temp+1
  7450   002ABE                     
  7451                           ; BSR set to: 0
  7452   002ABE  516B               	movf	___flmul@temp& (0+255),w,b
  7453   002AC0  2761               	addwf	___flmul@grs& (0+255),f,b
  7454   002AC2  0E00               	movlw	0
  7455   002AC4  2362               	addwfc	(___flmul@grs+1)& (0+255),f,b
  7456   002AC6  2363               	addwfc	(___flmul@grs+2)& (0+255),f,b
  7457   002AC8  2364               	addwfc	(___flmul@grs+3)& (0+255),f,b
  7458   002ACA                     
  7459                           ; BSR set to: 0
  7460   002ACA  516C               	movf	(___flmul@temp+1)& (0+255),w,b
  7461   002ACC  2767               	addwf	___flmul@prod& (0+255),f,b
  7462   002ACE  0E00               	movlw	0
  7463   002AD0  2368               	addwfc	(___flmul@prod+1)& (0+255),f,b
  7464   002AD2  2369               	addwfc	(___flmul@prod+2)& (0+255),f,b
  7465   002AD4  236A               	addwfc	(___flmul@prod+3)& (0+255),f,b
  7466   002AD6                     
  7467                           ; BSR set to: 0
  7468   002AD6  C063  F064         	movff	___flmul@grs+2,___flmul@grs+3
  7469   002ADA  C062  F063         	movff	___flmul@grs+1,___flmul@grs+2
  7470   002ADE  C061  F062         	movff	___flmul@grs,___flmul@grs+1
  7471   002AE2  6B61               	clrf	___flmul@grs& (0+255),b
  7472   002AE4                     
  7473                           ; BSR set to: 0
  7474   002AE4  504F               	movf	___flmul@a^0,w,c
  7475   002AE6  024C               	mulwf	(___flmul@b+1)^0,c
  7476   002AE8  CFF3 F06B          	movff	prodl,___flmul@temp
  7477   002AEC  CFF4 F06C          	movff	prodh,___flmul@temp+1
  7478   002AF0                     
  7479                           ; BSR set to: 0
  7480   002AF0  516B               	movf	___flmul@temp& (0+255),w,b
  7481   002AF2  2761               	addwf	___flmul@grs& (0+255),f,b
  7482   002AF4  516C               	movf	(___flmul@temp+1)& (0+255),w,b
  7483   002AF6  2362               	addwfc	(___flmul@grs+1)& (0+255),f,b
  7484   002AF8  0E00               	movlw	0
  7485   002AFA  2363               	addwfc	(___flmul@grs+2)& (0+255),f,b
  7486   002AFC  0E00               	movlw	0
  7487   002AFE  2364               	addwfc	(___flmul@grs+3)& (0+255),f,b
  7488   002B00                     
  7489                           ; BSR set to: 0
  7490   002B00  5050               	movf	(___flmul@a+1)^0,w,c
  7491   002B02  024B               	mulwf	___flmul@b^0,c
  7492   002B04  CFF3 F06B          	movff	prodl,___flmul@temp
  7493   002B08  CFF4 F06C          	movff	prodh,___flmul@temp+1
  7494   002B0C                     
  7495                           ; BSR set to: 0
  7496   002B0C  516B               	movf	___flmul@temp& (0+255),w,b
  7497   002B0E  2761               	addwf	___flmul@grs& (0+255),f,b
  7498   002B10  516C               	movf	(___flmul@temp+1)& (0+255),w,b
  7499   002B12  2362               	addwfc	(___flmul@grs+1)& (0+255),f,b
  7500   002B14  0E00               	movlw	0
  7501   002B16  2363               	addwfc	(___flmul@grs+2)& (0+255),f,b
  7502   002B18  0E00               	movlw	0
  7503   002B1A  2364               	addwfc	(___flmul@grs+3)& (0+255),f,b
  7504   002B1C                     
  7505                           ; BSR set to: 0
  7506   002B1C  C063  F064         	movff	___flmul@grs+2,___flmul@grs+3
  7507   002B20  C062  F063         	movff	___flmul@grs+1,___flmul@grs+2
  7508   002B24  C061  F062         	movff	___flmul@grs,___flmul@grs+1
  7509   002B28  6B61               	clrf	___flmul@grs& (0+255),b
  7510   002B2A  504F               	movf	___flmul@a^0,w,c
  7511   002B2C  024B               	mulwf	___flmul@b^0,c
  7512   002B2E  CFF3 F06B          	movff	prodl,___flmul@temp
  7513   002B32  CFF4 F06C          	movff	prodh,___flmul@temp+1
  7514   002B36                     
  7515                           ; BSR set to: 0
  7516   002B36  516B               	movf	___flmul@temp& (0+255),w,b
  7517   002B38  2761               	addwf	___flmul@grs& (0+255),f,b
  7518   002B3A  516C               	movf	(___flmul@temp+1)& (0+255),w,b
  7519   002B3C  2362               	addwfc	(___flmul@grs+1)& (0+255),f,b
  7520   002B3E  0E00               	movlw	0
  7521   002B40  2363               	addwfc	(___flmul@grs+2)& (0+255),f,b
  7522   002B42  0E00               	movlw	0
  7523   002B44  2364               	addwfc	(___flmul@grs+3)& (0+255),f,b
  7524   002B46                     
  7525                           ; BSR set to: 0
  7526   002B46  5051               	movf	(___flmul@a+2)^0,w,c
  7527   002B48  024C               	mulwf	(___flmul@b+1)^0,c
  7528   002B4A  CFF3 F06B          	movff	prodl,___flmul@temp
  7529   002B4E  CFF4 F06C          	movff	prodh,___flmul@temp+1
  7530   002B52  516B               	movf	___flmul@temp& (0+255),w,b
  7531   002B54  2767               	addwf	___flmul@prod& (0+255),f,b
  7532   002B56  516C               	movf	(___flmul@temp+1)& (0+255),w,b
  7533   002B58  2368               	addwfc	(___flmul@prod+1)& (0+255),f,b
  7534   002B5A  0E00               	movlw	0
  7535   002B5C  2369               	addwfc	(___flmul@prod+2)& (0+255),f,b
  7536   002B5E  0E00               	movlw	0
  7537   002B60  236A               	addwfc	(___flmul@prod+3)& (0+255),f,b
  7538   002B62                     
  7539                           ; BSR set to: 0
  7540   002B62  5050               	movf	(___flmul@a+1)^0,w,c
  7541   002B64  024D               	mulwf	(___flmul@b+2)^0,c
  7542   002B66  CFF3 F06B          	movff	prodl,___flmul@temp
  7543   002B6A  CFF4 F06C          	movff	prodh,___flmul@temp+1
  7544   002B6E                     
  7545                           ; BSR set to: 0
  7546   002B6E  516B               	movf	___flmul@temp& (0+255),w,b
  7547   002B70  2767               	addwf	___flmul@prod& (0+255),f,b
  7548   002B72  516C               	movf	(___flmul@temp+1)& (0+255),w,b
  7549   002B74  2368               	addwfc	(___flmul@prod+1)& (0+255),f,b
  7550   002B76  0E00               	movlw	0
  7551   002B78  2369               	addwfc	(___flmul@prod+2)& (0+255),f,b
  7552   002B7A  0E00               	movlw	0
  7553   002B7C  236A               	addwfc	(___flmul@prod+3)& (0+255),f,b
  7554   002B7E  5051               	movf	(___flmul@a+2)^0,w,c
  7555   002B80  024D               	mulwf	(___flmul@b+2)^0,c
  7556   002B82  CFF3 F06B          	movff	prodl,___flmul@temp
  7557   002B86  CFF4 F06C          	movff	prodh,___flmul@temp+1
  7558   002B8A                     
  7559                           ; BSR set to: 0
  7560   002B8A  516B               	movf	___flmul@temp& (0+255),w,b
  7561   002B8C  6E53               	movwf	??___flmul^0,c
  7562   002B8E  516C               	movf	(___flmul@temp+1)& (0+255),w,b
  7563   002B90  6E54               	movwf	(??___flmul+1)^0,c
  7564   002B92  6A55               	clrf	(??___flmul+2)^0,c
  7565   002B94  6A56               	clrf	(??___flmul+3)^0,c
  7566   002B96  C055  F056         	movff	??___flmul+2,??___flmul+3
  7567   002B9A  C054  F055         	movff	??___flmul+1,??___flmul+2
  7568   002B9E  C053  F054         	movff	??___flmul,??___flmul+1
  7569   002BA2  6A53               	clrf	??___flmul^0,c
  7570   002BA4  5053               	movf	??___flmul^0,w,c
  7571   002BA6  2767               	addwf	___flmul@prod& (0+255),f,b
  7572   002BA8  5054               	movf	(??___flmul+1)^0,w,c
  7573   002BAA  2368               	addwfc	(___flmul@prod+1)& (0+255),f,b
  7574   002BAC  5055               	movf	(??___flmul+2)^0,w,c
  7575   002BAE  2369               	addwfc	(___flmul@prod+2)& (0+255),f,b
  7576   002BB0  5056               	movf	(??___flmul+3)^0,w,c
  7577   002BB2  236A               	addwfc	(___flmul@prod+3)& (0+255),f,b
  7578   002BB4                     
  7579                           ; BSR set to: 0
  7580   002BB4  C061  F053         	movff	___flmul@grs,??___flmul
  7581   002BB8  C062  F054         	movff	___flmul@grs+1,??___flmul+1
  7582   002BBC  C063  F055         	movff	___flmul@grs+2,??___flmul+2
  7583   002BC0  C064  F056         	movff	___flmul@grs+3,??___flmul+3
  7584   002BC4  0E19               	movlw	25
  7585   002BC6  EFEA  F015         	goto	u2830
  7586   002BCA                     u2835:
  7587   002BCA  90D8               	bcf	status,0,c
  7588   002BCC  3256               	rrcf	(??___flmul+3)^0,f,c
  7589   002BCE  3255               	rrcf	(??___flmul+2)^0,f,c
  7590   002BD0  3254               	rrcf	(??___flmul+1)^0,f,c
  7591   002BD2  3253               	rrcf	??___flmul^0,f,c
  7592   002BD4                     u2830:
  7593   002BD4  2EE8               	decfsz	wreg,f,c
  7594   002BD6  EFE5  F015         	goto	u2835
  7595   002BDA  5053               	movf	??___flmul^0,w,c
  7596   002BDC  2767               	addwf	___flmul@prod& (0+255),f,b
  7597   002BDE  5054               	movf	(??___flmul+1)^0,w,c
  7598   002BE0  2368               	addwfc	(___flmul@prod+1)& (0+255),f,b
  7599   002BE2  5055               	movf	(??___flmul+2)^0,w,c
  7600   002BE4  2369               	addwfc	(___flmul@prod+2)& (0+255),f,b
  7601   002BE6  5056               	movf	(??___flmul+3)^0,w,c
  7602   002BE8  236A               	addwfc	(___flmul@prod+3)& (0+255),f,b
  7603   002BEA                     
  7604                           ; BSR set to: 0
  7605   002BEA  C063  F064         	movff	___flmul@grs+2,___flmul@grs+3
  7606   002BEE  C062  F063         	movff	___flmul@grs+1,___flmul@grs+2
  7607   002BF2  C061  F062         	movff	___flmul@grs,___flmul@grs+1
  7608   002BF6  6B61               	clrf	___flmul@grs& (0+255),b
  7609   002BF8                     
  7610                           ; BSR set to: 0
  7611   002BF8  5165               	movf	___flmul@aexp& (0+255),w,b
  7612   002BFA  C066  F053         	movff	___flmul@bexp,??___flmul
  7613   002BFE  6A54               	clrf	(??___flmul+1)^0,c
  7614   002C00  2653               	addwf	??___flmul^0,f,c
  7615   002C02  0E00               	movlw	0
  7616   002C04  2254               	addwfc	(??___flmul+1)^0,f,c
  7617   002C06  0E82               	movlw	130
  7618   002C08  2453               	addwf	??___flmul^0,w,c
  7619   002C0A  6F6B               	movwf	___flmul@temp& (0+255),b
  7620   002C0C  0EFF               	movlw	255
  7621   002C0E  2054               	addwfc	(??___flmul+1)^0,w,c
  7622   002C10  6F6C               	movwf	(___flmul@temp+1)& (0+255),b
  7623   002C12  EF20  F016         	goto	l2971
  7624   002C16                     l2965:
  7625                           
  7626                           ; BSR set to: 0
  7627   002C16  90D8               	bcf	status,0,c
  7628   002C18  3767               	rlcf	___flmul@prod& (0+255),f,b
  7629   002C1A  3768               	rlcf	(___flmul@prod+1)& (0+255),f,b
  7630   002C1C  3769               	rlcf	(___flmul@prod+2)& (0+255),f,b
  7631   002C1E  376A               	rlcf	(___flmul@prod+3)& (0+255),f,b
  7632   002C20                     
  7633                           ; BSR set to: 0
  7634   002C20  AF64               	btfss	(___flmul@grs+3)& (0+255),7,b
  7635   002C22  EF15  F016         	goto	u2841
  7636   002C26  EF17  F016         	goto	u2840
  7637   002C2A                     u2841:
  7638   002C2A  EF18  F016         	goto	l862
  7639   002C2E                     u2840:
  7640   002C2E                     
  7641                           ; BSR set to: 0
  7642   002C2E  8167               	bsf	___flmul@prod& (0+255),0,b
  7643   002C30                     l862:
  7644                           
  7645                           ; BSR set to: 0
  7646   002C30  90D8               	bcf	status,0,c
  7647   002C32  3761               	rlcf	___flmul@grs& (0+255),f,b
  7648   002C34  3762               	rlcf	(___flmul@grs+1)& (0+255),f,b
  7649   002C36  3763               	rlcf	(___flmul@grs+2)& (0+255),f,b
  7650   002C38  3764               	rlcf	(___flmul@grs+3)& (0+255),f,b
  7651   002C3A  076B               	decf	___flmul@temp& (0+255),f,b
  7652   002C3C  A0D8               	btfss	status,0,c
  7653   002C3E  076C               	decf	(___flmul@temp+1)& (0+255),f,b
  7654   002C40                     l2971:
  7655                           
  7656                           ; BSR set to: 0
  7657   002C40  AF69               	btfss	(___flmul@prod+2)& (0+255),7,b
  7658   002C42  EF25  F016         	goto	u2851
  7659   002C46  EF27  F016         	goto	u2850
  7660   002C4A                     u2851:
  7661   002C4A  EF0B  F016         	goto	l2965
  7662   002C4E                     u2850:
  7663   002C4E                     
  7664                           ; BSR set to: 0
  7665   002C4E  0E00               	movlw	0
  7666   002C50  6F65               	movwf	___flmul@aexp& (0+255),b
  7667   002C52                     
  7668                           ; BSR set to: 0
  7669   002C52  AF64               	btfss	(___flmul@grs+3)& (0+255),7,b
  7670   002C54  EF2E  F016         	goto	u2861
  7671   002C58  EF30  F016         	goto	u2860
  7672   002C5C                     u2861:
  7673   002C5C  EF54  F016         	goto	l864
  7674   002C60                     u2860:
  7675   002C60                     
  7676                           ; BSR set to: 0
  7677   002C60  0EFF               	movlw	255
  7678   002C62  1561               	andwf	___flmul@grs& (0+255),w,b
  7679   002C64  6E53               	movwf	??___flmul^0,c
  7680   002C66  0EFF               	movlw	255
  7681   002C68  1562               	andwf	(___flmul@grs+1)& (0+255),w,b
  7682   002C6A  6E54               	movwf	(??___flmul+1)^0,c
  7683   002C6C  0EFF               	movlw	255
  7684   002C6E  1563               	andwf	(___flmul@grs+2)& (0+255),w,b
  7685   002C70  6E55               	movwf	(??___flmul+2)^0,c
  7686   002C72  0E7F               	movlw	127
  7687   002C74  1564               	andwf	(___flmul@grs+3)& (0+255),w,b
  7688   002C76  6E56               	movwf	(??___flmul+3)^0,c
  7689   002C78  5053               	movf	??___flmul^0,w,c
  7690   002C7A  1054               	iorwf	(??___flmul+1)^0,w,c
  7691   002C7C  1055               	iorwf	(??___flmul+2)^0,w,c
  7692   002C7E  1056               	iorwf	(??___flmul+3)^0,w,c
  7693   002C80  B4D8               	btfsc	status,2,c
  7694   002C82  EF45  F016         	goto	u2871
  7695   002C86  EF47  F016         	goto	u2870
  7696   002C8A                     u2871:
  7697   002C8A  EF4B  F016         	goto	l865
  7698   002C8E                     u2870:
  7699   002C8E                     l2979:
  7700                           
  7701                           ; BSR set to: 0
  7702   002C8E  0E01               	movlw	1
  7703   002C90  6F65               	movwf	___flmul@aexp& (0+255),b
  7704   002C92  EF54  F016         	goto	l864
  7705   002C96                     l865:
  7706                           
  7707                           ; BSR set to: 0
  7708   002C96  A167               	btfss	___flmul@prod& (0+255),0,b
  7709   002C98  EF50  F016         	goto	u2881
  7710   002C9C  EF52  F016         	goto	u2880
  7711   002CA0                     u2881:
  7712   002CA0  EF54  F016         	goto	l864
  7713   002CA4                     u2880:
  7714   002CA4  EF47  F016         	goto	l2979
  7715   002CA8                     l864:
  7716                           
  7717                           ; BSR set to: 0
  7718   002CA8  5165               	movf	___flmul@aexp& (0+255),w,b
  7719   002CAA  B4D8               	btfsc	status,2,c
  7720   002CAC  EF5A  F016         	goto	u2891
  7721   002CB0  EF5C  F016         	goto	u2890
  7722   002CB4                     u2891:
  7723   002CB4  EF80  F016         	goto	l2991
  7724   002CB8                     u2890:
  7725   002CB8                     
  7726                           ; BSR set to: 0
  7727   002CB8  0E01               	movlw	1
  7728   002CBA  2767               	addwf	___flmul@prod& (0+255),f,b
  7729   002CBC  0E00               	movlw	0
  7730   002CBE  2368               	addwfc	(___flmul@prod+1)& (0+255),f,b
  7731   002CC0  2369               	addwfc	(___flmul@prod+2)& (0+255),f,b
  7732   002CC2  236A               	addwfc	(___flmul@prod+3)& (0+255),f,b
  7733   002CC4                     
  7734                           ; BSR set to: 0
  7735   002CC4  A16A               	btfss	(___flmul@prod+3)& (0+255),0,b
  7736   002CC6  EF67  F016         	goto	u2901
  7737   002CCA  EF69  F016         	goto	u2900
  7738   002CCE                     u2901:
  7739   002CCE  EF80  F016         	goto	l2991
  7740   002CD2                     u2900:
  7741   002CD2                     
  7742                           ; BSR set to: 0
  7743   002CD2  C067  F053         	movff	___flmul@prod,??___flmul
  7744   002CD6  C068  F054         	movff	___flmul@prod+1,??___flmul+1
  7745   002CDA  C069  F055         	movff	___flmul@prod+2,??___flmul+2
  7746   002CDE  C06A  F056         	movff	___flmul@prod+3,??___flmul+3
  7747   002CE2  3456               	rlcf	(??___flmul+3)^0,w,c
  7748   002CE4  3256               	rrcf	(??___flmul+3)^0,f,c
  7749   002CE6  3255               	rrcf	(??___flmul+2)^0,f,c
  7750   002CE8  3254               	rrcf	(??___flmul+1)^0,f,c
  7751   002CEA  3253               	rrcf	??___flmul^0,f,c
  7752   002CEC  C053  F067         	movff	??___flmul,___flmul@prod
  7753   002CF0  C054  F068         	movff	??___flmul+1,___flmul@prod+1
  7754   002CF4  C055  F069         	movff	??___flmul+2,___flmul@prod+2
  7755   002CF8  C056  F06A         	movff	??___flmul+3,___flmul@prod+3
  7756   002CFC                     
  7757                           ; BSR set to: 0
  7758   002CFC  4B6B               	infsnz	___flmul@temp& (0+255),f,b
  7759   002CFE  2B6C               	incf	(___flmul@temp+1)& (0+255),f,b
  7760   002D00                     l2991:
  7761                           
  7762                           ; BSR set to: 0
  7763   002D00  BF6C               	btfsc	(___flmul@temp+1)& (0+255),7,b
  7764   002D02  EF8B  F016         	goto	u2911
  7765   002D06  516C               	movf	(___flmul@temp+1)& (0+255),w,b
  7766   002D08  E108               	bnz	u2910
  7767   002D0A  296B               	incf	___flmul@temp& (0+255),w,b
  7768   002D0C  A0D8               	btfss	status,0,c
  7769   002D0E  EF8B  F016         	goto	u2911
  7770   002D12  EF8D  F016         	goto	u2910
  7771   002D16                     u2911:
  7772   002D16  EF97  F016         	goto	l2995
  7773   002D1A                     u2910:
  7774   002D1A                     
  7775                           ; BSR set to: 0
  7776   002D1A  0E00               	movlw	0
  7777   002D1C  6F67               	movwf	___flmul@prod& (0+255),b
  7778   002D1E  0E00               	movlw	0
  7779   002D20  6F68               	movwf	(___flmul@prod+1)& (0+255),b
  7780   002D22  0E80               	movlw	128
  7781   002D24  6F69               	movwf	(___flmul@prod+2)& (0+255),b
  7782   002D26  0E7F               	movlw	127
  7783   002D28  6F6A               	movwf	(___flmul@prod+3)& (0+255),b
  7784   002D2A  EFC5  F016         	goto	l3007
  7785   002D2E                     l2995:
  7786                           
  7787                           ; BSR set to: 0
  7788   002D2E  BF6C               	btfsc	(___flmul@temp+1)& (0+255),7,b
  7789   002D30  EFA4  F016         	goto	u2920
  7790   002D34  516C               	movf	(___flmul@temp+1)& (0+255),w,b
  7791   002D36  E106               	bnz	u2921
  7792   002D38  056B               	decf	___flmul@temp& (0+255),w,b
  7793   002D3A  B0D8               	btfsc	status,0,c
  7794   002D3C  EFA2  F016         	goto	u2921
  7795   002D40  EFA4  F016         	goto	u2920
  7796   002D44                     u2921:
  7797   002D44  EFB0  F016         	goto	l872
  7798   002D48                     u2920:
  7799   002D48                     
  7800                           ; BSR set to: 0
  7801   002D48  0E00               	movlw	0
  7802   002D4A  6F67               	movwf	___flmul@prod& (0+255),b
  7803   002D4C  0E00               	movlw	0
  7804   002D4E  6F68               	movwf	(___flmul@prod+1)& (0+255),b
  7805   002D50  0E00               	movlw	0
  7806   002D52  6F69               	movwf	(___flmul@prod+2)& (0+255),b
  7807   002D54  0E00               	movlw	0
  7808   002D56  6F6A               	movwf	(___flmul@prod+3)& (0+255),b
  7809   002D58  0E00               	movlw	0
  7810   002D5A  6F60               	movwf	___flmul@sign& (0+255),b
  7811   002D5C  EFC5  F016         	goto	l3007
  7812   002D60                     l872:
  7813                           
  7814                           ; BSR set to: 0
  7815   002D60  C06B  F066         	movff	___flmul@temp,___flmul@bexp
  7816   002D64                     
  7817                           ; BSR set to: 0
  7818   002D64  0EFF               	movlw	255
  7819   002D66  1767               	andwf	___flmul@prod& (0+255),f,b
  7820   002D68  0EFF               	movlw	255
  7821   002D6A  1768               	andwf	(___flmul@prod+1)& (0+255),f,b
  7822   002D6C  0E7F               	movlw	127
  7823   002D6E  1769               	andwf	(___flmul@prod+2)& (0+255),f,b
  7824   002D70  0E00               	movlw	0
  7825   002D72  176A               	andwf	(___flmul@prod+3)& (0+255),f,b
  7826   002D74                     
  7827                           ; BSR set to: 0
  7828   002D74  A166               	btfss	___flmul@bexp& (0+255),0,b
  7829   002D76  EFBF  F016         	goto	u2931
  7830   002D7A  EFC1  F016         	goto	u2930
  7831   002D7E                     u2931:
  7832   002D7E  EFC2  F016         	goto	l3005
  7833   002D82                     u2930:
  7834   002D82                     
  7835                           ; BSR set to: 0
  7836   002D82  8F69               	bsf	(___flmul@prod+2)& (0+255),7,b
  7837   002D84                     l3005:
  7838                           
  7839                           ; BSR set to: 0
  7840   002D84  90D8               	bcf	status,0,c
  7841   002D86  3166               	rrcf	___flmul@bexp& (0+255),w,b
  7842   002D88  6F6A               	movwf	(___flmul@prod+3)& (0+255),b
  7843   002D8A                     l3007:
  7844                           
  7845                           ; BSR set to: 0
  7846   002D8A  5160               	movf	___flmul@sign& (0+255),w,b
  7847   002D8C  136A               	iorwf	(___flmul@prod+3)& (0+255),f,b
  7848   002D8E                     
  7849                           ; BSR set to: 0
  7850   002D8E  C067  F04B         	movff	___flmul@prod,?___flmul
  7851   002D92  C068  F04C         	movff	___flmul@prod+1,?___flmul+1
  7852   002D96  C069  F04D         	movff	___flmul@prod+2,?___flmul+2
  7853   002D9A  C06A  F04E         	movff	___flmul@prod+3,?___flmul+3
  7854   002D9E                     l859:
  7855                           
  7856                           ; BSR set to: 0
  7857   002D9E  0012               	return		;funcret
  7858   002DA0                     __end_of___flmul:
  7859                           	callstack 0
  7860                           
  7861 ;; *************** function ___fleq *****************
  7862 ;; Defined at:
  7863 ;;		line 4 in file "C:\Program Files\Microchip\xc8\v2.40\pic\sources\c99\common\fleq.c"
  7864 ;; Parameters:    Size  Location     Type
  7865 ;;  ff1             4    0[COMRAM] unsigned char 
  7866 ;;  ff2             4    4[COMRAM] unsigned char 
  7867 ;; Auto vars:     Size  Location     Type
  7868 ;;		None
  7869 ;; Return value:  Size  Location     Type
  7870 ;;		None               void
  7871 ;; Registers used:
  7872 ;;		wreg, status,2, status,0
  7873 ;; Tracked objects:
  7874 ;;		On entry : 0/0
  7875 ;;		On exit  : 0/0
  7876 ;;		Unchanged: 0/0
  7877 ;; Data sizes:     COMRAM   BANK0   BANK1   BANK2   BANK3   BANK4   BANK5   BANK6   BANK7   BANK8   BANK9  BANK10  BANK1
      +1  BANK12  BANK13
  7878 ;;      Params:         8       0       0       0       0       0       0       0       0       0       0       0       
      +0       0       0
  7879 ;;      Locals:         0       0       0       0       0       0       0       0       0       0       0       0       
      +0       0       0
  7880 ;;      Temps:          4       0       0       0       0       0       0       0       0       0       0       0       
      +0       0       0
  7881 ;;      Totals:        12       0       0       0       0       0       0       0       0       0       0       0       
      +0       0       0
  7882 ;;Total ram usage:       12 bytes
  7883 ;; Hardware stack levels used: 1
  7884 ;; This function calls:
  7885 ;;		Nothing
  7886 ;; This function is called by:
  7887 ;;		_RGB2Hue
  7888 ;;		_efgtoa
  7889 ;; This function uses a non-reentrant model
  7890 ;;
  7891                           
  7892                           	psect	text37
  7893   003DC2                     __ptext37:
  7894                           	callstack 0
  7895   003DC2                     ___fleq:
  7896                           	callstack 29
  7897   003DC2  0E00               	movlw	0
  7898   003DC4  1401               	andwf	___fleq@ff1^0,w,c
  7899   003DC6  6E09               	movwf	??___fleq^0,c
  7900   003DC8  0E00               	movlw	0
  7901   003DCA  1402               	andwf	(___fleq@ff1+1)^0,w,c
  7902   003DCC  6E0A               	movwf	(??___fleq+1)^0,c
  7903   003DCE  0E80               	movlw	128
  7904   003DD0  1403               	andwf	(___fleq@ff1+2)^0,w,c
  7905   003DD2  6E0B               	movwf	(??___fleq+2)^0,c
  7906   003DD4  0E7F               	movlw	127
  7907   003DD6  1404               	andwf	(___fleq@ff1+3)^0,w,c
  7908   003DD8  6E0C               	movwf	(??___fleq+3)^0,c
  7909   003DDA  5009               	movf	??___fleq^0,w,c
  7910   003DDC  100A               	iorwf	(??___fleq+1)^0,w,c
  7911   003DDE  100B               	iorwf	(??___fleq+2)^0,w,c
  7912   003DE0  100C               	iorwf	(??___fleq+3)^0,w,c
  7913   003DE2  A4D8               	btfss	status,2,c
  7914   003DE4  EFF6  F01E         	goto	u2941
  7915   003DE8  EFF8  F01E         	goto	u2940
  7916   003DEC                     u2941:
  7917   003DEC  EF00  F01F         	goto	l3023
  7918   003DF0                     u2940:
  7919   003DF0  0E00               	movlw	0
  7920   003DF2  6E01               	movwf	___fleq@ff1^0,c
  7921   003DF4  0E00               	movlw	0
  7922   003DF6  6E02               	movwf	(___fleq@ff1+1)^0,c
  7923   003DF8  0E00               	movlw	0
  7924   003DFA  6E03               	movwf	(___fleq@ff1+2)^0,c
  7925   003DFC  0E00               	movlw	0
  7926   003DFE  6E04               	movwf	(___fleq@ff1+3)^0,c
  7927   003E00                     l3023:
  7928   003E00  0E00               	movlw	0
  7929   003E02  1405               	andwf	___fleq@ff2^0,w,c
  7930   003E04  6E09               	movwf	??___fleq^0,c
  7931   003E06  0E00               	movlw	0
  7932   003E08  1406               	andwf	(___fleq@ff2+1)^0,w,c
  7933   003E0A  6E0A               	movwf	(??___fleq+1)^0,c
  7934   003E0C  0E80               	movlw	128
  7935   003E0E  1407               	andwf	(___fleq@ff2+2)^0,w,c
  7936   003E10  6E0B               	movwf	(??___fleq+2)^0,c
  7937   003E12  0E7F               	movlw	127
  7938   003E14  1408               	andwf	(___fleq@ff2+3)^0,w,c
  7939   003E16  6E0C               	movwf	(??___fleq+3)^0,c
  7940   003E18  5009               	movf	??___fleq^0,w,c
  7941   003E1A  100A               	iorwf	(??___fleq+1)^0,w,c
  7942   003E1C  100B               	iorwf	(??___fleq+2)^0,w,c
  7943   003E1E  100C               	iorwf	(??___fleq+3)^0,w,c
  7944   003E20  A4D8               	btfss	status,2,c
  7945   003E22  EF15  F01F         	goto	u2951
  7946   003E26  EF17  F01F         	goto	u2950
  7947   003E2A                     u2951:
  7948   003E2A  EF1F  F01F         	goto	l3027
  7949   003E2E                     u2950:
  7950   003E2E  0E00               	movlw	0
  7951   003E30  6E05               	movwf	___fleq@ff2^0,c
  7952   003E32  0E00               	movlw	0
  7953   003E34  6E06               	movwf	(___fleq@ff2+1)^0,c
  7954   003E36  0E00               	movlw	0
  7955   003E38  6E07               	movwf	(___fleq@ff2+2)^0,c
  7956   003E3A  0E00               	movlw	0
  7957   003E3C  6E08               	movwf	(___fleq@ff2+3)^0,c
  7958   003E3E                     l3027:
  7959   003E3E  5005               	movf	___fleq@ff2^0,w,c
  7960   003E40  1801               	xorwf	___fleq@ff1^0,w,c
  7961   003E42  E10F               	bnz	u2960
  7962   003E44  5006               	movf	(___fleq@ff2+1)^0,w,c
  7963   003E46  1802               	xorwf	(___fleq@ff1+1)^0,w,c
  7964   003E48  E10C               	bnz	u2960
  7965   003E4A  5007               	movf	(___fleq@ff2+2)^0,w,c
  7966   003E4C  1803               	xorwf	(___fleq@ff1+2)^0,w,c
  7967   003E4E  E109               	bnz	u2960
  7968   003E50  5008               	movf	(___fleq@ff2+3)^0,w,c
  7969   003E52  1804               	xorwf	(___fleq@ff1+3)^0,w,c
  7970   003E54  B4D8               	btfsc	status,2,c
  7971   003E56  EF2F  F01F         	goto	u2961
  7972   003E5A  EF31  F01F         	goto	u2960
  7973   003E5E                     u2961:
  7974   003E5E  EF34  F01F         	goto	l3031
  7975   003E62                     u2960:
  7976   003E62  90D8               	bcf	status,0,c
  7977   003E64  EF35  F01F         	goto	l500
  7978   003E68                     l3031:
  7979   003E68  80D8               	bsf	status,0,c
  7980   003E6A                     l500:
  7981   003E6A  0012               	return		;funcret
  7982   003E6C                     __end_of___fleq:
  7983                           	callstack 0
  7984                           
  7985 ;; *************** function ___fldiv *****************
  7986 ;; Defined at:
  7987 ;;		line 11 in file "C:\Program Files\Microchip\xc8\v2.40\pic\sources\c99\common\sprcdiv.c"
  7988 ;; Parameters:    Size  Location     Type
  7989 ;;  b               4   49[COMRAM] unsigned char 
  7990 ;;  a               4   53[COMRAM] unsigned char 
  7991 ;; Auto vars:     Size  Location     Type
  7992 ;;  grs             4   68[COMRAM] unsigned long 
  7993 ;;  rem             4   61[COMRAM] unsigned long 
  7994 ;;  new_exp         2   66[COMRAM] short 
  7995 ;;  aexp            1   73[COMRAM] unsigned char 
  7996 ;;  bexp            1   72[COMRAM] unsigned char 
  7997 ;;  sign            1   65[COMRAM] unsigned char 
  7998 ;; Return value:  Size  Location     Type
  7999 ;;                  4   49[COMRAM] unsigned char 
  8000 ;; Registers used:
  8001 ;;		wreg, status,2, status,0
  8002 ;; Tracked objects:
  8003 ;;		On entry : 0/0
  8004 ;;		On exit  : 0/0
  8005 ;;		Unchanged: 0/0
  8006 ;; Data sizes:     COMRAM   BANK0   BANK1   BANK2   BANK3   BANK4   BANK5   BANK6   BANK7   BANK8   BANK9  BANK10  BANK1
      +1  BANK12  BANK13
  8007 ;;      Params:         8       0       0       0       0       0       0       0       0       0       0       0       
      +0       0       0
  8008 ;;      Locals:        13       0       0       0       0       0       0       0       0       0       0       0       
      +0       0       0
  8009 ;;      Temps:          4       0       0       0       0       0       0       0       0       0       0       0       
      +0       0       0
  8010 ;;      Totals:        25       0       0       0       0       0       0       0       0       0       0       0       
      +0       0       0
  8011 ;;Total ram usage:       25 bytes
  8012 ;; Hardware stack levels used: 1
  8013 ;; This function calls:
  8014 ;;		Nothing
  8015 ;; This function is called by:
  8016 ;;		_RGB2Hue
  8017 ;;		_efgtoa
  8018 ;; This function uses a non-reentrant model
  8019 ;;
  8020                           
  8021                           	psect	text38
  8022   002DA0                     __ptext38:
  8023                           	callstack 0
  8024   002DA0                     ___fldiv:
  8025                           	callstack 29
  8026   002DA0  5035               	movf	(___fldiv@b+3)^0,w,c
  8027   002DA2  0B80               	andlw	128
  8028   002DA4  6E42               	movwf	___fldiv@sign^0,c
  8029   002DA6  5035               	movf	(___fldiv@b+3)^0,w,c
  8030   002DA8  2435               	addwf	(___fldiv@b+3)^0,w,c
  8031   002DAA  6E49               	movwf	___fldiv@bexp^0,c
  8032   002DAC  AE34               	btfss	(___fldiv@b+2)^0,7,c
  8033   002DAE  EFDB  F016         	goto	u2521
  8034   002DB2  EFDD  F016         	goto	u2520
  8035   002DB6                     u2521:
  8036   002DB6  EFDE  F016         	goto	l2751
  8037   002DBA                     u2520:
  8038   002DBA  8049               	bsf	___fldiv@bexp^0,0,c
  8039   002DBC                     l2751:
  8040   002DBC  5049               	movf	___fldiv@bexp^0,w,c
  8041   002DBE  B4D8               	btfsc	status,2,c
  8042   002DC0  EFE4  F016         	goto	u2531
  8043   002DC4  EFE6  F016         	goto	u2530
  8044   002DC8                     u2531:
  8045   002DC8  EFFB  F016         	goto	l2761
  8046   002DCC                     u2530:
  8047   002DCC  2849               	incf	___fldiv@bexp^0,w,c
  8048   002DCE  A4D8               	btfss	status,2,c
  8049   002DD0  EFEC  F016         	goto	u2541
  8050   002DD4  EFEE  F016         	goto	u2540
  8051   002DD8                     u2541:
  8052   002DD8  EFF6  F016         	goto	l2757
  8053   002DDC                     u2540:
  8054   002DDC  0E00               	movlw	0
  8055   002DDE  6E32               	movwf	___fldiv@b^0,c
  8056   002DE0  0E00               	movlw	0
  8057   002DE2  6E33               	movwf	(___fldiv@b+1)^0,c
  8058   002DE4  0E00               	movlw	0
  8059   002DE6  6E34               	movwf	(___fldiv@b+2)^0,c
  8060   002DE8  0E00               	movlw	0
  8061   002DEA  6E35               	movwf	(___fldiv@b+3)^0,c
  8062   002DEC                     l2757:
  8063   002DEC  8E34               	bsf	(___fldiv@b+2)^0,7,c
  8064   002DEE  0E00               	movlw	0
  8065   002DF0  6E35               	movwf	(___fldiv@b+3)^0,c
  8066   002DF2  EF03  F017         	goto	l2763
  8067   002DF6                     l2761:
  8068   002DF6  0E00               	movlw	0
  8069   002DF8  6E32               	movwf	___fldiv@b^0,c
  8070   002DFA  0E00               	movlw	0
  8071   002DFC  6E33               	movwf	(___fldiv@b+1)^0,c
  8072   002DFE  0E00               	movlw	0
  8073   002E00  6E34               	movwf	(___fldiv@b+2)^0,c
  8074   002E02  0E00               	movlw	0
  8075   002E04  6E35               	movwf	(___fldiv@b+3)^0,c
  8076   002E06                     l2763:
  8077   002E06  5039               	movf	(___fldiv@a+3)^0,w,c
  8078   002E08  0B80               	andlw	128
  8079   002E0A  1A42               	xorwf	___fldiv@sign^0,f,c
  8080   002E0C  5039               	movf	(___fldiv@a+3)^0,w,c
  8081   002E0E  2439               	addwf	(___fldiv@a+3)^0,w,c
  8082   002E10  6E4A               	movwf	___fldiv@aexp^0,c
  8083   002E12  AE38               	btfss	(___fldiv@a+2)^0,7,c
  8084   002E14  EF0E  F017         	goto	u2551
  8085   002E18  EF10  F017         	goto	u2550
  8086   002E1C                     u2551:
  8087   002E1C  EF11  F017         	goto	l2771
  8088   002E20                     u2550:
  8089   002E20  804A               	bsf	___fldiv@aexp^0,0,c
  8090   002E22                     l2771:
  8091   002E22  504A               	movf	___fldiv@aexp^0,w,c
  8092   002E24  B4D8               	btfsc	status,2,c
  8093   002E26  EF17  F017         	goto	u2561
  8094   002E2A  EF19  F017         	goto	u2560
  8095   002E2E                     u2561:
  8096   002E2E  EF2E  F017         	goto	l2781
  8097   002E32                     u2560:
  8098   002E32  284A               	incf	___fldiv@aexp^0,w,c
  8099   002E34  A4D8               	btfss	status,2,c
  8100   002E36  EF1F  F017         	goto	u2571
  8101   002E3A  EF21  F017         	goto	u2570
  8102   002E3E                     u2571:
  8103   002E3E  EF29  F017         	goto	l2777
  8104   002E42                     u2570:
  8105   002E42  0E00               	movlw	0
  8106   002E44  6E36               	movwf	___fldiv@a^0,c
  8107   002E46  0E00               	movlw	0
  8108   002E48  6E37               	movwf	(___fldiv@a+1)^0,c
  8109   002E4A  0E00               	movlw	0
  8110   002E4C  6E38               	movwf	(___fldiv@a+2)^0,c
  8111   002E4E  0E00               	movlw	0
  8112   002E50  6E39               	movwf	(___fldiv@a+3)^0,c
  8113   002E52                     l2777:
  8114   002E52  8E38               	bsf	(___fldiv@a+2)^0,7,c
  8115   002E54  0E00               	movlw	0
  8116   002E56  6E39               	movwf	(___fldiv@a+3)^0,c
  8117   002E58  EF36  F017         	goto	l2783
  8118   002E5C                     l2781:
  8119   002E5C  0E00               	movlw	0
  8120   002E5E  6E36               	movwf	___fldiv@a^0,c
  8121   002E60  0E00               	movlw	0
  8122   002E62  6E37               	movwf	(___fldiv@a+1)^0,c
  8123   002E64  0E00               	movlw	0
  8124   002E66  6E38               	movwf	(___fldiv@a+2)^0,c
  8125   002E68  0E00               	movlw	0
  8126   002E6A  6E39               	movwf	(___fldiv@a+3)^0,c
  8127   002E6C                     l2783:
  8128   002E6C  5036               	movf	___fldiv@a^0,w,c
  8129   002E6E  1037               	iorwf	(___fldiv@a+1)^0,w,c
  8130   002E70  1038               	iorwf	(___fldiv@a+2)^0,w,c
  8131   002E72  1039               	iorwf	(___fldiv@a+3)^0,w,c
  8132   002E74  A4D8               	btfss	status,2,c
  8133   002E76  EF3F  F017         	goto	u2581
  8134   002E7A  EF41  F017         	goto	u2580
  8135   002E7E                     u2581:
  8136   002E7E  EF59  F017         	goto	l2795
  8137   002E82                     u2580:
  8138   002E82  0E00               	movlw	0
  8139   002E84  6E32               	movwf	___fldiv@b^0,c
  8140   002E86  0E00               	movlw	0
  8141   002E88  6E33               	movwf	(___fldiv@b+1)^0,c
  8142   002E8A  0E00               	movlw	0
  8143   002E8C  6E34               	movwf	(___fldiv@b+2)^0,c
  8144   002E8E  0E00               	movlw	0
  8145   002E90  6E35               	movwf	(___fldiv@b+3)^0,c
  8146   002E92  0E80               	movlw	128
  8147   002E94  1234               	iorwf	(___fldiv@b+2)^0,f,c
  8148   002E96  0E7F               	movlw	127
  8149   002E98  1235               	iorwf	(___fldiv@b+3)^0,f,c
  8150   002E9A                     l2789:
  8151   002E9A  5042               	movf	___fldiv@sign^0,w,c
  8152   002E9C  1235               	iorwf	(___fldiv@b+3)^0,f,c
  8153   002E9E  C032  F032         	movff	___fldiv@b,?___fldiv
  8154   002EA2  C033  F033         	movff	___fldiv@b+1,?___fldiv+1
  8155   002EA6  C034  F034         	movff	___fldiv@b+2,?___fldiv+2
  8156   002EAA  C035  F035         	movff	___fldiv@b+3,?___fldiv+3
  8157   002EAE  EF9C  F018         	goto	l823
  8158   002EB2                     l2795:
  8159   002EB2  5049               	movf	___fldiv@bexp^0,w,c
  8160   002EB4  A4D8               	btfss	status,2,c
  8161   002EB6  EF5F  F017         	goto	u2591
  8162   002EBA  EF61  F017         	goto	u2590
  8163   002EBE                     u2591:
  8164   002EBE  EF6B  F017         	goto	l2803
  8165   002EC2                     u2590:
  8166   002EC2  0E00               	movlw	0
  8167   002EC4  6E32               	movwf	?___fldiv^0,c
  8168   002EC6  0E00               	movlw	0
  8169   002EC8  6E33               	movwf	(?___fldiv+1)^0,c
  8170   002ECA  0E00               	movlw	0
  8171   002ECC  6E34               	movwf	(?___fldiv+2)^0,c
  8172   002ECE  0E00               	movlw	0
  8173   002ED0  6E35               	movwf	(?___fldiv+3)^0,c
  8174   002ED2  EF9C  F018         	goto	l823
  8175   002ED6                     l2803:
  8176   002ED6  504A               	movf	___fldiv@aexp^0,w,c
  8177   002ED8  C049  F03A         	movff	___fldiv@bexp,??___fldiv
  8178   002EDC  6A3B               	clrf	(??___fldiv+1)^0,c
  8179   002EDE  5E3A               	subwf	??___fldiv^0,f,c
  8180   002EE0  0E00               	movlw	0
  8181   002EE2  5A3B               	subwfb	(??___fldiv+1)^0,f,c
  8182   002EE4  0E7F               	movlw	127
  8183   002EE6  243A               	addwf	??___fldiv^0,w,c
  8184   002EE8  6E43               	movwf	___fldiv@new_exp^0,c
  8185   002EEA  0E00               	movlw	0
  8186   002EEC  203B               	addwfc	(??___fldiv+1)^0,w,c
  8187   002EEE  6E44               	movwf	(___fldiv@new_exp+1)^0,c
  8188   002EF0  C032  F03E         	movff	___fldiv@b,___fldiv@rem
  8189   002EF4  C033  F03F         	movff	___fldiv@b+1,___fldiv@rem+1
  8190   002EF8  C034  F040         	movff	___fldiv@b+2,___fldiv@rem+2
  8191   002EFC  C035  F041         	movff	___fldiv@b+3,___fldiv@rem+3
  8192   002F00  0E00               	movlw	0
  8193   002F02  6E32               	movwf	___fldiv@b^0,c
  8194   002F04  0E00               	movlw	0
  8195   002F06  6E33               	movwf	(___fldiv@b+1)^0,c
  8196   002F08  0E00               	movlw	0
  8197   002F0A  6E34               	movwf	(___fldiv@b+2)^0,c
  8198   002F0C  0E00               	movlw	0
  8199   002F0E  6E35               	movwf	(___fldiv@b+3)^0,c
  8200   002F10  0E00               	movlw	0
  8201   002F12  6E45               	movwf	___fldiv@grs^0,c
  8202   002F14  0E00               	movlw	0
  8203   002F16  6E46               	movwf	(___fldiv@grs+1)^0,c
  8204   002F18  0E00               	movlw	0
  8205   002F1A  6E47               	movwf	(___fldiv@grs+2)^0,c
  8206   002F1C  0E00               	movlw	0
  8207   002F1E  6E48               	movwf	(___fldiv@grs+3)^0,c
  8208   002F20  0E00               	movlw	0
  8209   002F22  6E4A               	movwf	___fldiv@aexp^0,c
  8210   002F24  EFCC  F017         	goto	l825
  8211   002F28                     l2813:
  8212   002F28  504A               	movf	___fldiv@aexp^0,w,c
  8213   002F2A  B4D8               	btfsc	status,2,c
  8214   002F2C  EF9A  F017         	goto	u2601
  8215   002F30  EF9C  F017         	goto	u2600
  8216   002F34                     u2601:
  8217   002F34  EFB3  F017         	goto	l2821
  8218   002F38                     u2600:
  8219   002F38  90D8               	bcf	status,0,c
  8220   002F3A  363E               	rlcf	___fldiv@rem^0,f,c
  8221   002F3C  363F               	rlcf	(___fldiv@rem+1)^0,f,c
  8222   002F3E  3640               	rlcf	(___fldiv@rem+2)^0,f,c
  8223   002F40  3641               	rlcf	(___fldiv@rem+3)^0,f,c
  8224   002F42  90D8               	bcf	status,0,c
  8225   002F44  3632               	rlcf	___fldiv@b^0,f,c
  8226   002F46  3633               	rlcf	(___fldiv@b+1)^0,f,c
  8227   002F48  3634               	rlcf	(___fldiv@b+2)^0,f,c
  8228   002F4A  3635               	rlcf	(___fldiv@b+3)^0,f,c
  8229   002F4C  AE48               	btfss	(___fldiv@grs+3)^0,7,c
  8230   002F4E  EFAB  F017         	goto	u2611
  8231   002F52  EFAD  F017         	goto	u2610
  8232   002F56                     u2611:
  8233   002F56  EFAE  F017         	goto	l828
  8234   002F5A                     u2610:
  8235   002F5A  8032               	bsf	___fldiv@b^0,0,c
  8236   002F5C                     l828:
  8237   002F5C  90D8               	bcf	status,0,c
  8238   002F5E  3645               	rlcf	___fldiv@grs^0,f,c
  8239   002F60  3646               	rlcf	(___fldiv@grs+1)^0,f,c
  8240   002F62  3647               	rlcf	(___fldiv@grs+2)^0,f,c
  8241   002F64  3648               	rlcf	(___fldiv@grs+3)^0,f,c
  8242   002F66                     l2821:
  8243   002F66  5036               	movf	___fldiv@a^0,w,c
  8244   002F68  5C3E               	subwf	___fldiv@rem^0,w,c
  8245   002F6A  5037               	movf	(___fldiv@a+1)^0,w,c
  8246   002F6C  583F               	subwfb	(___fldiv@rem+1)^0,w,c
  8247   002F6E  5038               	movf	(___fldiv@a+2)^0,w,c
  8248   002F70  5840               	subwfb	(___fldiv@rem+2)^0,w,c
  8249   002F72  5039               	movf	(___fldiv@a+3)^0,w,c
  8250   002F74  5841               	subwfb	(___fldiv@rem+3)^0,w,c
  8251   002F76  A0D8               	btfss	status,0,c
  8252   002F78  EFC0  F017         	goto	u2621
  8253   002F7C  EFC2  F017         	goto	u2620
  8254   002F80                     u2621:
  8255   002F80  EFCB  F017         	goto	l2827
  8256   002F84                     u2620:
  8257   002F84  8C48               	bsf	(___fldiv@grs+3)^0,6,c
  8258   002F86  5036               	movf	___fldiv@a^0,w,c
  8259   002F88  5E3E               	subwf	___fldiv@rem^0,f,c
  8260   002F8A  5037               	movf	(___fldiv@a+1)^0,w,c
  8261   002F8C  5A3F               	subwfb	(___fldiv@rem+1)^0,f,c
  8262   002F8E  5038               	movf	(___fldiv@a+2)^0,w,c
  8263   002F90  5A40               	subwfb	(___fldiv@rem+2)^0,f,c
  8264   002F92  5039               	movf	(___fldiv@a+3)^0,w,c
  8265   002F94  5A41               	subwfb	(___fldiv@rem+3)^0,f,c
  8266   002F96                     l2827:
  8267   002F96  2A4A               	incf	___fldiv@aexp^0,f,c
  8268   002F98                     l825:
  8269   002F98  0E19               	movlw	25
  8270   002F9A  644A               	cpfsgt	___fldiv@aexp^0,c
  8271   002F9C  EFD2  F017         	goto	u2631
  8272   002FA0  EFD4  F017         	goto	u2630
  8273   002FA4                     u2631:
  8274   002FA4  EF94  F017         	goto	l2813
  8275   002FA8                     u2630:
  8276   002FA8  503E               	movf	___fldiv@rem^0,w,c
  8277   002FAA  103F               	iorwf	(___fldiv@rem+1)^0,w,c
  8278   002FAC  1040               	iorwf	(___fldiv@rem+2)^0,w,c
  8279   002FAE  1041               	iorwf	(___fldiv@rem+3)^0,w,c
  8280   002FB0  B4D8               	btfsc	status,2,c
  8281   002FB2  EFDD  F017         	goto	u2641
  8282   002FB6  EFDF  F017         	goto	u2640
  8283   002FBA                     u2641:
  8284   002FBA  EFF7  F017         	goto	l2839
  8285   002FBE                     u2640:
  8286   002FBE  8045               	bsf	___fldiv@grs^0,0,c
  8287   002FC0  EFF7  F017         	goto	l2839
  8288   002FC4                     l2833:
  8289   002FC4  90D8               	bcf	status,0,c
  8290   002FC6  3632               	rlcf	___fldiv@b^0,f,c
  8291   002FC8  3633               	rlcf	(___fldiv@b+1)^0,f,c
  8292   002FCA  3634               	rlcf	(___fldiv@b+2)^0,f,c
  8293   002FCC  3635               	rlcf	(___fldiv@b+3)^0,f,c
  8294   002FCE  AE48               	btfss	(___fldiv@grs+3)^0,7,c
  8295   002FD0  EFEC  F017         	goto	u2651
  8296   002FD4  EFEE  F017         	goto	u2650
  8297   002FD8                     u2651:
  8298   002FD8  EFEF  F017         	goto	l834
  8299   002FDC                     u2650:
  8300   002FDC  8032               	bsf	___fldiv@b^0,0,c
  8301   002FDE                     l834:
  8302   002FDE  90D8               	bcf	status,0,c
  8303   002FE0  3645               	rlcf	___fldiv@grs^0,f,c
  8304   002FE2  3646               	rlcf	(___fldiv@grs+1)^0,f,c
  8305   002FE4  3647               	rlcf	(___fldiv@grs+2)^0,f,c
  8306   002FE6  3648               	rlcf	(___fldiv@grs+3)^0,f,c
  8307   002FE8  0643               	decf	___fldiv@new_exp^0,f,c
  8308   002FEA  A0D8               	btfss	status,0,c
  8309   002FEC  0644               	decf	(___fldiv@new_exp+1)^0,f,c
  8310   002FEE                     l2839:
  8311   002FEE  AE34               	btfss	(___fldiv@b+2)^0,7,c
  8312   002FF0  EFFC  F017         	goto	u2661
  8313   002FF4  EFFE  F017         	goto	u2660
  8314   002FF8                     u2661:
  8315   002FF8  EFE2  F017         	goto	l2833
  8316   002FFC                     u2660:
  8317   002FFC  0E00               	movlw	0
  8318   002FFE  6E4A               	movwf	___fldiv@aexp^0,c
  8319   003000  AE48               	btfss	(___fldiv@grs+3)^0,7,c
  8320   003002  EF05  F018         	goto	u2671
  8321   003006  EF07  F018         	goto	u2670
  8322   00300A                     u2671:
  8323   00300A  EF2B  F018         	goto	l836
  8324   00300E                     u2670:
  8325   00300E  0EFF               	movlw	255
  8326   003010  1445               	andwf	___fldiv@grs^0,w,c
  8327   003012  6E3A               	movwf	??___fldiv^0,c
  8328   003014  0EFF               	movlw	255
  8329   003016  1446               	andwf	(___fldiv@grs+1)^0,w,c
  8330   003018  6E3B               	movwf	(??___fldiv+1)^0,c
  8331   00301A  0EFF               	movlw	255
  8332   00301C  1447               	andwf	(___fldiv@grs+2)^0,w,c
  8333   00301E  6E3C               	movwf	(??___fldiv+2)^0,c
  8334   003020  0E7F               	movlw	127
  8335   003022  1448               	andwf	(___fldiv@grs+3)^0,w,c
  8336   003024  6E3D               	movwf	(??___fldiv+3)^0,c
  8337   003026  503A               	movf	??___fldiv^0,w,c
  8338   003028  103B               	iorwf	(??___fldiv+1)^0,w,c
  8339   00302A  103C               	iorwf	(??___fldiv+2)^0,w,c
  8340   00302C  103D               	iorwf	(??___fldiv+3)^0,w,c
  8341   00302E  B4D8               	btfsc	status,2,c
  8342   003030  EF1C  F018         	goto	u2681
  8343   003034  EF1E  F018         	goto	u2680
  8344   003038                     u2681:
  8345   003038  EF22  F018         	goto	l837
  8346   00303C                     u2680:
  8347   00303C                     l2847:
  8348   00303C  0E01               	movlw	1
  8349   00303E  6E4A               	movwf	___fldiv@aexp^0,c
  8350   003040  EF2B  F018         	goto	l836
  8351   003044                     l837:
  8352   003044  A032               	btfss	___fldiv@b^0,0,c
  8353   003046  EF27  F018         	goto	u2691
  8354   00304A  EF29  F018         	goto	u2690
  8355   00304E                     u2691:
  8356   00304E  EF2B  F018         	goto	l836
  8357   003052                     u2690:
  8358   003052  EF1E  F018         	goto	l2847
  8359   003056                     l836:
  8360   003056  504A               	movf	___fldiv@aexp^0,w,c
  8361   003058  B4D8               	btfsc	status,2,c
  8362   00305A  EF31  F018         	goto	u2701
  8363   00305E  EF33  F018         	goto	u2700
  8364   003062                     u2701:
  8365   003062  EF57  F018         	goto	l2859
  8366   003066                     u2700:
  8367   003066  0E01               	movlw	1
  8368   003068  2632               	addwf	___fldiv@b^0,f,c
  8369   00306A  0E00               	movlw	0
  8370   00306C  2233               	addwfc	(___fldiv@b+1)^0,f,c
  8371   00306E  2234               	addwfc	(___fldiv@b+2)^0,f,c
  8372   003070  2235               	addwfc	(___fldiv@b+3)^0,f,c
  8373   003072  A035               	btfss	(___fldiv@b+3)^0,0,c
  8374   003074  EF3E  F018         	goto	u2711
  8375   003078  EF40  F018         	goto	u2710
  8376   00307C                     u2711:
  8377   00307C  EF57  F018         	goto	l2859
  8378   003080                     u2710:
  8379   003080  C032  F03A         	movff	___fldiv@b,??___fldiv
  8380   003084  C033  F03B         	movff	___fldiv@b+1,??___fldiv+1
  8381   003088  C034  F03C         	movff	___fldiv@b+2,??___fldiv+2
  8382   00308C  C035  F03D         	movff	___fldiv@b+3,??___fldiv+3
  8383   003090  343D               	rlcf	(??___fldiv+3)^0,w,c
  8384   003092  323D               	rrcf	(??___fldiv+3)^0,f,c
  8385   003094  323C               	rrcf	(??___fldiv+2)^0,f,c
  8386   003096  323B               	rrcf	(??___fldiv+1)^0,f,c
  8387   003098  323A               	rrcf	??___fldiv^0,f,c
  8388   00309A  C03A  F032         	movff	??___fldiv,___fldiv@b
  8389   00309E  C03B  F033         	movff	??___fldiv+1,___fldiv@b+1
  8390   0030A2  C03C  F034         	movff	??___fldiv+2,___fldiv@b+2
  8391   0030A6  C03D  F035         	movff	??___fldiv+3,___fldiv@b+3
  8392   0030AA  4A43               	infsnz	___fldiv@new_exp^0,f,c
  8393   0030AC  2A44               	incf	(___fldiv@new_exp+1)^0,f,c
  8394   0030AE                     l2859:
  8395   0030AE  BE44               	btfsc	(___fldiv@new_exp+1)^0,7,c
  8396   0030B0  EF62  F018         	goto	u2721
  8397   0030B4  5044               	movf	(___fldiv@new_exp+1)^0,w,c
  8398   0030B6  E108               	bnz	u2720
  8399   0030B8  2843               	incf	___fldiv@new_exp^0,w,c
  8400   0030BA  A0D8               	btfss	status,0,c
  8401   0030BC  EF62  F018         	goto	u2721
  8402   0030C0  EF64  F018         	goto	u2720
  8403   0030C4                     u2721:
  8404   0030C4  EF6F  F018         	goto	l2863
  8405   0030C8                     u2720:
  8406   0030C8  0E00               	movlw	0
  8407   0030CA  6E44               	movwf	(___fldiv@new_exp+1)^0,c
  8408   0030CC  6843               	setf	___fldiv@new_exp^0,c
  8409   0030CE  0E00               	movlw	0
  8410   0030D0  6E32               	movwf	___fldiv@b^0,c
  8411   0030D2  0E00               	movlw	0
  8412   0030D4  6E33               	movwf	(___fldiv@b+1)^0,c
  8413   0030D6  0E00               	movlw	0
  8414   0030D8  6E34               	movwf	(___fldiv@b+2)^0,c
  8415   0030DA  0E00               	movlw	0
  8416   0030DC  6E35               	movwf	(___fldiv@b+3)^0,c
  8417   0030DE                     l2863:
  8418   0030DE  BE44               	btfsc	(___fldiv@new_exp+1)^0,7,c
  8419   0030E0  EF7C  F018         	goto	u2730
  8420   0030E4  5044               	movf	(___fldiv@new_exp+1)^0,w,c
  8421   0030E6  E106               	bnz	u2731
  8422   0030E8  0443               	decf	___fldiv@new_exp^0,w,c
  8423   0030EA  B0D8               	btfsc	status,0,c
  8424   0030EC  EF7A  F018         	goto	u2731
  8425   0030F0  EF7C  F018         	goto	u2730
  8426   0030F4                     u2731:
  8427   0030F4  EF8A  F018         	goto	l2867
  8428   0030F8                     u2730:
  8429   0030F8  0E00               	movlw	0
  8430   0030FA  6E44               	movwf	(___fldiv@new_exp+1)^0,c
  8431   0030FC  0E00               	movlw	0
  8432   0030FE  6E43               	movwf	___fldiv@new_exp^0,c
  8433   003100  0E00               	movlw	0
  8434   003102  6E32               	movwf	___fldiv@b^0,c
  8435   003104  0E00               	movlw	0
  8436   003106  6E33               	movwf	(___fldiv@b+1)^0,c
  8437   003108  0E00               	movlw	0
  8438   00310A  6E34               	movwf	(___fldiv@b+2)^0,c
  8439   00310C  0E00               	movlw	0
  8440   00310E  6E35               	movwf	(___fldiv@b+3)^0,c
  8441   003110  0E00               	movlw	0
  8442   003112  6E42               	movwf	___fldiv@sign^0,c
  8443   003114                     l2867:
  8444   003114  C043  F049         	movff	___fldiv@new_exp,___fldiv@bexp
  8445   003118  A049               	btfss	___fldiv@bexp^0,0,c
  8446   00311A  EF91  F018         	goto	u2741
  8447   00311E  EF93  F018         	goto	u2740
  8448   003122                     u2741:
  8449   003122  EF96  F018         	goto	l2873
  8450   003126                     u2740:
  8451   003126  8E34               	bsf	(___fldiv@b+2)^0,7,c
  8452   003128  EF97  F018         	goto	l2875
  8453   00312C                     l2873:
  8454   00312C  9E34               	bcf	(___fldiv@b+2)^0,7,c
  8455   00312E                     l2875:
  8456   00312E  90D8               	bcf	status,0,c
  8457   003130  3049               	rrcf	___fldiv@bexp^0,w,c
  8458   003132  6E35               	movwf	(___fldiv@b+3)^0,c
  8459   003134  EF4D  F017         	goto	l2789
  8460   003138                     l823:
  8461   003138  0012               	return		;funcret
  8462   00313A                     __end_of___fldiv:
  8463                           	callstack 0
  8464                           
  8465 ;; *************** function _sendStringSerial4 *****************
  8466 ;; Defined at:
  8467 ;;		line 49 in file "serial.c"
  8468 ;; Parameters:    Size  Location     Type
  8469 ;;  string          2    1[COMRAM] PTR unsigned char 
  8470 ;;		 -> main@data(80), 
  8471 ;; Auto vars:     Size  Location     Type
  8472 ;;		None
  8473 ;; Return value:  Size  Location     Type
  8474 ;;                  1    wreg      void 
  8475 ;; Registers used:
  8476 ;;		wreg, fsr2l, fsr2h, status,2, status,0, cstack
  8477 ;; Tracked objects:
  8478 ;;		On entry : 0/0
  8479 ;;		On exit  : 0/0
  8480 ;;		Unchanged: 0/0
  8481 ;; Data sizes:     COMRAM   BANK0   BANK1   BANK2   BANK3   BANK4   BANK5   BANK6   BANK7   BANK8   BANK9  BANK10  BANK1
      +1  BANK12  BANK13
  8482 ;;      Params:         2       0       0       0       0       0       0       0       0       0       0       0       
      +0       0       0
  8483 ;;      Locals:         0       0       0       0       0       0       0       0       0       0       0       0       
      +0       0       0
  8484 ;;      Temps:          0       0       0       0       0       0       0       0       0       0       0       0       
      +0       0       0
  8485 ;;      Totals:         2       0       0       0       0       0       0       0       0       0       0       0       
      +0       0       0
  8486 ;;Total ram usage:        2 bytes
  8487 ;; Hardware stack levels used: 1
  8488 ;; Hardware stack levels required when called: 1
  8489 ;; This function calls:
  8490 ;;		_sendCharSerial4
  8491 ;; This function is called by:
  8492 ;;		_Color2String
  8493 ;; This function uses a non-reentrant model
  8494 ;;
  8495                           
  8496                           	psect	text39
  8497   00434A                     __ptext39:
  8498                           	callstack 0
  8499   00434A                     _sendStringSerial4:
  8500                           	callstack 28
  8501   00434A                     
  8502                           ;serial.c: 52:     while(*string != 0){
  8503   00434A  EFB4  F021         	goto	l3661
  8504   00434E                     l3655:
  8505                           
  8506                           ;serial.c: 54:   sendCharSerial4(*string++);
  8507   00434E  C002  FFD9         	movff	sendStringSerial4@string,fsr2l
  8508   004352  C003  FFDA         	movff	sendStringSerial4@string+1,fsr2h
  8509   004356  50DF               	movf	indf2,w,c
  8510   004358  EC25  F022         	call	_sendCharSerial4
  8511   00435C  4A02               	infsnz	sendStringSerial4@string^0,f,c
  8512   00435E  2A03               	incf	(sendStringSerial4@string+1)^0,f,c
  8513   004360                     
  8514                           ;serial.c: 55:         _delay((unsigned long)((20)*(64000000/4000000.0)));
  8515   004360  0E6A               	movlw	106
  8516   004362                     u4177:
  8517   004362  2EE8               	decfsz	wreg,f,c
  8518   004364  D7FE               	bra	u4177
  8519   004366  D000               	nop2	
  8520   004368                     l3661:
  8521                           
  8522                           ;serial.c: 52:     while(*string != 0){
  8523   004368  C002  FFD9         	movff	sendStringSerial4@string,fsr2l
  8524   00436C  C003  FFDA         	movff	sendStringSerial4@string+1,fsr2h
  8525   004370  50DF               	movf	indf2,w,c
  8526   004372  A4D8               	btfss	status,2,c
  8527   004374  EFBE  F021         	goto	u3881
  8528   004378  EFC0  F021         	goto	u3880
  8529   00437C                     u3881:
  8530   00437C  EFA7  F021         	goto	l3655
  8531   004380                     u3880:
  8532   004380  0012               	return		;funcret
  8533   004382                     __end_of_sendStringSerial4:
  8534                           	callstack 0
  8535                           
  8536 ;; *************** function _sendCharSerial4 *****************
  8537 ;; Defined at:
  8538 ;;		line 34 in file "serial.c"
  8539 ;; Parameters:    Size  Location     Type
  8540 ;;  charToSend      1    wreg     unsigned char 
  8541 ;; Auto vars:     Size  Location     Type
  8542 ;;  charToSend      1    0[COMRAM] unsigned char 
  8543 ;; Return value:  Size  Location     Type
  8544 ;;                  1    wreg      void 
  8545 ;; Registers used:
  8546 ;;		wreg
  8547 ;; Tracked objects:
  8548 ;;		On entry : 0/0
  8549 ;;		On exit  : 0/0
  8550 ;;		Unchanged: 0/0
  8551 ;; Data sizes:     COMRAM   BANK0   BANK1   BANK2   BANK3   BANK4   BANK5   BANK6   BANK7   BANK8   BANK9  BANK10  BANK1
      +1  BANK12  BANK13
  8552 ;;      Params:         0       0       0       0       0       0       0       0       0       0       0       0       
      +0       0       0
  8553 ;;      Locals:         1       0       0       0       0       0       0       0       0       0       0       0       
      +0       0       0
  8554 ;;      Temps:          0       0       0       0       0       0       0       0       0       0       0       0       
      +0       0       0
  8555 ;;      Totals:         1       0       0       0       0       0       0       0       0       0       0       0       
      +0       0       0
  8556 ;;Total ram usage:        1 bytes
  8557 ;; Hardware stack levels used: 1
  8558 ;; This function calls:
  8559 ;;		Nothing
  8560 ;; This function is called by:
  8561 ;;		_sendStringSerial4
  8562 ;; This function uses a non-reentrant model
  8563 ;;
  8564                           
  8565                           	psect	text40
  8566   00444A                     __ptext40:
  8567                           	callstack 0
  8568   00444A                     _sendCharSerial4:
  8569                           	callstack 28
  8570                           
  8571                           ;incstack = 0
  8572                           ;sendCharSerial4@charToSend stored from wreg
  8573   00444A  6E01               	movwf	sendCharSerial4@charToSend^0,c
  8574   00444C                     l226:
  8575   00444C  010E               	movlb	14	; () banked
  8576   00444E  A537               	btfss	55,2,b	;volatile
  8577   004450  EF2C  F022         	goto	u3701
  8578   004454  EF2E  F022         	goto	u3700
  8579   004458                     u3701:
  8580   004458  EF26  F022         	goto	l226
  8581   00445C                     u3700:
  8582   00445C                     
  8583                           ; BSR set to: 14
  8584                           ;serial.c: 36:     TX4REG = charToSend;
  8585   00445C  C001  FEE4         	movff	sendCharSerial4@charToSend,3812	;volatile
  8586   004460                     
  8587                           ; BSR set to: 14
  8588   004460  0012               	return		;funcret
  8589   004462                     __end_of_sendCharSerial4:
  8590                           	callstack 0
  8591                           
  8592 ;; *************** function _Hue2Colour *****************
  8593 ;; Defined at:
  8594 ;;		line 55 in file "colorfunctions.c"
  8595 ;; Parameters:    Size  Location     Type
  8596 ;;  cf              2   17[BANK0 ] PTR struct RGBC_rel
  8597 ;;		 -> colorf(22), 
  8598 ;; Auto vars:     Size  Location     Type
  8599 ;;  colourname      2   19[BANK0 ] PTR unsigned char 
  8600 ;;		 -> STR_9(10), STR_8(11), STR_7(7), STR_6(7), 
  8601 ;;		 -> STR_5(5), STR_4(9), STR_3(6), STR_2(4), 
  8602 ;;		 -> STR_1(1), 
  8603 ;; Return value:  Size  Location     Type
  8604 ;;                  2   17[BANK0 ] PTR unsigned char 
  8605 ;; Registers used:
  8606 ;;		wreg, fsr2l, fsr2h, status,2, status,0, cstack
  8607 ;; Tracked objects:
  8608 ;;		On entry : 0/0
  8609 ;;		On exit  : 0/0
  8610 ;;		Unchanged: 0/0
  8611 ;; Data sizes:     COMRAM   BANK0   BANK1   BANK2   BANK3   BANK4   BANK5   BANK6   BANK7   BANK8   BANK9  BANK10  BANK1
      +1  BANK12  BANK13
  8612 ;;      Params:         0       2       0       0       0       0       0       0       0       0       0       0       
      +0       0       0
  8613 ;;      Locals:         0       2       0       0       0       0       0       0       0       0       0       0       
      +0       0       0
  8614 ;;      Temps:          0       0       0       0       0       0       0       0       0       0       0       0       
      +0       0       0
  8615 ;;      Totals:         0       4       0       0       0       0       0       0       0       0       0       0       
      +0       0       0
  8616 ;;Total ram usage:        4 bytes
  8617 ;; Hardware stack levels used: 1
  8618 ;; Hardware stack levels required when called: 1
  8619 ;; This function calls:
  8620 ;;		___flge
  8621 ;; This function is called by:
  8622 ;;		_Color2String
  8623 ;; This function uses a non-reentrant model
  8624 ;;
  8625                           
  8626                           	psect	text41
  8627   001F96                     __ptext41:
  8628                           	callstack 0
  8629   001F96                     _Hue2Colour:
  8630                           	callstack 28
  8631   001F96                     
  8632                           ;colorfunctions.c: 55: char* Hue2Colour(struct RGBC_rel *cf);colorfunctions.c: 56: {;col
      +                          orfunctions.c: 57:     char* colourname = "";
  8633   001F96  0E2B               	movlw	low (STR_10+42)
  8634   001F98  0100               	movlb	0	; () banked
  8635   001F9A  6F73               	movwf	Hue2Colour@colourname& (0+255),b
  8636   001F9C  0E0E               	movlw	high (STR_10+42)
  8637   001F9E  6F74               	movwf	(Hue2Colour@colourname+1)& (0+255),b
  8638   001FA0                     
  8639                           ; BSR set to: 0
  8640                           ;colorfunctions.c: 59:     if (((cf->h)>352)&&((cf->h)<360))
  8641   001FA0  0E00               	movlw	0
  8642   001FA2  6E57               	movwf	___flge@ff1^0,c
  8643   001FA4  0E00               	movlw	0
  8644   001FA6  6E58               	movwf	(___flge@ff1+1)^0,c
  8645   001FA8  0EB0               	movlw	176
  8646   001FAA  6E59               	movwf	(___flge@ff1+2)^0,c
  8647   001FAC  0E43               	movlw	67
  8648   001FAE  6E5A               	movwf	(___flge@ff1+3)^0,c
  8649   001FB0  EE20 F010          	lfsr	2,16
  8650   001FB4  5171               	movf	Hue2Colour@cf& (0+255),w,b
  8651   001FB6  26D9               	addwf	fsr2l,f,c
  8652   001FB8  5172               	movf	(Hue2Colour@cf+1)& (0+255),w,b
  8653   001FBA  22DA               	addwfc	fsr2h,f,c
  8654   001FBC  CFDE F05B          	movff	postinc2,___flge@ff2
  8655   001FC0  CFDE F05C          	movff	postinc2,___flge@ff2+1
  8656   001FC4  CFDE F05D          	movff	postinc2,___flge@ff2+2
  8657   001FC8  CFDE F05E          	movff	postinc2,___flge@ff2+3
  8658   001FCC  EC9E  F01C         	call	___flge	;wreg free
  8659   001FD0  B0D8               	btfsc	status,0,c
  8660   001FD2  EFED  F00F         	goto	u3721
  8661   001FD6  EFEF  F00F         	goto	u3720
  8662   001FDA                     u3721:
  8663   001FDA  EF1E  F010         	goto	l3581
  8664   001FDE                     u3720:
  8665   001FDE  0100               	movlb	0	; () banked
  8666   001FE0  EE20 F010          	lfsr	2,16
  8667   001FE4  5171               	movf	Hue2Colour@cf& (0+255),w,b
  8668   001FE6  26D9               	addwf	fsr2l,f,c
  8669   001FE8  5172               	movf	(Hue2Colour@cf+1)& (0+255),w,b
  8670   001FEA  22DA               	addwfc	fsr2h,f,c
  8671   001FEC  CFDE F057          	movff	postinc2,___flge@ff1
  8672   001FF0  CFDE F058          	movff	postinc2,___flge@ff1+1
  8673   001FF4  CFDE F059          	movff	postinc2,___flge@ff1+2
  8674   001FF8  CFDE F05A          	movff	postinc2,___flge@ff1+3
  8675   001FFC  0E00               	movlw	0
  8676   001FFE  6E5B               	movwf	___flge@ff2^0,c
  8677   002000  0E00               	movlw	0
  8678   002002  6E5C               	movwf	(___flge@ff2+1)^0,c
  8679   002004  0EB4               	movlw	180
  8680   002006  6E5D               	movwf	(___flge@ff2+2)^0,c
  8681   002008  0E43               	movlw	67
  8682   00200A  6E5E               	movwf	(___flge@ff2+3)^0,c
  8683   00200C  EC9E  F01C         	call	___flge	;wreg free
  8684   002010  B0D8               	btfsc	status,0,c
  8685   002012  EF0D  F010         	goto	u3731
  8686   002016  EF0F  F010         	goto	u3730
  8687   00201A                     u3731:
  8688   00201A  EF1E  F010         	goto	l3581
  8689   00201E                     u3730:
  8690   00201E                     
  8691                           ;colorfunctions.c: 60:     {;colorfunctions.c: 62:         colourname = "Red";
  8692   00201E  0E6B               	movlw	low STR_2
  8693   002020  0100               	movlb	0	; () banked
  8694   002022  6F73               	movwf	Hue2Colour@colourname& (0+255),b
  8695   002024  0E0E               	movlw	high STR_2
  8696   002026  6F74               	movwf	(Hue2Colour@colourname+1)& (0+255),b
  8697   002028                     
  8698                           ; BSR set to: 0
  8699                           ;colorfunctions.c: 65:         cf->colourindex=0;
  8700   002028  EE20 F014          	lfsr	2,20
  8701   00202C  5171               	movf	Hue2Colour@cf& (0+255),w,b
  8702   00202E  26D9               	addwf	fsr2l,f,c
  8703   002030  5172               	movf	(Hue2Colour@cf+1)& (0+255),w,b
  8704   002032  22DA               	addwfc	fsr2h,f,c
  8705   002034  0E00               	movlw	0
  8706   002036  6EDE               	movwf	postinc2,c
  8707   002038  0E00               	movlw	0
  8708   00203A  6EDD               	movwf	postdec2,c
  8709   00203C                     l3581:
  8710                           
  8711                           ;colorfunctions.c: 67:      if (((cf->h)>75)&&((cf->h)<79))
  8712   00203C  0E00               	movlw	0
  8713   00203E  6E57               	movwf	___flge@ff1^0,c
  8714   002040  0E00               	movlw	0
  8715   002042  6E58               	movwf	(___flge@ff1+1)^0,c
  8716   002044  0E96               	movlw	150
  8717   002046  6E59               	movwf	(___flge@ff1+2)^0,c
  8718   002048  0E42               	movlw	66
  8719   00204A  6E5A               	movwf	(___flge@ff1+3)^0,c
  8720   00204C  0100               	movlb	0	; () banked
  8721   00204E  EE20 F010          	lfsr	2,16
  8722   002052  5171               	movf	Hue2Colour@cf& (0+255),w,b
  8723   002054  26D9               	addwf	fsr2l,f,c
  8724   002056  5172               	movf	(Hue2Colour@cf+1)& (0+255),w,b
  8725   002058  22DA               	addwfc	fsr2h,f,c
  8726   00205A  CFDE F05B          	movff	postinc2,___flge@ff2
  8727   00205E  CFDE F05C          	movff	postinc2,___flge@ff2+1
  8728   002062  CFDE F05D          	movff	postinc2,___flge@ff2+2
  8729   002066  CFDE F05E          	movff	postinc2,___flge@ff2+3
  8730   00206A  EC9E  F01C         	call	___flge	;wreg free
  8731   00206E  B0D8               	btfsc	status,0,c
  8732   002070  EF3C  F010         	goto	u3741
  8733   002074  EF3E  F010         	goto	u3740
  8734   002078                     u3741:
  8735   002078  EF6F  F010         	goto	l3589
  8736   00207C                     u3740:
  8737   00207C  0100               	movlb	0	; () banked
  8738   00207E  EE20 F010          	lfsr	2,16
  8739   002082  5171               	movf	Hue2Colour@cf& (0+255),w,b
  8740   002084  26D9               	addwf	fsr2l,f,c
  8741   002086  5172               	movf	(Hue2Colour@cf+1)& (0+255),w,b
  8742   002088  22DA               	addwfc	fsr2h,f,c
  8743   00208A  CFDE F057          	movff	postinc2,___flge@ff1
  8744   00208E  CFDE F058          	movff	postinc2,___flge@ff1+1
  8745   002092  CFDE F059          	movff	postinc2,___flge@ff1+2
  8746   002096  CFDE F05A          	movff	postinc2,___flge@ff1+3
  8747   00209A  0E00               	movlw	0
  8748   00209C  6E5B               	movwf	___flge@ff2^0,c
  8749   00209E  0E00               	movlw	0
  8750   0020A0  6E5C               	movwf	(___flge@ff2+1)^0,c
  8751   0020A2  0E9E               	movlw	158
  8752   0020A4  6E5D               	movwf	(___flge@ff2+2)^0,c
  8753   0020A6  0E42               	movlw	66
  8754   0020A8  6E5E               	movwf	(___flge@ff2+3)^0,c
  8755   0020AA  EC9E  F01C         	call	___flge	;wreg free
  8756   0020AE  B0D8               	btfsc	status,0,c
  8757   0020B0  EF5C  F010         	goto	u3751
  8758   0020B4  EF5E  F010         	goto	u3750
  8759   0020B8                     u3751:
  8760   0020B8  EF6F  F010         	goto	l3589
  8761   0020BC                     u3750:
  8762   0020BC                     
  8763                           ;colorfunctions.c: 68:     {;colorfunctions.c: 69:         colourname = "Green";
  8764   0020BC  0E58               	movlw	low STR_3
  8765   0020BE  0100               	movlb	0	; () banked
  8766   0020C0  6F73               	movwf	Hue2Colour@colourname& (0+255),b
  8767   0020C2  0E0E               	movlw	high STR_3
  8768   0020C4  6F74               	movwf	(Hue2Colour@colourname+1)& (0+255),b
  8769   0020C6                     
  8770                           ; BSR set to: 0
  8771                           ;colorfunctions.c: 70:         cf->colourindex=7;
  8772   0020C6  EE20 F014          	lfsr	2,20
  8773   0020CA  5171               	movf	Hue2Colour@cf& (0+255),w,b
  8774   0020CC  26D9               	addwf	fsr2l,f,c
  8775   0020CE  5172               	movf	(Hue2Colour@cf+1)& (0+255),w,b
  8776   0020D0  22DA               	addwfc	fsr2h,f,c
  8777   0020D2  0E07               	movlw	7
  8778   0020D4  6EDE               	movwf	postinc2,c
  8779   0020D6  0E00               	movlw	0
  8780   0020D8  6EDD               	movwf	postdec2,c
  8781                           
  8782                           ;colorfunctions.c: 71:     }
  8783   0020DA  EF55  F012         	goto	l3637
  8784   0020DE                     l3589:
  8785   0020DE  0E00               	movlw	0
  8786   0020E0  6E57               	movwf	___flge@ff1^0,c
  8787   0020E2  0E00               	movlw	0
  8788   0020E4  6E58               	movwf	(___flge@ff1+1)^0,c
  8789   0020E6  0ED0               	movlw	208
  8790   0020E8  6E59               	movwf	(___flge@ff1+2)^0,c
  8791   0020EA  0E41               	movlw	65
  8792   0020EC  6E5A               	movwf	(___flge@ff1+3)^0,c
  8793   0020EE  0100               	movlb	0	; () banked
  8794   0020F0  EE20 F010          	lfsr	2,16
  8795   0020F4  5171               	movf	Hue2Colour@cf& (0+255),w,b
  8796   0020F6  26D9               	addwf	fsr2l,f,c
  8797   0020F8  5172               	movf	(Hue2Colour@cf+1)& (0+255),w,b
  8798   0020FA  22DA               	addwfc	fsr2h,f,c
  8799   0020FC  CFDE F05B          	movff	postinc2,___flge@ff2
  8800   002100  CFDE F05C          	movff	postinc2,___flge@ff2+1
  8801   002104  CFDE F05D          	movff	postinc2,___flge@ff2+2
  8802   002108  CFDE F05E          	movff	postinc2,___flge@ff2+3
  8803   00210C  EC9E  F01C         	call	___flge	;wreg free
  8804   002110  B0D8               	btfsc	status,0,c
  8805   002112  EF8D  F010         	goto	u3761
  8806   002116  EF8F  F010         	goto	u3760
  8807   00211A                     u3761:
  8808   00211A  EFC0  F010         	goto	l3597
  8809   00211E                     u3760:
  8810   00211E  0100               	movlb	0	; () banked
  8811   002120  EE20 F010          	lfsr	2,16
  8812   002124  5171               	movf	Hue2Colour@cf& (0+255),w,b
  8813   002126  26D9               	addwf	fsr2l,f,c
  8814   002128  5172               	movf	(Hue2Colour@cf+1)& (0+255),w,b
  8815   00212A  22DA               	addwfc	fsr2h,f,c
  8816   00212C  CFDE F057          	movff	postinc2,___flge@ff1
  8817   002130  CFDE F058          	movff	postinc2,___flge@ff1+1
  8818   002134  CFDE F059          	movff	postinc2,___flge@ff1+2
  8819   002138  CFDE F05A          	movff	postinc2,___flge@ff1+3
  8820   00213C  0E00               	movlw	0
  8821   00213E  6E5B               	movwf	___flge@ff2^0,c
  8822   002140  0E00               	movlw	0
  8823   002142  6E5C               	movwf	(___flge@ff2+1)^0,c
  8824   002144  0EE8               	movlw	232
  8825   002146  6E5D               	movwf	(___flge@ff2+2)^0,c
  8826   002148  0E41               	movlw	65
  8827   00214A  6E5E               	movwf	(___flge@ff2+3)^0,c
  8828   00214C  EC9E  F01C         	call	___flge	;wreg free
  8829   002150  B0D8               	btfsc	status,0,c
  8830   002152  EFAD  F010         	goto	u3771
  8831   002156  EFAF  F010         	goto	u3770
  8832   00215A                     u3771:
  8833   00215A  EFC0  F010         	goto	l3597
  8834   00215E                     u3770:
  8835   00215E                     
  8836                           ;colorfunctions.c: 73:     {;colorfunctions.c: 74:         colourname = "Eggshell";
  8837   00215E  0E41               	movlw	low STR_4
  8838   002160  0100               	movlb	0	; () banked
  8839   002162  6F73               	movwf	Hue2Colour@colourname& (0+255),b
  8840   002164  0E0E               	movlw	high STR_4
  8841   002166  6F74               	movwf	(Hue2Colour@colourname+1)& (0+255),b
  8842   002168                     
  8843                           ; BSR set to: 0
  8844                           ;colorfunctions.c: 75:         cf->colourindex=1;
  8845   002168  EE20 F014          	lfsr	2,20
  8846   00216C  5171               	movf	Hue2Colour@cf& (0+255),w,b
  8847   00216E  26D9               	addwf	fsr2l,f,c
  8848   002170  5172               	movf	(Hue2Colour@cf+1)& (0+255),w,b
  8849   002172  22DA               	addwfc	fsr2h,f,c
  8850   002174  0E01               	movlw	1
  8851   002176  6EDE               	movwf	postinc2,c
  8852   002178  0E00               	movlw	0
  8853   00217A  6EDD               	movwf	postdec2,c
  8854                           
  8855                           ;colorfunctions.c: 76:     }
  8856   00217C  EF55  F012         	goto	l3637
  8857   002180                     l3597:
  8858   002180  0E00               	movlw	0
  8859   002182  6E57               	movwf	___flge@ff1^0,c
  8860   002184  0E00               	movlw	0
  8861   002186  6E58               	movwf	(___flge@ff1+1)^0,c
  8862   002188  0E70               	movlw	112
  8863   00218A  6E59               	movwf	(___flge@ff1+2)^0,c
  8864   00218C  0E41               	movlw	65
  8865   00218E  6E5A               	movwf	(___flge@ff1+3)^0,c
  8866   002190  0100               	movlb	0	; () banked
  8867   002192  EE20 F010          	lfsr	2,16
  8868   002196  5171               	movf	Hue2Colour@cf& (0+255),w,b
  8869   002198  26D9               	addwf	fsr2l,f,c
  8870   00219A  5172               	movf	(Hue2Colour@cf+1)& (0+255),w,b
  8871   00219C  22DA               	addwfc	fsr2h,f,c
  8872   00219E  CFDE F05B          	movff	postinc2,___flge@ff2
  8873   0021A2  CFDE F05C          	movff	postinc2,___flge@ff2+1
  8874   0021A6  CFDE F05D          	movff	postinc2,___flge@ff2+2
  8875   0021AA  CFDE F05E          	movff	postinc2,___flge@ff2+3
  8876   0021AE  EC9E  F01C         	call	___flge	;wreg free
  8877   0021B2  B0D8               	btfsc	status,0,c
  8878   0021B4  EFDE  F010         	goto	u3781
  8879   0021B8  EFE0  F010         	goto	u3780
  8880   0021BC                     u3781:
  8881   0021BC  EF11  F011         	goto	l3605
  8882   0021C0                     u3780:
  8883   0021C0  0100               	movlb	0	; () banked
  8884   0021C2  EE20 F010          	lfsr	2,16
  8885   0021C6  5171               	movf	Hue2Colour@cf& (0+255),w,b
  8886   0021C8  26D9               	addwf	fsr2l,f,c
  8887   0021CA  5172               	movf	(Hue2Colour@cf+1)& (0+255),w,b
  8888   0021CC  22DA               	addwfc	fsr2h,f,c
  8889   0021CE  CFDE F057          	movff	postinc2,___flge@ff1
  8890   0021D2  CFDE F058          	movff	postinc2,___flge@ff1+1
  8891   0021D6  CFDE F059          	movff	postinc2,___flge@ff1+2
  8892   0021DA  CFDE F05A          	movff	postinc2,___flge@ff1+3
  8893   0021DE  0E00               	movlw	0
  8894   0021E0  6E5B               	movwf	___flge@ff2^0,c
  8895   0021E2  0E00               	movlw	0
  8896   0021E4  6E5C               	movwf	(___flge@ff2+1)^0,c
  8897   0021E6  0E98               	movlw	152
  8898   0021E8  6E5D               	movwf	(___flge@ff2+2)^0,c
  8899   0021EA  0E41               	movlw	65
  8900   0021EC  6E5E               	movwf	(___flge@ff2+3)^0,c
  8901   0021EE  EC9E  F01C         	call	___flge	;wreg free
  8902   0021F2  B0D8               	btfsc	status,0,c
  8903   0021F4  EFFE  F010         	goto	u3791
  8904   0021F8  EF00  F011         	goto	u3790
  8905   0021FC                     u3791:
  8906   0021FC  EF11  F011         	goto	l3605
  8907   002200                     u3790:
  8908   002200                     
  8909                           ;colorfunctions.c: 78:     {;colorfunctions.c: 79:         colourname = "Pink";
  8910   002200  0E5E               	movlw	low STR_5
  8911   002202  0100               	movlb	0	; () banked
  8912   002204  6F73               	movwf	Hue2Colour@colourname& (0+255),b
  8913   002206  0E0E               	movlw	high STR_5
  8914   002208  6F74               	movwf	(Hue2Colour@colourname+1)& (0+255),b
  8915   00220A                     
  8916                           ; BSR set to: 0
  8917                           ;colorfunctions.c: 80:         cf->colourindex=2;
  8918   00220A  EE20 F014          	lfsr	2,20
  8919   00220E  5171               	movf	Hue2Colour@cf& (0+255),w,b
  8920   002210  26D9               	addwf	fsr2l,f,c
  8921   002212  5172               	movf	(Hue2Colour@cf+1)& (0+255),w,b
  8922   002214  22DA               	addwfc	fsr2h,f,c
  8923   002216  0E02               	movlw	2
  8924   002218  6EDE               	movwf	postinc2,c
  8925   00221A  0E00               	movlw	0
  8926   00221C  6EDD               	movwf	postdec2,c
  8927                           
  8928                           ;colorfunctions.c: 81:     }
  8929   00221E  EF55  F012         	goto	l3637
  8930   002222                     l3605:
  8931   002222  0E00               	movlw	0
  8932   002224  6E57               	movwf	___flge@ff1^0,c
  8933   002226  0E00               	movlw	0
  8934   002228  6E58               	movwf	(___flge@ff1+1)^0,c
  8935   00222A  0EA8               	movlw	168
  8936   00222C  6E59               	movwf	(___flge@ff1+2)^0,c
  8937   00222E  0E41               	movlw	65
  8938   002230  6E5A               	movwf	(___flge@ff1+3)^0,c
  8939   002232  0100               	movlb	0	; () banked
  8940   002234  EE20 F010          	lfsr	2,16
  8941   002238  5171               	movf	Hue2Colour@cf& (0+255),w,b
  8942   00223A  26D9               	addwf	fsr2l,f,c
  8943   00223C  5172               	movf	(Hue2Colour@cf+1)& (0+255),w,b
  8944   00223E  22DA               	addwfc	fsr2h,f,c
  8945   002240  CFDE F05B          	movff	postinc2,___flge@ff2
  8946   002244  CFDE F05C          	movff	postinc2,___flge@ff2+1
  8947   002248  CFDE F05D          	movff	postinc2,___flge@ff2+2
  8948   00224C  CFDE F05E          	movff	postinc2,___flge@ff2+3
  8949   002250  EC9E  F01C         	call	___flge	;wreg free
  8950   002254  B0D8               	btfsc	status,0,c
  8951   002256  EF2F  F011         	goto	u3801
  8952   00225A  EF31  F011         	goto	u3800
  8953   00225E                     u3801:
  8954   00225E  EF62  F011         	goto	l3613
  8955   002262                     u3800:
  8956   002262  0100               	movlb	0	; () banked
  8957   002264  EE20 F010          	lfsr	2,16
  8958   002268  5171               	movf	Hue2Colour@cf& (0+255),w,b
  8959   00226A  26D9               	addwf	fsr2l,f,c
  8960   00226C  5172               	movf	(Hue2Colour@cf+1)& (0+255),w,b
  8961   00226E  22DA               	addwfc	fsr2h,f,c
  8962   002270  CFDE F057          	movff	postinc2,___flge@ff1
  8963   002274  CFDE F058          	movff	postinc2,___flge@ff1+1
  8964   002278  CFDE F059          	movff	postinc2,___flge@ff1+2
  8965   00227C  CFDE F05A          	movff	postinc2,___flge@ff1+3
  8966   002280  0E00               	movlw	0
  8967   002282  6E5B               	movwf	___flge@ff2^0,c
  8968   002284  0E00               	movlw	0
  8969   002286  6E5C               	movwf	(___flge@ff2+1)^0,c
  8970   002288  0EC8               	movlw	200
  8971   00228A  6E5D               	movwf	(___flge@ff2+2)^0,c
  8972   00228C  0E41               	movlw	65
  8973   00228E  6E5E               	movwf	(___flge@ff2+3)^0,c
  8974   002290  EC9E  F01C         	call	___flge	;wreg free
  8975   002294  B0D8               	btfsc	status,0,c
  8976   002296  EF4F  F011         	goto	u3811
  8977   00229A  EF51  F011         	goto	u3810
  8978   00229E                     u3811:
  8979   00229E  EF62  F011         	goto	l3613
  8980   0022A2                     u3810:
  8981   0022A2                     
  8982                           ;colorfunctions.c: 83:     {;colorfunctions.c: 84:         colourname = "Yellow";
  8983   0022A2  0E51               	movlw	low STR_6
  8984   0022A4  0100               	movlb	0	; () banked
  8985   0022A6  6F73               	movwf	Hue2Colour@colourname& (0+255),b
  8986   0022A8  0E0E               	movlw	high STR_6
  8987   0022AA  6F74               	movwf	(Hue2Colour@colourname+1)& (0+255),b
  8988   0022AC                     
  8989                           ; BSR set to: 0
  8990                           ;colorfunctions.c: 85:         cf->colourindex=3;
  8991   0022AC  EE20 F014          	lfsr	2,20
  8992   0022B0  5171               	movf	Hue2Colour@cf& (0+255),w,b
  8993   0022B2  26D9               	addwf	fsr2l,f,c
  8994   0022B4  5172               	movf	(Hue2Colour@cf+1)& (0+255),w,b
  8995   0022B6  22DA               	addwfc	fsr2h,f,c
  8996   0022B8  0E03               	movlw	3
  8997   0022BA  6EDE               	movwf	postinc2,c
  8998   0022BC  0E00               	movlw	0
  8999   0022BE  6EDD               	movwf	postdec2,c
  9000                           
  9001                           ;colorfunctions.c: 86:     }
  9002   0022C0  EF55  F012         	goto	l3637
  9003   0022C4                     l3613:
  9004   0022C4  0E00               	movlw	0
  9005   0022C6  6E57               	movwf	___flge@ff1^0,c
  9006   0022C8  0E00               	movlw	0
  9007   0022CA  6E58               	movwf	(___flge@ff1+1)^0,c
  9008   0022CC  0EE0               	movlw	224
  9009   0022CE  6E59               	movwf	(___flge@ff1+2)^0,c
  9010   0022D0  0E40               	movlw	64
  9011   0022D2  6E5A               	movwf	(___flge@ff1+3)^0,c
  9012   0022D4  0100               	movlb	0	; () banked
  9013   0022D6  EE20 F010          	lfsr	2,16
  9014   0022DA  5171               	movf	Hue2Colour@cf& (0+255),w,b
  9015   0022DC  26D9               	addwf	fsr2l,f,c
  9016   0022DE  5172               	movf	(Hue2Colour@cf+1)& (0+255),w,b
  9017   0022E0  22DA               	addwfc	fsr2h,f,c
  9018   0022E2  CFDE F05B          	movff	postinc2,___flge@ff2
  9019   0022E6  CFDE F05C          	movff	postinc2,___flge@ff2+1
  9020   0022EA  CFDE F05D          	movff	postinc2,___flge@ff2+2
  9021   0022EE  CFDE F05E          	movff	postinc2,___flge@ff2+3
  9022   0022F2  EC9E  F01C         	call	___flge	;wreg free
  9023   0022F6  B0D8               	btfsc	status,0,c
  9024   0022F8  EF80  F011         	goto	u3821
  9025   0022FC  EF82  F011         	goto	u3820
  9026   002300                     u3821:
  9027   002300  EFB3  F011         	goto	l3621
  9028   002304                     u3820:
  9029   002304  0100               	movlb	0	; () banked
  9030   002306  EE20 F010          	lfsr	2,16
  9031   00230A  5171               	movf	Hue2Colour@cf& (0+255),w,b
  9032   00230C  26D9               	addwf	fsr2l,f,c
  9033   00230E  5172               	movf	(Hue2Colour@cf+1)& (0+255),w,b
  9034   002310  22DA               	addwfc	fsr2h,f,c
  9035   002312  CFDE F057          	movff	postinc2,___flge@ff1
  9036   002316  CFDE F058          	movff	postinc2,___flge@ff1+1
  9037   00231A  CFDE F059          	movff	postinc2,___flge@ff1+2
  9038   00231E  CFDE F05A          	movff	postinc2,___flge@ff1+3
  9039   002322  0E00               	movlw	0
  9040   002324  6E5B               	movwf	___flge@ff2^0,c
  9041   002326  0E00               	movlw	0
  9042   002328  6E5C               	movwf	(___flge@ff2+1)^0,c
  9043   00232A  0E10               	movlw	16
  9044   00232C  6E5D               	movwf	(___flge@ff2+2)^0,c
  9045   00232E  0E41               	movlw	65
  9046   002330  6E5E               	movwf	(___flge@ff2+3)^0,c
  9047   002332  EC9E  F01C         	call	___flge	;wreg free
  9048   002336  B0D8               	btfsc	status,0,c
  9049   002338  EFA0  F011         	goto	u3831
  9050   00233C  EFA2  F011         	goto	u3830
  9051   002340                     u3831:
  9052   002340  EFB3  F011         	goto	l3621
  9053   002344                     u3830:
  9054   002344                     
  9055                           ;colorfunctions.c: 88:     {;colorfunctions.c: 89:         colourname = "Orange";
  9056   002344  0E4A               	movlw	low STR_7
  9057   002346  0100               	movlb	0	; () banked
  9058   002348  6F73               	movwf	Hue2Colour@colourname& (0+255),b
  9059   00234A  0E0E               	movlw	high STR_7
  9060   00234C  6F74               	movwf	(Hue2Colour@colourname+1)& (0+255),b
  9061   00234E                     
  9062                           ; BSR set to: 0
  9063                           ;colorfunctions.c: 90:         cf->colourindex=4;
  9064   00234E  EE20 F014          	lfsr	2,20
  9065   002352  5171               	movf	Hue2Colour@cf& (0+255),w,b
  9066   002354  26D9               	addwf	fsr2l,f,c
  9067   002356  5172               	movf	(Hue2Colour@cf+1)& (0+255),w,b
  9068   002358  22DA               	addwfc	fsr2h,f,c
  9069   00235A  0E04               	movlw	4
  9070   00235C  6EDE               	movwf	postinc2,c
  9071   00235E  0E00               	movlw	0
  9072   002360  6EDD               	movwf	postdec2,c
  9073                           
  9074                           ;colorfunctions.c: 91:     }
  9075   002362  EF55  F012         	goto	l3637
  9076   002366                     l3621:
  9077   002366  0E00               	movlw	0
  9078   002368  6E57               	movwf	___flge@ff1^0,c
  9079   00236A  0E00               	movlw	0
  9080   00236C  6E58               	movwf	(___flge@ff1+1)^0,c
  9081   00236E  0EAA               	movlw	170
  9082   002370  6E59               	movwf	(___flge@ff1+2)^0,c
  9083   002372  0E42               	movlw	66
  9084   002374  6E5A               	movwf	(___flge@ff1+3)^0,c
  9085   002376  0100               	movlb	0	; () banked
  9086   002378  EE20 F010          	lfsr	2,16
  9087   00237C  5171               	movf	Hue2Colour@cf& (0+255),w,b
  9088   00237E  26D9               	addwf	fsr2l,f,c
  9089   002380  5172               	movf	(Hue2Colour@cf+1)& (0+255),w,b
  9090   002382  22DA               	addwfc	fsr2h,f,c
  9091   002384  CFDE F05B          	movff	postinc2,___flge@ff2
  9092   002388  CFDE F05C          	movff	postinc2,___flge@ff2+1
  9093   00238C  CFDE F05D          	movff	postinc2,___flge@ff2+2
  9094   002390  CFDE F05E          	movff	postinc2,___flge@ff2+3
  9095   002394  EC9E  F01C         	call	___flge	;wreg free
  9096   002398  B0D8               	btfsc	status,0,c
  9097   00239A  EFD1  F011         	goto	u3841
  9098   00239E  EFD3  F011         	goto	u3840
  9099   0023A2                     u3841:
  9100   0023A2  EF04  F012         	goto	l3629
  9101   0023A6                     u3840:
  9102   0023A6  0100               	movlb	0	; () banked
  9103   0023A8  EE20 F010          	lfsr	2,16
  9104   0023AC  5171               	movf	Hue2Colour@cf& (0+255),w,b
  9105   0023AE  26D9               	addwf	fsr2l,f,c
  9106   0023B0  5172               	movf	(Hue2Colour@cf+1)& (0+255),w,b
  9107   0023B2  22DA               	addwfc	fsr2h,f,c
  9108   0023B4  CFDE F057          	movff	postinc2,___flge@ff1
  9109   0023B8  CFDE F058          	movff	postinc2,___flge@ff1+1
  9110   0023BC  CFDE F059          	movff	postinc2,___flge@ff1+2
  9111   0023C0  CFDE F05A          	movff	postinc2,___flge@ff1+3
  9112   0023C4  0E00               	movlw	0
  9113   0023C6  6E5B               	movwf	___flge@ff2^0,c
  9114   0023C8  0E00               	movlw	0
  9115   0023CA  6E5C               	movwf	(___flge@ff2+1)^0,c
  9116   0023CC  0EBC               	movlw	188
  9117   0023CE  6E5D               	movwf	(___flge@ff2+2)^0,c
  9118   0023D0  0E42               	movlw	66
  9119   0023D2  6E5E               	movwf	(___flge@ff2+3)^0,c
  9120   0023D4  EC9E  F01C         	call	___flge	;wreg free
  9121   0023D8  B0D8               	btfsc	status,0,c
  9122   0023DA  EFF1  F011         	goto	u3851
  9123   0023DE  EFF3  F011         	goto	u3850
  9124   0023E2                     u3851:
  9125   0023E2  EF04  F012         	goto	l3629
  9126   0023E6                     u3850:
  9127   0023E6                     
  9128                           ;colorfunctions.c: 93:     {;colorfunctions.c: 94:         colourname = "Light Blue";
  9129   0023E6  0E2C               	movlw	low STR_8
  9130   0023E8  0100               	movlb	0	; () banked
  9131   0023EA  6F73               	movwf	Hue2Colour@colourname& (0+255),b
  9132   0023EC  0E0E               	movlw	high STR_8
  9133   0023EE  6F74               	movwf	(Hue2Colour@colourname+1)& (0+255),b
  9134   0023F0                     
  9135                           ; BSR set to: 0
  9136                           ;colorfunctions.c: 95:         cf->colourindex=5;
  9137   0023F0  EE20 F014          	lfsr	2,20
  9138   0023F4  5171               	movf	Hue2Colour@cf& (0+255),w,b
  9139   0023F6  26D9               	addwf	fsr2l,f,c
  9140   0023F8  5172               	movf	(Hue2Colour@cf+1)& (0+255),w,b
  9141   0023FA  22DA               	addwfc	fsr2h,f,c
  9142   0023FC  0E05               	movlw	5
  9143   0023FE  6EDE               	movwf	postinc2,c
  9144   002400  0E00               	movlw	0
  9145   002402  6EDD               	movwf	postdec2,c
  9146                           
  9147                           ;colorfunctions.c: 96:     }
  9148   002404  EF55  F012         	goto	l3637
  9149   002408                     l3629:
  9150   002408  0E00               	movlw	0
  9151   00240A  6E57               	movwf	___flge@ff1^0,c
  9152   00240C  0E00               	movlw	0
  9153   00240E  6E58               	movwf	(___flge@ff1+1)^0,c
  9154   002410  0E11               	movlw	17
  9155   002412  6E59               	movwf	(___flge@ff1+2)^0,c
  9156   002414  0E43               	movlw	67
  9157   002416  6E5A               	movwf	(___flge@ff1+3)^0,c
  9158   002418  0100               	movlb	0	; () banked
  9159   00241A  EE20 F010          	lfsr	2,16
  9160   00241E  5171               	movf	Hue2Colour@cf& (0+255),w,b
  9161   002420  26D9               	addwf	fsr2l,f,c
  9162   002422  5172               	movf	(Hue2Colour@cf+1)& (0+255),w,b
  9163   002424  22DA               	addwfc	fsr2h,f,c
  9164   002426  CFDE F05B          	movff	postinc2,___flge@ff2
  9165   00242A  CFDE F05C          	movff	postinc2,___flge@ff2+1
  9166   00242E  CFDE F05D          	movff	postinc2,___flge@ff2+2
  9167   002432  CFDE F05E          	movff	postinc2,___flge@ff2+3
  9168   002436  EC9E  F01C         	call	___flge	;wreg free
  9169   00243A  B0D8               	btfsc	status,0,c
  9170   00243C  EF22  F012         	goto	u3861
  9171   002440  EF24  F012         	goto	u3860
  9172   002444                     u3861:
  9173   002444  EF55  F012         	goto	l98
  9174   002448                     u3860:
  9175   002448  0100               	movlb	0	; () banked
  9176   00244A  EE20 F010          	lfsr	2,16
  9177   00244E  5171               	movf	Hue2Colour@cf& (0+255),w,b
  9178   002450  26D9               	addwf	fsr2l,f,c
  9179   002452  5172               	movf	(Hue2Colour@cf+1)& (0+255),w,b
  9180   002454  22DA               	addwfc	fsr2h,f,c
  9181   002456  CFDE F057          	movff	postinc2,___flge@ff1
  9182   00245A  CFDE F058          	movff	postinc2,___flge@ff1+1
  9183   00245E  CFDE F059          	movff	postinc2,___flge@ff1+2
  9184   002462  CFDE F05A          	movff	postinc2,___flge@ff1+3
  9185   002466  0E00               	movlw	0
  9186   002468  6E5B               	movwf	___flge@ff2^0,c
  9187   00246A  0E00               	movlw	0
  9188   00246C  6E5C               	movwf	(___flge@ff2+1)^0,c
  9189   00246E  0E24               	movlw	36
  9190   002470  6E5D               	movwf	(___flge@ff2+2)^0,c
  9191   002472  0E43               	movlw	67
  9192   002474  6E5E               	movwf	(___flge@ff2+3)^0,c
  9193   002476  EC9E  F01C         	call	___flge	;wreg free
  9194   00247A  B0D8               	btfsc	status,0,c
  9195   00247C  EF42  F012         	goto	u3871
  9196   002480  EF44  F012         	goto	u3870
  9197   002484                     u3871:
  9198   002484  EF55  F012         	goto	l98
  9199   002488                     u3870:
  9200   002488                     
  9201                           ;colorfunctions.c: 98:     {;colorfunctions.c: 99:         colourname = "Dark Blue";
  9202   002488  0E37               	movlw	low STR_9
  9203   00248A  0100               	movlb	0	; () banked
  9204   00248C  6F73               	movwf	Hue2Colour@colourname& (0+255),b
  9205   00248E  0E0E               	movlw	high STR_9
  9206   002490  6F74               	movwf	(Hue2Colour@colourname+1)& (0+255),b
  9207   002492                     
  9208                           ; BSR set to: 0
  9209                           ;colorfunctions.c: 100:         cf->colourindex=6;
  9210   002492  EE20 F014          	lfsr	2,20
  9211   002496  5171               	movf	Hue2Colour@cf& (0+255),w,b
  9212   002498  26D9               	addwf	fsr2l,f,c
  9213   00249A  5172               	movf	(Hue2Colour@cf+1)& (0+255),w,b
  9214   00249C  22DA               	addwfc	fsr2h,f,c
  9215   00249E  0E06               	movlw	6
  9216   0024A0  6EDE               	movwf	postinc2,c
  9217   0024A2  0E00               	movlw	0
  9218   0024A4  6EDD               	movwf	postdec2,c
  9219   0024A6  EF55  F012         	goto	l3637
  9220   0024AA                     l98:
  9221   0024AA                     l3637:
  9222                           
  9223                           ;colorfunctions.c: 103:     return colourname;
  9224   0024AA  C073  F071         	movff	Hue2Colour@colourname,?_Hue2Colour
  9225   0024AE  C074  F072         	movff	Hue2Colour@colourname+1,?_Hue2Colour+1
  9226   0024B2  0012               	return		;funcret
  9227   0024B4                     __end_of_Hue2Colour:
  9228                           	callstack 0
  9229                           
  9230 ;; *************** function ___flge *****************
  9231 ;; Defined at:
  9232 ;;		line 4 in file "C:\Program Files\Microchip\xc8\v2.40\pic\sources\c99\common\flge.c"
  9233 ;; Parameters:    Size  Location     Type
  9234 ;;  ff1             4   86[COMRAM] PTR unsigned char 
  9235 ;;  ff2             4   90[COMRAM] PTR unsigned char 
  9236 ;; Auto vars:     Size  Location     Type
  9237 ;;		None
  9238 ;; Return value:  Size  Location     Type
  9239 ;;		None               void
  9240 ;; Registers used:
  9241 ;;		wreg, status,2, status,0
  9242 ;; Tracked objects:
  9243 ;;		On entry : 0/0
  9244 ;;		On exit  : 0/0
  9245 ;;		Unchanged: 0/0
  9246 ;; Data sizes:     COMRAM   BANK0   BANK1   BANK2   BANK3   BANK4   BANK5   BANK6   BANK7   BANK8   BANK9  BANK10  BANK1
      +1  BANK12  BANK13
  9247 ;;      Params:         8       0       0       0       0       0       0       0       0       0       0       0       
      +0       0       0
  9248 ;;      Locals:         0       0       0       0       0       0       0       0       0       0       0       0       
      +0       0       0
  9249 ;;      Temps:          0       4       0       0       0       0       0       0       0       0       0       0       
      +0       0       0
  9250 ;;      Totals:         8       4       0       0       0       0       0       0       0       0       0       0       
      +0       0       0
  9251 ;;Total ram usage:       12 bytes
  9252 ;; Hardware stack levels used: 1
  9253 ;; This function calls:
  9254 ;;		Nothing
  9255 ;; This function is called by:
  9256 ;;		_RGB2Hue
  9257 ;;		_Hue2Colour
  9258 ;;		_main
  9259 ;;		_efgtoa
  9260 ;; This function uses a non-reentrant model
  9261 ;;
  9262                           
  9263                           	psect	text42
  9264   00393C                     __ptext42:
  9265                           	callstack 0
  9266   00393C                     ___flge:
  9267                           	callstack 30
  9268   00393C  0E00               	movlw	0
  9269   00393E  1457               	andwf	___flge@ff1^0,w,c
  9270   003940  0100               	movlb	0	; () banked
  9271   003942  6F6D               	movwf	??___flge& (0+255),b
  9272   003944  0E00               	movlw	0
  9273   003946  1458               	andwf	(___flge@ff1+1)^0,w,c
  9274   003948  6F6E               	movwf	(??___flge+1)& (0+255),b
  9275   00394A  0E80               	movlw	128
  9276   00394C  1459               	andwf	(___flge@ff1+2)^0,w,c
  9277   00394E  6F6F               	movwf	(??___flge+2)& (0+255),b
  9278   003950  0E7F               	movlw	127
  9279   003952  145A               	andwf	(___flge@ff1+3)^0,w,c
  9280   003954  6F70               	movwf	(??___flge+3)& (0+255),b
  9281   003956  516D               	movf	??___flge& (0+255),w,b
  9282   003958  116E               	iorwf	(??___flge+1)& (0+255),w,b
  9283   00395A  116F               	iorwf	(??___flge+2)& (0+255),w,b
  9284   00395C  1170               	iorwf	(??___flge+3)& (0+255),w,b
  9285   00395E  A4D8               	btfss	status,2,c
  9286   003960  EFB4  F01C         	goto	u2971
  9287   003964  EFB6  F01C         	goto	u2970
  9288   003968                     u2971:
  9289   003968  EFBE  F01C         	goto	l3039
  9290   00396C                     u2970:
  9291   00396C                     
  9292                           ; BSR set to: 0
  9293   00396C  0E00               	movlw	0
  9294   00396E  6E57               	movwf	___flge@ff1^0,c
  9295   003970  0E00               	movlw	0
  9296   003972  6E58               	movwf	(___flge@ff1+1)^0,c
  9297   003974  0E00               	movlw	0
  9298   003976  6E59               	movwf	(___flge@ff1+2)^0,c
  9299   003978  0E00               	movlw	0
  9300   00397A  6E5A               	movwf	(___flge@ff1+3)^0,c
  9301   00397C                     l3039:
  9302                           
  9303                           ; BSR set to: 0
  9304   00397C  0E00               	movlw	0
  9305   00397E  145B               	andwf	___flge@ff2^0,w,c
  9306   003980  6F6D               	movwf	??___flge& (0+255),b
  9307   003982  0E00               	movlw	0
  9308   003984  145C               	andwf	(___flge@ff2+1)^0,w,c
  9309   003986  6F6E               	movwf	(??___flge+1)& (0+255),b
  9310   003988  0E80               	movlw	128
  9311   00398A  145D               	andwf	(___flge@ff2+2)^0,w,c
  9312   00398C  6F6F               	movwf	(??___flge+2)& (0+255),b
  9313   00398E  0E7F               	movlw	127
  9314   003990  145E               	andwf	(___flge@ff2+3)^0,w,c
  9315   003992  6F70               	movwf	(??___flge+3)& (0+255),b
  9316   003994  516D               	movf	??___flge& (0+255),w,b
  9317   003996  116E               	iorwf	(??___flge+1)& (0+255),w,b
  9318   003998  116F               	iorwf	(??___flge+2)& (0+255),w,b
  9319   00399A  1170               	iorwf	(??___flge+3)& (0+255),w,b
  9320   00399C  A4D8               	btfss	status,2,c
  9321   00399E  EFD3  F01C         	goto	u2981
  9322   0039A2  EFD5  F01C         	goto	u2980
  9323   0039A6                     u2981:
  9324   0039A6  EFDD  F01C         	goto	l3043
  9325   0039AA                     u2980:
  9326   0039AA                     
  9327                           ; BSR set to: 0
  9328   0039AA  0E00               	movlw	0
  9329   0039AC  6E5B               	movwf	___flge@ff2^0,c
  9330   0039AE  0E00               	movlw	0
  9331   0039B0  6E5C               	movwf	(___flge@ff2+1)^0,c
  9332   0039B2  0E00               	movlw	0
  9333   0039B4  6E5D               	movwf	(___flge@ff2+2)^0,c
  9334   0039B6  0E00               	movlw	0
  9335   0039B8  6E5E               	movwf	(___flge@ff2+3)^0,c
  9336   0039BA                     l3043:
  9337                           
  9338                           ; BSR set to: 0
  9339   0039BA  AE5A               	btfss	(___flge@ff1+3)^0,7,c
  9340   0039BC  EFE2  F01C         	goto	u2991
  9341   0039C0  EFE4  F01C         	goto	u2990
  9342   0039C4                     u2991:
  9343   0039C4  EFED  F01C         	goto	l3047
  9344   0039C8                     u2990:
  9345   0039C8                     
  9346                           ; BSR set to: 0
  9347   0039C8  6C57               	negf	___flge@ff1^0,c
  9348   0039CA  1E58               	comf	(___flge@ff1+1)^0,f,c
  9349   0039CC  B0D8               	btfsc	status,0,c
  9350   0039CE  2A58               	incf	(___flge@ff1+1)^0,f,c
  9351   0039D0  1E59               	comf	(___flge@ff1+2)^0,f,c
  9352   0039D2  B0D8               	btfsc	status,0,c
  9353   0039D4  2A59               	incf	(___flge@ff1+2)^0,f,c
  9354   0039D6  0E80               	movlw	128
  9355   0039D8  565A               	subfwb	(___flge@ff1+3)^0,f,c
  9356   0039DA                     l3047:
  9357                           
  9358                           ; BSR set to: 0
  9359   0039DA  AE5E               	btfss	(___flge@ff2+3)^0,7,c
  9360   0039DC  EFF2  F01C         	goto	u3001
  9361   0039E0  EFF4  F01C         	goto	u3000
  9362   0039E4                     u3001:
  9363   0039E4  EFFD  F01C         	goto	l506
  9364   0039E8                     u3000:
  9365   0039E8                     
  9366                           ; BSR set to: 0
  9367   0039E8  6C5B               	negf	___flge@ff2^0,c
  9368   0039EA  1E5C               	comf	(___flge@ff2+1)^0,f,c
  9369   0039EC  B0D8               	btfsc	status,0,c
  9370   0039EE  2A5C               	incf	(___flge@ff2+1)^0,f,c
  9371   0039F0  1E5D               	comf	(___flge@ff2+2)^0,f,c
  9372   0039F2  B0D8               	btfsc	status,0,c
  9373   0039F4  2A5D               	incf	(___flge@ff2+2)^0,f,c
  9374   0039F6  0E80               	movlw	128
  9375   0039F8  565E               	subfwb	(___flge@ff2+3)^0,f,c
  9376   0039FA                     l506:
  9377                           
  9378                           ; BSR set to: 0
  9379   0039FA  0E00               	movlw	0
  9380   0039FC  1A57               	xorwf	___flge@ff1^0,f,c
  9381   0039FE  0E00               	movlw	0
  9382   003A00  1A58               	xorwf	(___flge@ff1+1)^0,f,c
  9383   003A02  0E00               	movlw	0
  9384   003A04  1A59               	xorwf	(___flge@ff1+2)^0,f,c
  9385   003A06  0E80               	movlw	128
  9386   003A08  1A5A               	xorwf	(___flge@ff1+3)^0,f,c
  9387   003A0A  0E00               	movlw	0
  9388   003A0C  1A5B               	xorwf	___flge@ff2^0,f,c
  9389   003A0E  0E00               	movlw	0
  9390   003A10  1A5C               	xorwf	(___flge@ff2+1)^0,f,c
  9391   003A12  0E00               	movlw	0
  9392   003A14  1A5D               	xorwf	(___flge@ff2+2)^0,f,c
  9393   003A16  0E80               	movlw	128
  9394   003A18  1A5E               	xorwf	(___flge@ff2+3)^0,f,c
  9395   003A1A  505B               	movf	___flge@ff2^0,w,c
  9396   003A1C  5C57               	subwf	___flge@ff1^0,w,c
  9397   003A1E  505C               	movf	(___flge@ff2+1)^0,w,c
  9398   003A20  5858               	subwfb	(___flge@ff1+1)^0,w,c
  9399   003A22  505D               	movf	(___flge@ff2+2)^0,w,c
  9400   003A24  5859               	subwfb	(___flge@ff1+2)^0,w,c
  9401   003A26  505E               	movf	(___flge@ff2+3)^0,w,c
  9402   003A28  585A               	subwfb	(___flge@ff1+3)^0,w,c
  9403   003A2A  B0D8               	btfsc	status,0,c
  9404   003A2C  EF1A  F01D         	goto	u3011
  9405   003A30  EF1C  F01D         	goto	u3010
  9406   003A34                     u3011:
  9407   003A34  EF1F  F01D         	goto	l3053
  9408   003A38                     u3010:
  9409   003A38                     
  9410                           ; BSR set to: 0
  9411   003A38  90D8               	bcf	status,0,c
  9412   003A3A  EF20  F01D         	goto	l511
  9413   003A3E                     l3053:
  9414                           
  9415                           ; BSR set to: 0
  9416   003A3E  80D8               	bsf	status,0,c
  9417   003A40                     l511:
  9418                           
  9419                           ; BSR set to: 0
  9420   003A40  0012               	return		;funcret
  9421   003A42                     __end_of___flge:
  9422                           	callstack 0
  9423                           
  9424 ;; *************** function _ClickLEDOn *****************
  9425 ;; Defined at:
  9426 ;;		line 93 in file "colorclick.c"
  9427 ;; Parameters:    Size  Location     Type
  9428 ;;  power           1    wreg     unsigned char 
  9429 ;; Auto vars:     Size  Location     Type
  9430 ;;  power           1    0[COMRAM] unsigned char 
  9431 ;; Return value:  Size  Location     Type
  9432 ;;                  1    wreg      void 
  9433 ;; Registers used:
  9434 ;;		wreg, status,2
  9435 ;; Tracked objects:
  9436 ;;		On entry : 0/0
  9437 ;;		On exit  : 0/0
  9438 ;;		Unchanged: 0/0
  9439 ;; Data sizes:     COMRAM   BANK0   BANK1   BANK2   BANK3   BANK4   BANK5   BANK6   BANK7   BANK8   BANK9  BANK10  BANK1
      +1  BANK12  BANK13
  9440 ;;      Params:         0       0       0       0       0       0       0       0       0       0       0       0       
      +0       0       0
  9441 ;;      Locals:         1       0       0       0       0       0       0       0       0       0       0       0       
      +0       0       0
  9442 ;;      Temps:          0       0       0       0       0       0       0       0       0       0       0       0       
      +0       0       0
  9443 ;;      Totals:         1       0       0       0       0       0       0       0       0       0       0       0       
      +0       0       0
  9444 ;;Total ram usage:        1 bytes
  9445 ;; Hardware stack levels used: 1
  9446 ;; This function calls:
  9447 ;;		Nothing
  9448 ;; This function is called by:
  9449 ;;		_main
  9450 ;; This function uses a non-reentrant model
  9451 ;;
  9452                           
  9453                           	psect	text43
  9454   004382                     __ptext43:
  9455                           	callstack 0
  9456   004382                     _ClickLEDOn:
  9457                           	callstack 30
  9458                           
  9459                           ; BSR set to: 0
  9460                           ;incstack = 0
  9461                           ;ClickLEDOn@power stored from wreg
  9462   004382  6E01               	movwf	ClickLEDOn@power^0,c
  9463   004384                     
  9464                           ;colorclick.c: 93: void ClickLEDOn(char power);colorclick.c: 94: {;colorclick.c: 95:    
      +                           if (power){
  9465   004384  5001               	movf	ClickLEDOn@power^0,w,c
  9466   004386  B4D8               	btfsc	status,2,c
  9467   004388  EFC8  F021         	goto	u3991
  9468   00438C  EFCA  F021         	goto	u3990
  9469   004390                     u3991:
  9470   004390  EFCF  F021         	goto	l3735
  9471   004394                     u3990:
  9472   004394                     
  9473                           ;colorclick.c: 96:     LATGbits.LATG1=1;
  9474   004394  827F               	bsf	127,1,c	;volatile
  9475                           
  9476                           ;colorclick.c: 97:     LATAbits.LATA4=1;
  9477   004396  8879               	bsf	121,4,c	;volatile
  9478                           
  9479                           ;colorclick.c: 98:     LATFbits.LATF7=1;
  9480   004398  8E7E               	bsf	126,7,c	;volatile
  9481                           
  9482                           ;colorclick.c: 99:     }
  9483   00439A  EFDA  F021         	goto	l52
  9484   00439E                     l3735:
  9485   00439E  5001               	movf	ClickLEDOn@power^0,w,c
  9486   0043A0  A4D8               	btfss	status,2,c
  9487   0043A2  EFD5  F021         	goto	u4001
  9488   0043A6  EFD7  F021         	goto	u4000
  9489   0043AA                     u4001:
  9490   0043AA  EFDA  F021         	goto	l52
  9491   0043AE                     u4000:
  9492   0043AE                     
  9493                           ;colorclick.c: 101:     LATGbits.LATG1=0;
  9494   0043AE  927F               	bcf	127,1,c	;volatile
  9495                           
  9496                           ;colorclick.c: 102:     LATAbits.LATA4=0;
  9497   0043B0  9879               	bcf	121,4,c	;volatile
  9498                           
  9499                           ;colorclick.c: 103:     LATFbits.LATF7=0;
  9500   0043B2  9E7E               	bcf	126,7,c	;volatile
  9501   0043B4                     l52:
  9502   0043B4  0012               	return		;funcret
  9503   0043B6                     __end_of_ClickLEDOn:
  9504                           	callstack 0
  9505                           
  9506                           	psect	rparam
  9507   000000                     
  9508                           	psect	idloc
  9509                           
  9510                           ;Config register IDLOC0 @ 0x200000
  9511                           ;	unspecified, using default values
  9512   200000                     	org	2097152
  9513   200000  0FFF               	dw	4095
  9514                           
  9515                           ;Config register IDLOC1 @ 0x200002
  9516                           ;	unspecified, using default values
  9517   200002                     	org	2097154
  9518   200002  0FFF               	dw	4095
  9519                           
  9520                           ;Config register IDLOC2 @ 0x200004
  9521                           ;	unspecified, using default values
  9522   200004                     	org	2097156
  9523   200004  0FFF               	dw	4095
  9524                           
  9525                           ;Config register IDLOC3 @ 0x200006
  9526                           ;	unspecified, using default values
  9527   200006                     	org	2097158
  9528   200006  0FFF               	dw	4095
  9529                           
  9530                           ;Config register IDLOC4 @ 0x200008
  9531                           ;	unspecified, using default values
  9532   200008                     	org	2097160
  9533   200008  0FFF               	dw	4095
  9534                           
  9535                           ;Config register IDLOC5 @ 0x20000A
  9536                           ;	unspecified, using default values
  9537   20000A                     	org	2097162
  9538   20000A  0FFF               	dw	4095
  9539                           
  9540                           ;Config register IDLOC6 @ 0x20000C
  9541                           ;	unspecified, using default values
  9542   20000C                     	org	2097164
  9543   20000C  0FFF               	dw	4095
  9544                           
  9545                           ;Config register IDLOC7 @ 0x20000E
  9546                           ;	unspecified, using default values
  9547   20000E                     	org	2097166
  9548   20000E  0FFF               	dw	4095
  9549                           
  9550                           	psect	config
  9551                           
  9552                           ;Config register CONFIG1L @ 0x300000
  9553                           ;	External Oscillator mode Selection bits
  9554                           ;	FEXTOSC = HS, HS (crystal oscillator) above 8 MHz; PFM set to high power
  9555                           ;	Power-up default value for COSC bits
  9556                           ;	RSTOSC = EXTOSC_4PLL, EXTOSC with 4x PLL, with EXTOSC operating per FEXTOSC bits
  9557   300000                     	org	3145728
  9558   300000  AA                 	db	170
  9559                           
  9560                           ;Config register CONFIG1H @ 0x300001
  9561                           ;	unspecified, using default values
  9562                           ;	Clock Out Enable bit
  9563                           ;	CLKOUTEN = 0x1, unprogrammed default
  9564                           ;	Clock Switch Enable bit
  9565                           ;	CSWEN = 0x1, unprogrammed default
  9566                           ;	Fail-Safe Clock Monitor Enable bit
  9567                           ;	FCMEN = 0x1, unprogrammed default
  9568   300001                     	org	3145729
  9569   300001  FF                 	db	255
  9570                           
  9571                           ;Config register CONFIG2L @ 0x300002
  9572                           ;	unspecified, using default values
  9573                           ;	Master Clear Enable bit
  9574                           ;	MCLRE = 0x1, unprogrammed default
  9575                           ;	Power-up Timer Enable bit
  9576                           ;	PWRTE = 0x1, unprogrammed default
  9577                           ;	Low-power BOR enable bit
  9578                           ;	LPBOREN = 0x1, unprogrammed default
  9579                           ;	Brown-out Reset Enable bits
  9580                           ;	BOREN = 0x3, unprogrammed default
  9581   300002                     	org	3145730
  9582   300002  FF                 	db	255
  9583                           
  9584                           ;Config register CONFIG2H @ 0x300003
  9585                           ;	unspecified, using default values
  9586                           ;	Brown Out Reset Voltage selection bits
  9587                           ;	BORV = 0x3, unprogrammed default
  9588                           ;	ZCD Disable bit
  9589                           ;	ZCD = 0x1, unprogrammed default
  9590                           ;	PPSLOCK bit One-Way Set Enable bit
  9591                           ;	PPS1WAY = 0x1, unprogrammed default
  9592                           ;	Stack Full/Underflow Reset Enable bit
  9593                           ;	STVREN = 0x1, unprogrammed default
  9594                           ;	Debugger Enable bit
  9595                           ;	DEBUG = 0x1, unprogrammed default
  9596                           ;	Extended Instruction Set Enable bit
  9597                           ;	XINST = 0x1, unprogrammed default
  9598   300003                     	org	3145731
  9599   300003  FF                 	db	255
  9600                           
  9601                           ;Config register CONFIG3L @ 0x300004
  9602                           ;	WDT Period Select bits
  9603                           ;	WDTCPS = WDTCPS_31, Divider ratio 1:65536; software control of WDTPS
  9604                           ;	WDT operating mode
  9605                           ;	WDTE = OFF, WDT Disabled
  9606   300004                     	org	3145732
  9607   300004  9F                 	db	159
  9608                           
  9609                           ;Config register CONFIG3H @ 0x300005
  9610                           ;	unspecified, using default values
  9611                           ;	WDT Window Select bits
  9612                           ;	WDTCWS = 0x7, unprogrammed default
  9613                           ;	WDT input clock selector
  9614                           ;	WDTCCS = 0x7, unprogrammed default
  9615   300005                     	org	3145733
  9616   300005  FF                 	db	255
  9617                           
  9618                           ;Config register CONFIG4L @ 0x300006
  9619                           ;	unspecified, using default values
  9620                           ;	Write Protection Block 0
  9621                           ;	WRT0 = 0x1, unprogrammed default
  9622                           ;	Write Protection Block 1
  9623                           ;	WRT1 = 0x1, unprogrammed default
  9624                           ;	Write Protection Block 2
  9625                           ;	WRT2 = 0x1, unprogrammed default
  9626                           ;	Write Protection Block 3
  9627                           ;	WRT3 = 0x1, unprogrammed default
  9628                           ;	Write Protection Block 3
  9629                           ;	WRT4 = 0x1, unprogrammed default
  9630                           ;	Write Protection Block 3
  9631                           ;	WRT5 = 0x1, unprogrammed default
  9632                           ;	Write Protection Block 3
  9633                           ;	WRT6 = 0x1, unprogrammed default
  9634                           ;	Write Protection Block 3
  9635                           ;	WRT7 = 0x1, unprogrammed default
  9636   300006                     	org	3145734
  9637   300006  FF                 	db	255
  9638                           
  9639                           ;Config register CONFIG4H @ 0x300007
  9640                           ;	unspecified, using default values
  9641                           ;	Configuration Register Write Protection bit
  9642                           ;	WRTC = 0x1, unprogrammed default
  9643                           ;	Boot Block Write Protection bit
  9644                           ;	WRTB = 0x1, unprogrammed default
  9645                           ;	Data EEPROM Write Protection bit
  9646                           ;	WRTD = 0x1, unprogrammed default
  9647                           ;	Scanner Enable bit
  9648                           ;	SCANE = 0x1, unprogrammed default
  9649                           ;	Low Voltage Programming Enable bit
  9650                           ;	LVP = 0x1, unprogrammed default
  9651   300007                     	org	3145735
  9652   300007  FF                 	db	255
  9653                           
  9654                           ;Config register CONFIG5L @ 0x300008
  9655                           ;	unspecified, using default values
  9656                           ;	UserNVM Program Memory Code Protection bit
  9657                           ;	CP = 0x1, unprogrammed default
  9658                           ;	DataNVM Memory Code Protection bit
  9659                           ;	CPD = 0x1, unprogrammed default
  9660   300008                     	org	3145736
  9661   300008  FF                 	db	255
  9662                           
  9663                           ;Config register CONFIG5H @ 0x300009
  9664                           ;	unspecified, using default values
  9665   300009                     	org	3145737
  9666   300009  FF                 	db	255
  9667                           
  9668                           ;Config register CONFIG6L @ 0x30000A
  9669                           ;	unspecified, using default values
  9670                           ;	Table Read Protection Block 0
  9671                           ;	EBTR0 = 0x1, unprogrammed default
  9672                           ;	Table Read Protection Block 1
  9673                           ;	EBTR1 = 0x1, unprogrammed default
  9674                           ;	Table Read Protection Block 2
  9675                           ;	EBTR2 = 0x1, unprogrammed default
  9676                           ;	Table Read Protection Block 3
  9677                           ;	EBTR3 = 0x1, unprogrammed default
  9678                           ;	Table Read Protection Block 4
  9679                           ;	EBTR4 = 0x1, unprogrammed default
  9680                           ;	Table Read Protection Block 5
  9681                           ;	EBTR5 = 0x1, unprogrammed default
  9682                           ;	Table Read Protection Block 6
  9683                           ;	EBTR6 = 0x1, unprogrammed default
  9684                           ;	Table Read Protection Block 7
  9685                           ;	EBTR7 = 0x1, unprogrammed default
  9686   30000A                     	org	3145738
  9687   30000A  FF                 	db	255
  9688                           
  9689                           ;Config register CONFIG6H @ 0x30000B
  9690                           ;	unspecified, using default values
  9691                           ;	Boot Block Table Read Protection bit
  9692                           ;	EBTRB = 0x1, unprogrammed default
  9693   30000B                     	org	3145739
  9694   30000B  FF                 	db	255
  9695                           tosu	equ	0xFFF
  9696                           tosh	equ	0xFFE
  9697                           tosl	equ	0xFFD
  9698                           stkptr	equ	0xFFC
  9699                           pclatu	equ	0xFFB
  9700                           pclath	equ	0xFFA
  9701                           pcl	equ	0xFF9
  9702                           tblptru	equ	0xFF8
  9703                           tblptrh	equ	0xFF7
  9704                           tblptrl	equ	0xFF6
  9705                           tablat	equ	0xFF5
  9706                           prodh	equ	0xFF4
  9707                           prodl	equ	0xFF3
  9708                           indf0	equ	0xFEF
  9709                           postinc0	equ	0xFEE
  9710                           postdec0	equ	0xFED
  9711                           preinc0	equ	0xFEC
  9712                           plusw0	equ	0xFEB
  9713                           fsr0h	equ	0xFEA
  9714                           fsr0l	equ	0xFE9
  9715                           wreg	equ	0xFE8
  9716                           indf1	equ	0xFE7
  9717                           postinc1	equ	0xFE6
  9718                           postdec1	equ	0xFE5
  9719                           preinc1	equ	0xFE4
  9720                           plusw1	equ	0xFE3
  9721                           fsr1h	equ	0xFE2
  9722                           fsr1l	equ	0xFE1
  9723                           bsr	equ	0xFE0
  9724                           indf2	equ	0xFDF
  9725                           postinc2	equ	0xFDE
  9726                           postdec2	equ	0xFDD
  9727                           preinc2	equ	0xFDC
  9728                           plusw2	equ	0xFDB
  9729                           fsr2h	equ	0xFDA
  9730                           fsr2l	equ	0xFD9
  9731                           status	equ	0xFD8

Data Sizes:
    Strings     110
    Constant    0
    Data        4
    BSS         133
    Persistent  0
    Stack       0

Auto Spaces:
    Space          Size  Autos    Used
    COMRAM           95     94      94
    BANK0           160    140     157
    BANK1           256     81     201
    BANK2           256      0       0
    BANK3           256      0       0
    BANK4           256      0       0
    BANK5           256      0       0
    BANK6           256      0       0
    BANK7           256      0       0
    BANK8           256      0       0
    BANK9           256      0       0
    BANK10          256      0       0
    BANK11          256      0       0
    BANK12          256      0       0
    BANK13          234      0       0

Pointer List with Targets:

    strcpy@dest	PTR unsigned char  size(2) Largest target is 80
		 -> dbuf(BANK1[80]), 

    strcpy@d	PTR unsigned char  size(2) Largest target is 80
		 -> dbuf(BANK1[80]), 

    strcpy@src	PTR const unsigned char  size(2) Largest target is 4
		 -> STR_14(CODE[4]), STR_11(CODE[4]), 

    strcpy@s	PTR const unsigned char  size(2) Largest target is 4
		 -> STR_14(CODE[4]), STR_11(CODE[4]), 

    fputs@s	PTR const unsigned char  size(2) Largest target is 80
		 -> dbuf(BANK1[80]), 

    fputs@fp	PTR struct _IO_FILE size(2) Largest target is 11
		 -> sprintf@f(BANK0[11]), 

    fputc@fp...source	PTR const unsigned char  size(2) Largest target is 0

    fputc@fp...buffer	PTR unsigned char  size(2) Largest target is 0

    fputc@fp	PTR struct _IO_FILE size(2) Largest target is 11
		 -> sprintf@f(BANK0[11]), 

    memcpy@d1	PTR void  size(2) Largest target is 80
		 -> dbuf(BANK1[80]), 

    memcpy@d	PTR unsigned char  size(2) Largest target is 80
		 -> dbuf(BANK1[80]), 

    memcpy@s1	PTR const void  size(2) Largest target is 80
		 -> dbuf(BANK1[80]), 

    memcpy@s	PTR const unsigned char  size(2) Largest target is 80
		 -> dbuf(BANK1[80]), 

    vfprintf@ap	PTR PTR void  size(2) Largest target is 2
		 -> sprintf@ap(BANK0[2]), 

    vfprintf@fp	PTR struct _IO_FILE size(2) Largest target is 11
		 -> sprintf@f(BANK0[11]), 

    vfprintf@fmt	PTR const unsigned char  size(2) Largest target is 43
		 -> STR_10(CODE[43]), 

    vfprintf@cfmt	PTR unsigned char  size(2) Largest target is 43
		 -> STR_10(CODE[43]), 

    vfpfcnvrt@fp	PTR struct _IO_FILE size(2) Largest target is 11
		 -> sprintf@f(BANK0[11]), 

    vfpfcnvrt@ap	PTR PTR void  size(2) Largest target is 2
		 -> sprintf@ap(BANK0[2]), 

    vfpfcnvrt@cp	PTR unsigned char  size(2) Largest target is 43
		 -> STR_10(CODE[43]), 

    vfpfcnvrt@fmt	PTR PTR unsigned char  size(2) Largest target is 2
		 -> vfprintf@cfmt(BANK0[2]), 

    S1338$vp	PTR void  size(2) Largest target is 0

    convarg.vp	PTR void  size(2) Largest target is 0

    sp__memcpy	PTR void  size(2) Largest target is 80
		 -> dbuf(BANK1[80]), 

    efgtoa@fp	PTR struct _IO_FILE size(2) Largest target is 11
		 -> sprintf@f(BANK0[11]), 

    sp__strcpy	PTR unsigned char  size(2) Largest target is 80
		 -> dbuf(BANK1[80]), 

    pad@buf	PTR unsigned char  size(2) Largest target is 80
		 -> dbuf(BANK1[80]), 

    pad@fp	PTR struct _IO_FILE size(2) Largest target is 11
		 -> sprintf@f(BANK0[11]), 

    sprintf@fmt	PTR const unsigned char  size(2) Largest target is 43
		 -> STR_10(CODE[43]), 

    sprintf@s	PTR unsigned char  size(2) Largest target is 80
		 -> main@data(BANK1[80]), 

    sprintf@ap	PTR void [1] size(2) Largest target is 2
		 -> ?_sprintf(BANK0[2]), 

    S1259$source	PTR const unsigned char  size(2) Largest target is 0

    f...source	PTR const unsigned char  size(2) Largest target is 0

    S1259$buffer	PTR unsigned char  size(2) Largest target is 0

    f...buffer	PTR unsigned char  size(2) Largest target is 0

    sendStringSerial4@string	PTR unsigned char  size(2) Largest target is 80
		 -> main@data(BANK1[80]), 

    Color2String@buf	PTR unsigned char  size(2) Largest target is 80
		 -> main@data(BANK1[80]), 

    Color2String@cf	PTR struct RGBC_rel size(2) Largest target is 22
		 -> colorf(BANK1[22]), 

    Color2String@colourname	PTR unsigned char  size(2) Largest target is 11
		 -> STR_9(CODE[10]), STR_8(CODE[11]), STR_7(CODE[7]), STR_6(CODE[7]), 
		 -> STR_5(CODE[5]), STR_4(CODE[9]), STR_3(CODE[6]), STR_2(CODE[4]), 
		 -> STR_1(CODE[1]), 

    sp__Hue2Colour	PTR unsigned char  size(2) Largest target is 11
		 -> STR_9(CODE[10]), STR_8(CODE[11]), STR_7(CODE[7]), STR_6(CODE[7]), 
		 -> STR_5(CODE[5]), STR_4(CODE[9]), STR_3(CODE[6]), STR_2(CODE[4]), 
		 -> STR_1(CODE[1]), 

    Hue2Colour@cf	PTR struct RGBC_rel size(2) Largest target is 22
		 -> colorf(BANK1[22]), 

    Hue2Colour@colourname	PTR unsigned char  size(2) Largest target is 11
		 -> STR_9(CODE[10]), STR_8(CODE[11]), STR_7(CODE[7]), STR_6(CODE[7]), 
		 -> STR_5(CODE[5]), STR_4(CODE[9]), STR_3(CODE[6]), STR_2(CODE[4]), 
		 -> STR_1(CODE[1]), 

    RGB2Hue@cf	PTR struct RGBC_rel size(2) Largest target is 22
		 -> colorf(BANK1[22]), 

    colour_read_all@cf	PTR struct RGBC_rel size(2) Largest target is 22
		 -> colorf(BANK1[22]), 

    motorR.negDutyHighByte	PTR unsigned char  size(2) Largest target is 0

    motorR.posDutyHighByte	PTR unsigned char  size(2) Largest target is 0

    S308DC_motor$negDutyHighByte	PTR unsigned char  size(2) Largest target is 0

    motorL.negDutyHighByte	PTR unsigned char  size(2) Largest target is 0

    S308DC_motor$posDutyHighByte	PTR unsigned char  size(2) Largest target is 0

    motorL.posDutyHighByte	PTR unsigned char  size(2) Largest target is 0


Critical Paths under _main in COMRAM

    _main->___flge
    _colour_read_all->___xxtofl
    _color_read_Red->_I2C_2_Master_Read
    _color_read_Green->_I2C_2_Master_Read
    _color_read_Clear->_I2C_2_Master_Read
    _color_read_Blue->_I2C_2_Master_Read
    _I2C_2_Master_RepStart->_I2C_2_Master_Idle
    _I2C_2_Master_Read->_I2C_2_Master_Idle
    _color_click_init->_color_writetoaddr
    _color_writetoaddr->_I2C_2_Master_Write
    _I2C_2_Master_Write->_I2C_2_Master_Idle
    _I2C_2_Master_Stop->_I2C_2_Master_Idle
    _I2C_2_Master_Start->_I2C_2_Master_Idle
    _RGB2Hue->___flge
    ___xxtofl->_color_read_Blue
    ___xxtofl->_color_read_Clear
    ___xxtofl->_color_read_Green
    ___xxtofl->_color_read_Red
    _efgtoa->___flge
    _efgtoa->_floorf
    _pad->_fputs
    _fputs->_fputc
    _floorf->___fldiv
    ___flsub->___fladd
    ___fladd->___xxtofl
    ___flmul->___fldiv
    ___fldiv->___flsub
    _sendStringSerial4->_sendCharSerial4
    _Hue2Colour->___flge
    ___flge->___flmul

Critical Paths under _main in BANK0

    _main->_Color2String
    _RGB2Hue->___flge
    _Color2String->_sprintf
    _sprintf->_vfprintf
    _vfprintf->_vfpfcnvrt
    _vfpfcnvrt->_efgtoa
    _efgtoa->___flge
    _Hue2Colour->___flge
    ___flge->___flmul

Critical Paths under _main in BANK1

    None.

Critical Paths under _main in BANK2

    None.

Critical Paths under _main in BANK3

    None.

Critical Paths under _main in BANK4

    None.

Critical Paths under _main in BANK5

    None.

Critical Paths under _main in BANK6

    None.

Critical Paths under _main in BANK7

    None.

Critical Paths under _main in BANK8

    None.

Critical Paths under _main in BANK9

    None.

Critical Paths under _main in BANK10

    None.

Critical Paths under _main in BANK11

    None.

Critical Paths under _main in BANK12

    None.

Critical Paths under _main in BANK13

    None.

Call Graph Tables:

 ---------------------------------------------------------------------------------
 (Depth) Function   	        Calls       Base Space   Used Autos Params    Refs
 ---------------------------------------------------------------------------------
 (0) _main                                                83    83      0   53126
                                            138 BANK0      2     2      0
                                              0 BANK1     81    81      0
                         _ClickLEDOn
                       _Color2String
                  _I2C_2_Master_Init
                            _RGB2Hue
                             ___flge
                   _color_click_init
                    _colour_read_all
                         _initUSART4
 ---------------------------------------------------------------------------------
 (1) _initUSART4                                           0     0      0       0
 ---------------------------------------------------------------------------------
 (1) _colour_read_all                                     18    16      2    1638
                                             25 COMRAM    18    16      2
                           ___xxtofl
                    _color_read_Blue
                   _color_read_Clear
                   _color_read_Green
                     _color_read_Red
 ---------------------------------------------------------------------------------
 (2) _color_read_Red                                       7     5      2     113
                                              4 COMRAM     7     5      2
                  _I2C_2_Master_Read
              _I2C_2_Master_RepStart
                 _I2C_2_Master_Start
                  _I2C_2_Master_Stop
                 _I2C_2_Master_Write
 ---------------------------------------------------------------------------------
 (2) _color_read_Green                                     7     5      2     113
                                              4 COMRAM     7     5      2
                  _I2C_2_Master_Read
              _I2C_2_Master_RepStart
                 _I2C_2_Master_Start
                  _I2C_2_Master_Stop
                 _I2C_2_Master_Write
 ---------------------------------------------------------------------------------
 (2) _color_read_Clear                                     7     5      2     113
                                              4 COMRAM     7     5      2
                  _I2C_2_Master_Read
              _I2C_2_Master_RepStart
                 _I2C_2_Master_Start
                  _I2C_2_Master_Stop
                 _I2C_2_Master_Write
 ---------------------------------------------------------------------------------
 (2) _color_read_Blue                                      7     5      2     113
                                              4 COMRAM     7     5      2
                  _I2C_2_Master_Read
              _I2C_2_Master_RepStart
                 _I2C_2_Master_Start
                  _I2C_2_Master_Stop
                 _I2C_2_Master_Write
 ---------------------------------------------------------------------------------
 (3) _I2C_2_Master_RepStart                                0     0      0       0
                  _I2C_2_Master_Idle
 ---------------------------------------------------------------------------------
 (3) _I2C_2_Master_Read                                    3     3      0      45
                                              1 COMRAM     3     3      0
                  _I2C_2_Master_Idle
 ---------------------------------------------------------------------------------
 (1) _color_click_init                                     1     1      0     294
                                              4 COMRAM     1     1      0
                  _I2C_2_Master_Init
                  _color_writetoaddr
 ---------------------------------------------------------------------------------
 (2) _color_writetoaddr                                    2     1      1     294
                                              2 COMRAM     2     1      1
                 _I2C_2_Master_Start
                  _I2C_2_Master_Stop
                 _I2C_2_Master_Write
 ---------------------------------------------------------------------------------
 (3) _I2C_2_Master_Write                                   1     1      0      22
                                              1 COMRAM     1     1      0
                  _I2C_2_Master_Idle
 ---------------------------------------------------------------------------------
 (3) _I2C_2_Master_Stop                                    0     0      0       0
                  _I2C_2_Master_Idle
 ---------------------------------------------------------------------------------
 (3) _I2C_2_Master_Start                                   0     0      0       0
                  _I2C_2_Master_Idle
 ---------------------------------------------------------------------------------
 (4) _I2C_2_Master_Idle                                    1     1      0       0
                                              0 COMRAM     1     1      0
 ---------------------------------------------------------------------------------
 (2) _I2C_2_Master_Init                                    0     0      0       0
 ---------------------------------------------------------------------------------
 (1) _RGB2Hue                                             14    12      2   18145
                                             17 BANK0     14    12      2
                            ___fladd
                            ___fldiv
                             ___fleq
                             ___flge
                            ___flmul
                            ___flsub
                            ___fltol
                           ___xxtofl
 ---------------------------------------------------------------------------------
 (2) ___xxtofl                                            14    10      4     854
                                             11 COMRAM    14    10      4
                    _color_read_Blue (ARG)
                   _color_read_Clear (ARG)
                   _color_read_Green (ARG)
                     _color_read_Red (ARG)
 ---------------------------------------------------------------------------------
 (1) _Color2String                                         6     2      4   29636
                                            134 BANK0      4     0      4
                         _Hue2Colour
                  _sendStringSerial4
                            _sprintf
 ---------------------------------------------------------------------------------
 (2) _sprintf                                             39    15     24   25083
                                             97 BANK0     37    13     24
                           _vfprintf
 ---------------------------------------------------------------------------------
 (3) _vfprintf                                             8     2      6   24730
                                             89 BANK0      8     2      6
                          _vfpfcnvrt
 ---------------------------------------------------------------------------------
 (4) _vfpfcnvrt                                           23    17      6   24380
                                             70 BANK0     19    13      6
                             _efgtoa
                              _fputc
 ---------------------------------------------------------------------------------
 (5) _efgtoa                                              54    47      7   23045
                                             17 BANK0     53    46      7
                            ___fladd
                            ___fldiv
                             ___fleq
                             ___flge
                            ___flmul
                            ___flneg
                            ___flsub
                            ___fltol
                      ___fpclassifyf
                             _floorf
                               _labs
                             _memcpy
                                _pad
                             _strcpy
 ---------------------------------------------------------------------------------
 (6) _strcpy                                               8     4      4     400
                                              0 COMRAM     8     4      4
 ---------------------------------------------------------------------------------
 (6) _pad                                                 11     5      6    2455
                                             16 COMRAM    11     5      6
                              _fputc
                              _fputs
 ---------------------------------------------------------------------------------
 (7) _fputs                                                7     3      4     931
                                              9 COMRAM     7     3      4
                              _fputc
 ---------------------------------------------------------------------------------
 (5) _fputc                                                9     5      4     682
                                              0 COMRAM     9     5      4
                              _putch
 ---------------------------------------------------------------------------------
 (6) _putch                                                1     1      0       0
 ---------------------------------------------------------------------------------
 (6) _memcpy                                              11     5      6     371
                                              0 COMRAM    11     5      6
 ---------------------------------------------------------------------------------
 (6) _labs                                                 8     4      4     294
                                              0 COMRAM     8     4      4
 ---------------------------------------------------------------------------------
 (6) _floorf                                              20    16      4     490
                                             74 COMRAM    20    16      4
                            ___fldiv (ARG)
 ---------------------------------------------------------------------------------
 (6) ___fpclassifyf                                       14    10      4     287
                                              0 COMRAM    14    10      4
 ---------------------------------------------------------------------------------
 (2) ___fltol                                             10     6      4     751
                                              0 COMRAM    10     6      4
 ---------------------------------------------------------------------------------
 (2) ___flsub                                              8     0      8    3477
                                             41 COMRAM     8     0      8
                            ___fladd
 ---------------------------------------------------------------------------------
 (3) ___fladd                                             16     8      8    2708
                                             25 COMRAM    16     8      8
                           ___xxtofl (ARG)
 ---------------------------------------------------------------------------------
 (6) ___flneg                                              4     0      4     121
                                              0 COMRAM     4     0      4
 ---------------------------------------------------------------------------------
 (2) ___flmul                                             25    17      8    2798
                                             74 COMRAM    12     4      8
                                              0 BANK0     13    13      0
                            ___fladd (ARG)
                            ___fldiv (ARG)
                            ___flsub (ARG)
                           ___xxtofl (ARG)
 ---------------------------------------------------------------------------------
 (2) ___fleq                                              12     4      8     842
                                              0 COMRAM    12     4      8
 ---------------------------------------------------------------------------------
 (2) ___fldiv                                             25    17      8    2301
                                             49 COMRAM    25    17      8
                            ___fladd (ARG)
                            ___flsub (ARG)
                           ___xxtofl (ARG)
 ---------------------------------------------------------------------------------
 (2) _sendStringSerial4                                    2     0      2     143
                                              1 COMRAM     2     0      2
                    _sendCharSerial4
 ---------------------------------------------------------------------------------
 (3) _sendCharSerial4                                      1     1      0      22
                                              0 COMRAM     1     1      0
 ---------------------------------------------------------------------------------
 (2) _Hue2Colour                                           4     2      2    3929
                                             17 BANK0      4     2      2
                             ___flge
 ---------------------------------------------------------------------------------
 (1) ___flge                                              12     4      8    3294
                                             86 COMRAM     8     0      8
                                             13 BANK0      4     4      0
                            ___flmul (ARG)
 ---------------------------------------------------------------------------------
 (1) _ClickLEDOn                                           1     1      0      44
                                              0 COMRAM     1     1      0
 ---------------------------------------------------------------------------------
 Estimated maximum stack depth 7
 ---------------------------------------------------------------------------------

 Call Graph Graphs:

 _main (ROOT)
   _ClickLEDOn
   _Color2String
     _Hue2Colour
       ___flge
         ___flmul (ARG)
           ___fladd (ARG)
             ___xxtofl (ARG)
               _color_read_Blue (ARG)
                 _I2C_2_Master_Read
                   _I2C_2_Master_Idle
                 _I2C_2_Master_RepStart
                   _I2C_2_Master_Idle
                 _I2C_2_Master_Start
                   _I2C_2_Master_Idle
                 _I2C_2_Master_Stop
                   _I2C_2_Master_Idle
                 _I2C_2_Master_Write
                   _I2C_2_Master_Idle
               _color_read_Clear (ARG)
                 _I2C_2_Master_Read
                 _I2C_2_Master_RepStart
                 _I2C_2_Master_Start
                 _I2C_2_Master_Stop
                 _I2C_2_Master_Write
               _color_read_Green (ARG)
                 _I2C_2_Master_Read
                 _I2C_2_Master_RepStart
                 _I2C_2_Master_Start
                 _I2C_2_Master_Stop
                 _I2C_2_Master_Write
               _color_read_Red (ARG)
                 _I2C_2_Master_Read
                 _I2C_2_Master_RepStart
                 _I2C_2_Master_Start
                 _I2C_2_Master_Stop
                 _I2C_2_Master_Write
           ___fldiv (ARG)
             ___fladd (ARG)
             ___flsub (ARG)
               ___fladd
             ___xxtofl (ARG)
           ___flsub (ARG)
           ___xxtofl (ARG)
     _sendStringSerial4
       _sendCharSerial4
     _sprintf
       _vfprintf
         _vfpfcnvrt
           _efgtoa
             ___fladd
             ___fldiv
             ___fleq
             ___flge
             ___flmul
             ___flneg
             ___flsub
             ___fltol
             ___fpclassifyf
             _floorf
               ___fldiv (ARG)
             _labs
             _memcpy
             _pad
               _fputc
                 _putch
               _fputs
                 _fputc
             _strcpy
           _fputc
   _I2C_2_Master_Init
   _RGB2Hue
     ___fladd
     ___fldiv
     ___fleq
     ___flge
     ___flmul
     ___flsub
     ___fltol
     ___xxtofl
   ___flge
   _color_click_init
     _I2C_2_Master_Init
     _color_writetoaddr
       _I2C_2_Master_Start
       _I2C_2_Master_Stop
       _I2C_2_Master_Write
   _colour_read_all
     ___xxtofl
     _color_read_Blue
     _color_read_Clear
     _color_read_Green
     _color_read_Red
   _initUSART4

 Address spaces:
Name               Size   Autos  Total    Cost      Usage
BIGRAM             DE9      0       0      48        0.0%
EEDATA             400      0       0       0        0.0%
BITBANK12          100      0       0      28        0.0%
BANK12             100      0       0      29        0.0%
BITBANK11          100      0       0      26        0.0%
BANK11             100      0       0      27        0.0%
BITBANK10          100      0       0      24        0.0%
BANK10             100      0       0      25        0.0%
BITBANK9           100      0       0      22        0.0%
BANK9              100      0       0      23        0.0%
BITBANK8           100      0       0      20        0.0%
BANK8              100      0       0      21        0.0%
BITBANK7           100      0       0      18        0.0%
BANK7              100      0       0      19        0.0%
BITBANK6           100      0       0      16        0.0%
BANK6              100      0       0      17        0.0%
BITBANK5           100      0       0      14        0.0%
BANK5              100      0       0      15        0.0%
BITBANK4           100      0       0      12        0.0%
BANK4              100      0       0      13        0.0%
BITBANK3           100      0       0      10        0.0%
BANK3              100      0       0      11        0.0%
BITBANK2           100      0       0       8        0.0%
BANK2              100      0       0       9        0.0%
BITBANK1           100      0       0       6        0.0%
BANK1              100     51      C9       7       78.5%
BITBANK13           EA      0       0      30        0.0%
BANK13              EA      0       0      31        0.0%
BITBANK0            A0      0       0       4        0.0%
BANK0               A0     8C      9D       5       98.1%
BITBIGSFRllhh       8F      0       0      37        0.0%
BITBIGSFRhh         78      0       0      32        0.0%
BITCOMRAM           5F      0       0       0        0.0%
COMRAM              5F     5E      5E       1       98.9%
BITBIGSFRlllllh     36      0       0      41        0.0%
BITBIGSFRllllh      2D      0       0      40        0.0%
BITBIGSFRlllllh     2A      0       0      43        0.0%
BITBIGSFRllllll     26      0       0      46        0.0%
BITBIGSFRlllllh     19      0       0      44        0.0%
BITBIGSFRlllllh      C      0       0      42        0.0%
BITBIGSFRllhlll      8      0       0      38        0.0%
BITBIGSFRllllll      6      0       0      45        0.0%
BITBIGSFRlh          4      0       0      36        0.0%
BITBIGSFRhlhh        1      0       0      33        0.0%
BITBIGSFRlllh        1      0       0      39        0.0%
BITBIGSFRhlhl        1      0       0      34        0.0%
BITBIGSFRhll         1      0       0      35        0.0%
BIGSFR               0      0       0     200        0.0%
BITSFR_3             0      0       0     200        0.0%
SFR_3                0      0       0     200        0.0%
BITSFR_2             0      0       0     200        0.0%
SFR_2                0      0       0     200        0.0%
BITSFR_1             0      0       0     200        0.0%
SFR_1                0      0       0     200        0.0%
BITSFR               0      0       0     200        0.0%
SFR                  0      0       0     200        0.0%
STACK                0      0       0       2        0.0%
NULL                 0      0       0       0        0.0%
ABS                  0      0     1C4      47        0.0%
DATA                 0      0     1C4       3        0.0%
CODE                 0      0       0       0        0.0%


Microchip Technology PIC18 Macro Assembler V2.40 build 20220703182018 
Symbol Table                                                                                   Fri Mar 10 15:38:56 2023

               _color_read_Red 3FF4                   ___fldiv@aexp 004A                   ___fldiv@bexp 0049  
                 ___fldiv@sign 0042                _color_read_Blue 40E4                             l31 42D2  
                           l40 4092                             l34 4448                             l43 4132  
                           l52 43B4                             l37 4042                             l46 40E2  
                           l73 3834                             l79 1AC8                             l87 1F94  
                           l98 24AA               _color_read_Clear 4094               _color_read_Green 4044  
                          l104 24B2                            l131 43DE                            l140 448A  
                          l134 43E0                            l143 4476                            l232 3DC0  
                          l152 4292                            l137 4406                            l217 4428  
                          l226 444C                            l146 4480                            l500 3E6A  
                          l229 4460                            l149 446C                            l238 4380  
                          l511 3A40                            l506 39FA                            l515 4348  
                          l538 393A                            l811 41C8                            l910 36C6  
                          l823 3138                            l903 366A                            l825 2F98  
                          l834 2FDE                            l770 2690                            l771 2656  
                          l836 3056                            l828 2F5C                            l837 3044  
                          l862 2C30                            l855 2A3A                            l919 3FF2  
                          l872 2D60                            l864 2CA8                            l865 2C96  
                          l769 26A2                            l953 3EE4                            l786 27BC  
                          l778 2972                            l859 2D9E                            l795 288C  
                          l796 287A                            l964 1868                            l949 3E8E  
                          l967 1202                            l896 35D2                            l969 1048  
                          l899 372E                            l997 164A                            _pad 3E6C  
                          wreg 000FE8                   ___flmul@aexp 0065                   ___flmul@bexp 0066  
                 ___flmul@sign 0060                   ___flmul@temp 006B                   ___flmul@prod 0067  
              __end_of_RGB2Hue 1F96                   ___fltol@exp1 000A                           l1031 3FA0  
                         l1024 3368                           l1041 3C3E                           l1051 34BE  
                         l1062 3F4A                           l1048 357A                           l1080 3D08  
                         l3001 2D74                           l3003 2D82                           l1059 3F3A  
                         l1091 4490                           l1068 4182                           l3021 3DF0  
                         l3005 2D84                           l3013 4184                           l3101 390A  
                         l3031 3E68                           l3023 3E00                           l3007 2D8A  
                         l3015 4194                           l3103 391A                           l3111 3E7A  
                         l1088 4250                           l3041 39AA                           l3025 3E2E  
                         l3009 2D8E                           l3105 392A                           l3121 3ED0  
                         l3113 3E86                           l1097 420C                           l3201 0E98  
                         l3051 3A38                           l3043 39BA                           l3035 393C  
                         l3027 3E3E                           l3019 3DC2                           l3131 3BD4  
                         l3123 3B42                           l3115 3E9A                           l3211 0EEE  
                         l3203 0EBC                           l3053 3A3E                           l3045 39C8  
                         l3037 396C                           l3029 3E62                           l3061 4338  
                         l3141 3C36                           l3125 3B62                           l3117 3EAE  
                         l3109 3E6C                           l3301 128C                           l3221 0F3E  
                         l3213 0EFA                           l3205 0EC6                           l3047 39DA  
                         l3039 397C                           l3071 3860                           l3127 3BA0  
                         l3135 3BE0                           l3151 3F04                           l3119 3EB2  
                         l3311 1374                           l3303 1294                           l3231 0F72  
                         l3223 0F42                           l3215 0F02                           l3207 0ECE  
                         l3049 39E8                           l3057 4312                           l2601 25DC  
                         l3081 38AE                           l3073 388A                           l3065 3836  
                         l3137 3BF2                           l3129 3BC8                           l3161 3402  
                         l3153 336A                           l2521 3C40                           l3145 41CA  
                         l3401 17F4                           l3321 1432                           l3313 13A8  
                         l3305 12A4                           l3241 0FCE                           l3225 0F48  
                         l3209 0EDE                           l3217 0F06                           l3059 4328  
                         l2611 25F0                           l2603 25E0                           l3091 38DA  
                         l3075 388C                           l3067 384C                           l3171 351E  
                         l3155 338A                           l2531 3CC2                           l2523 3C52  
                         l3147 41DA                           l3411 1848                           l3403 1802  
                         l3331 14CE                           l3323 1448                           l3307 12B8  
                         l3315 13AE                           l3243 0FD4                           l3227 0F50  
                         l3219 0F2C                           l3235 0F92                           l2701 2872  
                         l2621 264E                           l2605 25E4                           l2613 25F4  
                         l2541 24D0                           l3077 389C                           l3173 3532  
                         l3165 3472                           l3157 33E0                           l3149 3EE6  
                         l3181 4134                           l2525 3C64                           l3405 181A  
                         l3333 1524                           l3341 1576                           l3325 147A  
                         l3317 13CC                           l3309 131C                           l3261 105E  
                         l3245 0FDC                           l3237 0FB8                           l3253 0FF8  
                         l3229 0F68                           l3421 3162                           l3501 446E  
                         l2711 28F0                           l2631 2684                           l2623 2664  
                         l2615 25F8                           l2607 25E8                           l2543 24E0  
                         l2551 250A                           l2535 24B4                           l3087 38C6  
                         l3079 38A0                           l3175 355A                           l3167 34AE  
                         l3159 33F4                           l3183 4148                           l3191 4168  
                         l2527 3C6E                           l3407 182A                           l3351 15A8  
                         l3343 1586                           l3335 152A                           l3327 148A  
                         l3319 1400                           l3271 1154                           l3263 1092  
                         l3255 1012                           l3239 0FCA                           l3431 31A8  
                         l3423 3170                           l3415 43E0                           l3511 4268  
                         l3503 4472                           l3601 2200                           l3521 445C  
                         l2721 2936                           l2705 289C                           l2713 28F2  
                         l2641 26D4                           l2633 268E                           l2625 2670  
                         l2617 2622                           l2609 25EC                           l2561 253A  
                         l2553 251A                           l2545 24F0                           l2537 24C0  
                         l3097 38EE                           l3089 38D0                           l3177 356A  
                         l3169 34E2                           l3185 4154                           l2529 3C8C  
                         l3409 1840                           l3361 167A                           l3353 1620  
                         l3345 158E                           l3337 155E                           l3329 149A  
                         l3281 120A                           l3273 1188                           l3265 10D0  
                         l3193 0E70                           l3433 31B0                           l3441 31F2  
                         l3425 317E                           l3417 43F0                           l3513 428E  
                         l3505 4254                           l3611 22AC                           l3603 220A  
                         l2811 2F20                           l2803 2ED6                           l2731 2960  
                         l2723 2944                           l2715 2902                           l2707 28A8  
                         l2651 2710                           l2643 26E4                           l2635 26B0  
                         l2627 2674                           l2619 263E                           l2571 257A  
                         l2563 2548                           l2555 2520                           l2547 2500  
                         l2539 24CE                           l3099 38FA                           l3187 4158  
                         l3371 16A0                           l3363 167E                           l3355 1640  
                         l3347 1594                           l3339 1572                           l3291 123A  
                         l3283 121A                           l3275 1190                           l3267 1102  
                         l3259 1058                           l3195 0E76                           l3451 32A8  
                         l3443 3216                           l3435 31B8                           l3427 3182  
                         l3419 313A                           l3523 3F4C                           l3515 4290  
                         l3507 4258                           l3621 2366                           l3613 22C4  
                         l3605 2222                           l2821 2F66                           l2813 2F28  
                         l2805 2EF0                           l2901 29DE                           l2733 2962  
                         l2725 294A                           l2717 2912                           l2709 28B6  
                         l2661 2756                           l2653 271E                           l2645 26F2  
                         l2637 26C0                           l2629 2682                           l2581 25B4  
                         l2573 257C                           l2565 254A                           l2557 2532  
                         l2549 2502                           l3189 4164                           l2741 422C  
                         l3381 16D4                           l3373 16A6                           l3365 1684  
                         l3357 165C                           l3349 159C                           l3293 124C  
                         l3285 1226                           l3269 1140                           l3197 0E86  
                         l3453 32C8                           l3445 324A                           l3461 332A  
                         l3429 3192                           l3525 3F58                           l3701 370E  
                         l3541 43CA                           l3533 43B6                           l3509 4260  
                         l3631 2448                           l3623 23A6                           l3615 2304  
                         l3607 2262                           l3519 444C                           l2831 2FBE  
                         l2823 2F84                           l2815 2F38                           l2807 2F00  
                         l2751 2DBC                           l2911 2A14                           l2903 29E4  
                         l2727 294C                           l2719 2932                           l2671 27D2  
                         l2663 278A                           l2655 2720                           l2647 2700  
                         l2591 25C8                           l2583 25B8                           l2567 255A  
                         l2575 2584                           l2559 2534                           l2743 4230  
                         l3383 16DA                           l3367 168C                           l3359 166A  
                         l3375 16AC                           l3391 1772                           l3295 125A  
                         l3287 122E                           l3279 11D0                           l3199 0E94  
                         l3439 31C0                           l3527 3F76                           l3703 371C  
                         l3543 43CC                           l3535 43C0                           l3711 4298  
                         l3633 2488                           l3625 23E6                           l3617 2344  
                         l3609 22A2                           l2841 2FFC                           l2833 2FC4  
                         l2825 2F86                           l2817 2F4C                           l2809 2F10  
                         l2753 2DCC                           l2761 2DF6                           l2745 2DA0  
                         l2913 2A24                           l2905 29F2                           l2729 2952  
                         l2681 280E                           l2673 27E2                           l2665 278C  
                         l2657 272A                           l2649 270C                           l2593 25CC  
                         l2585 25BC                           l2577 2594                           l2569 256A  
                         l2737 420E                           l3393 1790                           l3385 1732  
                         l3377 16BE                           l3369 169C                           l3297 1272  
                         l3289 1236                           l3449 327E                           l3465 333C  
                         l3529 3F96                           l3641 3FA2                           l3705 371E  
                         l3537 43C6                           l3545 442C                           l3721 42C8  
                         l3713 42A2                           l3561 412A                           l3553 4044  
                         l3801 4422                           l3731 4384                           l3635 2492  
                         l3627 23F0                           l3619 234E                           l3571 1F96  
                         l2851 3066                           l2843 3000                           l2835 2FCE  
                         l2827 2F96                           l2819 2F5A                           l2771 2E22  
                         l2763 2E06                           l2755 2DDC                           l2747 2DAC  
                         l2931 2AA6                           l2923 2A6E                           l2915 2A2A  
                         l2907 29F4                           l2691 283A                           l2683 2810  
                         l2667 279C                           l2659 2730                           l2595 25D0  
                         l2587 25C0                           l2579 25A6                           l2739 421A  
                         l3395 17AC                           l3387 1766                           l3379 16D0  
                         l3299 1284                           l3459 32FA                           l3643 3FB4  
                         l3811 3DB4                           l3539 43C8                           l3491 4486  
                         l3723 42CA                           l3715 42B2                           l3555 408A  
                         l3547 3FF4                           l3803 4424                           l3733 4394  
                         l3629 2408                           l3637 24AA                           l3581 203C  
                         l3573 1FA0                           l3661 4368                           l3653 434A  
                         l2861 30C8                           l2853 3072                           l2845 300E  
                         l2837 2FDC                           l2829 2FA8                           l2773 2E32  
                         l2781 2E5C                           l2765 2E0C                           l2757 2DEC  
                         l2749 2DBA                           l2941 2AF0                           l2933 2ABE  
                         l2925 2A7A                           l2917 2A4A                           l2909 2A04  
                         l2685 281E                           l2677 27F6                           l2693 283C  
                         l2669 27AC                           l2597 25D4                           l2589 25C4  
                         l3397 17B4                           l3389 176E                           l3645 3FBC  
                         l3493 4464                           l3725 42CC                           l3717 42BC  
                         l3709 4294                           l3565 4094                           l3549 403A  
                         l3741 37C8                           l3805 4426                           l3821 3A58  
                         l3813 3A42                           ?_pad 0011                           l3735 439E  
                         l3591 211E                           l3583 207C                           l3575 1FDE  
                         l3655 434E                           l2871 3126                           l2863 30DE  
                         l2855 3080                           l2847 303C                           l2839 2FEE  
                         l2791 2E9E                           l2783 2E6C                           l2775 2E42  
                         l2767 2E12                           l2759 2DEE                           l2951 2B46  
                         l2943 2B00                           l2935 2ACA                           l2927 2A84  
                         l2919 2A5A                           l2687 2826                           l2679 2800  
                         l2695 284A                           l2599 25D8                           l3399 17C4  
                         l3647 3FC4                           l3807 3D0A                           l3671 35F8  
                         l3663 357E                           l3751 18B2                           l3495 4468  
                         l3727 42CE                           l3719 42C6                           l3559 40E4  
                         l3567 40DA                           l3743 37E0                           l3831 3AB8  
                         l3823 3A64                           l3815 3A46                           l3737 43AE  
                         l3593 215E                           l3585 20BC                           l3577 201E  
                         l3657 435C                           l2873 312C                           l2865 30F8  
                         l2857 30AA                           l2785 2E82                           l2777 2E52  
                         l2769 2E20                           l2961 2BEA                           l2953 2B62  
                         l2945 2B0C                           l2937 2AD6                           l2929 2A9A  
                         l2697 284E                           l2689 282A                           l3649 3FE0  
                         l3809 3D16                           l3681 3652                           l3665 358E  
                         l3761 19B4                           l3753 18FA                           l3489 4482  
                         l3497 4478                           l3729 42D0                           l3745 37FC  
                         l3841 3B14                           l3825 3A7A                           l3833 3AD2  
                         l3817 3A4A                           l3595 2168                           l3587 20C6  
                         l3579 2028                           l3659 4360                           l2875 312E  
                         l2867 3114                           l2859 30AE                           l2787 2E92  
                         l2795 2EB2                           l2779 2E54                           l2971 2C40  
                         l2963 2BF8                           l2955 2B6E                           l2947 2B1C  
                         l2939 2AE4                           l2891 29A2                           l2883 2974  
                         l2699 285C                           l3691 36B6                           l3683 3654  
                         l3675 360C                           l3667 359C                           l3771 1B10  
                         l3763 19DC                           l3755 191C                           l3499 447C  
                         l3747 3818                           l3739 3730                           l3843 3B2E  
                         l3835 3AE4                           l3827 3AAC                           l3819 3A4E  
                         l3597 2180                           l3589 20DE                           l2869 3118  
                         l2797 2EC2                           l2789 2E9A                           l2973 2C4E  
                         l2965 2C16                           l2957 2B8A                           l2949 2B36  
                         l2893 29B2                           l2885 2982                           l3941 331C  
                         l3693 36D4                           l3685 3660                           l3677 3614  
                         l3669 35E2                           l3781 1CDE                           l3773 1B58  
                         l3765 1A24                           l3757 1926                           l3749 186A  
                         l3845 3B34                           l3837 3AF0                           l3829 3AB2  
                         l3599 21C0                           l2799 2EC2                           l2983 2CB8  
                         l2991 2D00                           l2975 2C52                           l2967 2C20  
                         l2959 2BB4                           l2895 29C2                           l2887 2990  
                         l3695 36D6                           l3687 369C                           l3679 3620  
                         l3791 1F46                           l3783 1D9C                           l3775 1B7C  
                         l3767 1A70                           l3759 196C                           l3839 3AFE  
                         l2993 2D1A                           l2985 2CC4                           l2977 2C60  
                         l2969 2C2E                           l2897 29C8                           l2889 2992  
                         l3937 31D4                           l3697 36DA                           l3689 36A8  
                         l3785 1E06                           l3777 1C4A                           l3769 1A9E  
                         l3793 4408                           l2995 2D2E                           l2987 2CD2  
                         l2979 2C8E                           l2899 29D8                           l3939 3292  
                         l3699 36FE                           l3787 1EC4                           l3779 1C92  
                         l3795 440C                           l2997 2D48                           l2989 2CFC  
                         l3789 1F2A                           l3797 4416                           l2999 2D64  
                         l3799 4418                           STR_1 0E2B                           STR_2 0E6B  
                         STR_3 0E58                           STR_4 0E41                           STR_5 0E5E  
                         STR_6 0E51                           STR_7 0E4A                           STR_8 0E2C  
                         STR_9 0E37                           u2100 3C8C                           u2101 3C88  
                         u2110 3CC2                           u2111 3CBE                           u3000 39E8  
                         u2200 25B4                           u2120 24CE                           u3001 39E4  
                         u2201 25B0                           u2121 24CA                           u3010 3A38  
                         u2210 2622                           u2130 24E0                           u3011 3A34  
                         u2211 261E                           u2131 24DC                           u3020 4328  
                         u2300 2700                           u2220 263A                           u2140 24F0  
                         u3100 3E7A                           u3021 4324                           u2301 26FC  
                         u2221 2634                           u2141 24EC                           u3101 3E76  
                         u2310 271E                           u2230 263C                           u2150 2532  
                         u3030 384C                           u3110 3ED0                           u2311 271A  
                         u2151 252E                           u3031 3848                           u3111 3ECC  
                         u4000 43AE                           u2400 285C                           u2320 2756  
                         u2240 2664                           u2160 2548                           u3040 3880  
                         u3120 3B82                           u3200 3F04                           u2080 3C52  
                 _BAUD4CONbits 000EE9                           u4001 43AA                           u2401 2858  
                         u2321 2752                           u2241 2660                           u2161 2544  
                         u3201 3F00                           u2081 3C4E                           u2410 2872  
                         u2330 279C                           u2250 2682                           u2170 255A  
                         u3050 38AE                           u3130 3BA0                           u3210 33B2  
                         u2090 3C64                           u4010 18B2                           u2411 286E  
                         u2331 2798                           u2251 267E                           u2171 2556  
                         u3051 38AA                           u3131 3B9C                           u2091 3C60  
                         u4011 18AE                           u2500 2960                           u2420 2888  
                         u2340 27D2                           u2260 26A2                           u2180 256A  
                         u3060 38C2                           u3140 3BC8                           u3300 355A  
                         u3220 33E0                           u4100 1CDE                           u4020 18FA  
                         u2501 295C                           u2421 2884                           u2341 27CE  
                         u2261 269E                           u2181 2566                           u3061 38BE  
                         u3045 3876                           u3141 3BC4                           u3125 3B78  
                         u3301 3556                           u3221 33DC                           u4101 1CDA  
                         u4021 18F6                           u2430 289C                           u2350 27E2  
                         u2270 26B0                           u2190 25A6                           u3070 38EA  
                         u3150 3BF2                           u3230 3402                           u3310 4182  
                         u2510 4250                           u4110 1F46                           u4030 196C  
                         u2431 2898                           u2351 27DE                           u2271 26AC  
                         u2191 25A2                           u3071 38E6                           u3151 3BEE  
                         u3231 33FE                           u3215 33A8                           u3311 417E  
                         u2511 424C                           u4111 1F42                           u4031 1968  
                         u2600 2F38                           u2520 2DBA                           u2440 28B6  
                         u2360 280E                           u2280 26C0                           u3080 390A  
                         u3400 10D0                           u3320 0E94                           u4040 19B4  
                         u4120 3AAC                           u2601 2F34                           u2521 2DB6  
                         u2441 28B2                           u2361 280A                           u2281 26BC  
                         u3081 3906                           u3401 10CC                           u3321 0E90  
                         u4041 19B0                           u4121 3AA8                           u2610 2F5A  
                         u2530 2DCC                           u2450 28F0                           u2370 281E  
                         u2290 26F2                           u3090 391A                           u3170 3C2C  
                         u3250 346E                           u3410 1102                           u3330 0EDE  
                         u4050 1A24                           u4130 3AE4                           u2611 2F56  
                         u2531 2DC8                           u2451 28EC                           u2371 281A  
                         u2291 26EE                           u3091 3916                           u3171 3C26  
                         u3251 346A                           u3411 10FE                           u3331 0EDA  
                         u4051 1A20                           u4131 3AE0                           u2700 3066  
                         u2620 2F84                           u2540 2DDC                           u2460 2902  
                         u2380 283A                           u3180 3C2E                           u3260 3492  
                         u3500 1432                           u3420 1140                           u3340 0EEE  
                         u4060 1A70                           u2701 3062                           u2621 2F80  
                         u2541 2DD8                           u2461 28FE                           u2381 2836  
                         u3165 3C04                           u3245 3416                           u3501 142E  
                         u3421 113C                           u3341 0EEA                           u4061 1A6C  
                         u2710 3080                           u2630 2FA8                           u2550 2E20  
                         u2470 2912                           u2390 284A                           u3270 34AE  
                         u3246 3420                           u3190 420C                           u3510 147A  
                         u3430 11CC                           u3350 0F2C                           u4070 1B10  
                         u2711 307C                           u2631 2FA4                           u2551 2E1C  
                         u2471 290E                           u2391 2846                           u3271 34AA  
                         u3247 3430                           u3191 4208                           u3511 1476  
                         u3431 11C8                           u3351 0F28                           u4071 1B0C  
                         u2720 30C8                           u2640 2FBE                           u2560 2E32  
                         u2800 2A14                           u2480 2932                           u3280 3502  
                         u3600 17AC                           u3520 148A                           u3440 1202  
                         u3360 0F3E                           u4080 1B58                           u2721 30C4  
                         u2641 2FBA                           u2561 2E2E                           u2801 2A10  
                         u2481 292E                           u3265 3488                           u3601 17A8  
                         u3521 1486                           u3441 11FE                           u3361 0F3A  
                         u4081 1B54                           u2730 30F8                           u2650 2FDC  
                         u2570 2E42                           u2810 2A4A                           u2490 2944  
                         u3290 351E                           u3610 1814                           u3530 1524  
                         u3450 121A                           u3370 0FB8                           u4090 1C92  
                         u2731 30F4                           u2651 2FD8                           u2571 2E3E  
                         u2811 2A46                           u2491 2940                           u3291 351A  
                         u3611 180E                           u3531 1520                           u3451 1216  
                         u3371 0FB4                           u4091 1C8E                           u4147 3AC4  
                         u3700 445C                           u2740 3126                           u2660 2FFC  
                         u2580 2E82                           u2900 2CD2                           u2820 2A5A  
                         u3620 1816                           u3540 1572                           u3460 124C  
                         u3380 0FCA                           u3701 4458                           u2741 3122  
                         u2661 2FF8                           u2581 2E7E                           u2901 2CCE  
                         u2821 2A56                           u3285 34F8                           u3541 156E  
                         u3461 1248                           u3381 0FC6                           u4157 3B20  
                         u2670 300E                           u2590 2EC2                           u2910 2D1A  
                         u2830 2BD4                           u2750 2990                           u3630 182A  
                         u3550 1620                           u3470 125A                           u3390 1044  
                         u3710 3F96                           u2671 300A                           u2591 2EBE  
                         u2911 2D16                           u2751 298C                           u3631 1826  
                         u3551 161C                           u3471 1256                           u3391 1040  
                         u3711 3F92                           u4167 42A8                           u3800 2262  
                         u3720 1FDE                           u2680 303C                           u2920 2D48  
                         u2840 2C2E                           u2760 29A2                           u3560 165C  
                         u3480 1284                           u3640 43F0                           u3801 225E  
                         u3721 1FDA                           u4177 4362                           u2681 3038  
                         u2921 2D44                           u2841 2C2A                           u2761 299E  
                         u3561 1658                           u3481 1280                           u3641 43EC  
                         u3810 22A2                           u3730 201E                           u2690 3052  
                         u2930 2D82                           u2850 2C4E                           u2770 29B2  
                         u3570 166A                           u3490 13CC                           u3650 4406  
                         u3811 229E                           u3731 201A                           u2691 304E  
                         u2931 2D7E                           u2851 2C4A                           u2835 2BCA  
                         u2771 29AE                           u3571 1666                           u3491 13C8  
                         u3651 4402                           u3820 2304                           u3740 207C  
                         u2940 3DF0                           u2860 2C60                           u2780 29F2  
                         u3580 16BE                           u3660 3162                           u3900 359C  
                         u3821 2300                           u3741 2078                           u2941 3DEC  
                         u2861 2C5C                           u2781 29EE                           u3581 16BA  
                         u3661 315E                           u3901 3598                           u3830 2344  
                         u3750 20BC                           u2950 3E2E                           u2870 2C8E  
                         u2790 2A04                           u3590 1790                           u3670 3212  
                         u3910 35F8                           u3831 2340                           u3751 20B8  
                         u2951 3E2A                           u2871 2C8A                           u2791 2A00  
                         u3591 178C                           u3671 320E                           u3911 35F4  
                         u3840 23A6                           u3760 211E                           u2960 3E62  
                         u2880 2CA4                           u3920 364E                           u3680 427C  
                         u3841 23A2                           u3761 211A                           u2961 3E5E  
                         u2881 2CA0                           u3921 364A                           u3681 4274  
                         u2970 396C                           u3850 23E6                           u3770 215E  
                         u2890 2CB8                           u3930 3698                           u2971 3968  
                         u3851 23E2                           u3771 215A                           u2891 2CB4  
                         u3931 3694                           u2980 39AA                           u3860 2448  
                         u3780 21C0                           u3940 36B6                           u2981 39A6  
                         u3861 2444                           u3781 21BC                           u3941 36B2  
                         u2990 39C8                           u3870 2488                           u3790 2200  
                         u3950 36C6                           u2991 39C4                           u3871 2484  
                         u3791 21FC                           u3951 36C2                           u3880 4380  
                         u3960 36D4                           u3881 437C                           u3961 36D0  
                         u3970 370E                           u3890 358E                           u3698 427E  
                         u3971 370A                           u3891 358A                           u3980 371C  
                         u3981 3718                           u3990 4394                           u3991 4390  
                         _dbuf 0112                           _labs 3EE6                           _main 3A42  
                         _prec 00F6                           pad@i 0018                           pad@p 0015  
                         fsr1h 000FE2                           fsr2h 000FDA                           indf2 000FDF  
                         fsr1l 000FE1                           pad@w 001A                           fsr2l 000FD9  
                   _ClickLEDOn 4382                  ___fpclassifyf 3B42                           prodh 000FF4  
                         prodl 000FF3                           start 0000                ___fldiv@new_exp 0043  
       __end_of_color_read_Red 4044                   ___param_bank 000000                     _Hue2Colour 1F96  
                        ??_pad 0017                  ___fltol@sign1 0009                          ?_labs 0001  
              __end_of___fladd 2974                          ?_main 0001                __end_of___fldiv 313A  
              __end_of___flneg 434A                          STR_10 0E01                          STR_11 0E63  
                        STR_14 0E67                __end_of___flmul 2DA0                __end_of___flsub 41CA  
              __end_of___fltol 393C                   vfpfcnvrt@fmt 00A8        __end_of_sendCharSerial4 4462  
   __end_of_I2C_2_Master_Start 448C     __end_of_I2C_2_Master_Write 446E                          _flags 00F8  
                        _fputc 3C40                          _fputs 420E                          labs@a 0001  
                        pad@fp 0011                          _width 00F4                          _putch 4490  
                        tablat 000FF5                          plusw2 000FDB                          status 000FD8  
              __end_of_sprintf 3FF4                 ?___fpclassifyf 0001           __end_of_Color2String 3DC2  
      __end_of_color_read_Blue 4134          _I2C_2_Master_RepStart 446E                ?_color_read_Red 0005  
              __initialization 42D4                   __end_of_labs 3F4C                   __end_of_main 3B42  
                       ??_labs 0005                         ??_main 00EA                  __activetblptr 000003  
                    ??_RGB2Hue 0073                         ?_fputc 0001                         ?_fputs 000A  
              _colour_read_all 3730                         ?_putch 0001                         _RC0PPS 000E62  
                       _RC4REG 000EE3                         _RD5PPS 000E6F                         _RD6PPS 000E70  
     __end_of_color_click_init 42D4                         _RX4PPS 000E15                         _TX4REG 000EE4  
                  ?_ClickLEDOn 0001               __end_of___xxtofl 3730                   vfprintf@cfmt 00BF  
                       ___flge 393C                         ___fleq 3DC2                      ??___fladd 0022  
                  ?_Hue2Colour 0071                      ??___fldiv 003A                      ??___flneg 0005  
                    ??___flmul 0053                      ??___flsub 0032                      ??___fltol 0005  
                       _efgtoa 0E70                         _colorf 0162                         _floorf 336A  
                       _memcpy 4134                         clear_0 42FA                         clear_1 4306  
                       _motorL 0109                         _motorR 0100                         isa$std 000001  
                       pad@buf 0013                         _strcpy 41CA                         fputc@c 0001  
                       fputs@c 000E                         fputs@i 000F                         fputs@s 000A  
              ___fpclassifyf@e 0009                ___fpclassifyf@u 000B                ___fpclassifyf@x 0001  
                 __mediumconst 0000                         tblptrh 000FF7                         tblptrl 000FF6  
                       tblptru 000FF8               ?_sendCharSerial4 0001                         putch@c 0001  
             __end_of_vfprintf 3FA2                      ??_sprintf 005F                     ___flge@ff1 0057  
                   ___flge@ff2 005B                ??___fpclassifyf 0005                   ___xxtofl@arg 0016  
                 ___xxtofl@exp 0015                   ___xxtofl@val 000C                     ___fleq@ff1 0001  
                   ___fleq@ff2 0005                     __accesstop 0060        __end_of__initialization 430C  
     __end_of_color_read_Clear 40E4                 __15drightdelay 00F9                     ___flneg@f1 0001  
     __end_of_color_read_Green 4094         ?_I2C_2_Master_RepStart 0001                  ___rparam_used 000001  
                   ___fltol@f1 0001               ?_color_read_Blue 0005                 __pcstackCOMRAM 0001  
                 __pidataBANK0 448C                  __end_of_fputc 3D0A                  __end_of_fputs 4252  
                __end_of_putch 4492                      RGB2Hue@cf 0071        __end_of_colour_read_all 3836  
                      ??_fputc 0005                        ??_fputs 000E                        ??_putch 0001  
                   __pbssBANK0 00EC                     __pbssBANK1 0100              _color_writetoaddr 442A  
                      ?___flge 0057                        ?___fleq 0001             ?_color_writetoaddr 0003  
                      ?_efgtoa 0071                        ?_floorf 004B                        ?_memcpy 0001  
          ??_color_writetoaddr 0004                        ?_strcpy 0001                   _Color2String 3D0A  
                      _RGB2Hue 186A                      ?___xxtofl 000C                        _SP4BRGH 000EE6  
                      _SP4BRGL 000EE5                        _SSP2ADD 000ED6                        _SSP2BUF 000ED5  
       color_writetoaddr@value 0003               ??_color_read_Red 0007      __end_of_color_writetoaddr 444A  
           _I2C_2_Master_Start 4482                     _initUSART4 4408             _I2C_2_Master_Write 4462  
                      __Hparam 0000                        __Lparam 0000              color_read_Red@tmp 000A  
      sendStringSerial4@string 0002                        ___fladd 24B4                        ___fldiv 2DA0  
                      ___flneg 4312                        ___flmul 2974                        ___flsub 4184  
                      ___fltol 3836            ?_I2C_2_Master_Start 0001            ?_I2C_2_Master_Write 0001  
                    ?_vfprintf 00B9                   __psmallconst 0E00                        __pcinit 42D4  
                      __ramtop 0E00                        __ptext0 3A42                        __ptext1 4408  
                      __ptext2 3730                        __ptext3 3FF4                        __ptext4 4044  
                      __ptext5 4094                        __ptext6 40E4                        __ptext7 446E  
                      __ptext8 4252                        __ptext9 4294               ?_colour_read_all 001A  
                   ??___xxtofl 0010                 Color2String@cf 00E8                        efgtoa@c 0077  
                      efgtoa@d 0085                        efgtoa@e 0089                        efgtoa@f 0073  
                      efgtoa@g 009E                        efgtoa@h 0093                        efgtoa@i 0091  
                      efgtoa@l 0097                        efgtoa@m 0087                        efgtoa@n 009C  
                      efgtoa@p 007C                        efgtoa@t 007E                        efgtoa@u 00A2  
                      efgtoa@w 008B                        _sprintf 3FA2           ??_I2C_2_Master_Start 0002  
         ??_I2C_2_Master_Write 0002           end_of_initialization 430C                        floorf@e 0059  
                      floorf@m 0055                        floorf@u 005B                        floorf@x 004B  
                      memcpy@d 0007                        memcpy@n 0005                        memcpy@s 0009  
                      fputc@fp 0003                        fputs@fp 000C                   ??_ClickLEDOn 0001  
            ?_color_click_init 0001             ??_color_click_init 0005              __end_of_vfpfcnvrt 336A  
                   efgtoa@mode 0083                     efgtoa@sign 009B                        postdec1 000FE5  
                      postdec2 000FDD                   ??_Hue2Colour 005F                        postinc0 000FEE  
                      postinc1 000FE6                        postinc2 000FDE               vfpfcnvrt@convarg 00AE  
                   ??_vfprintf 005F                        strcpy@d 0007                        strcpy@s 0005  
                  ___fladd@grs 0029             __end_of_ClickLEDOn 43B6                  ___xxtofl@sign 0014  
                    _TRISAbits 000F81                      _TRISCbits 000F83                      _TRISDbits 000F84  
                    _TRISFbits 000F86                      _TRISGbits 000F87                    ___fldiv@grs 0045  
                  ___fldiv@rem 003E       color_writetoaddr@address 0004        ??_I2C_2_Master_RepStart 0002  
           __end_of_Hue2Colour 24B4                    ___flmul@grs 0061              ?_color_read_Clear 0005  
            ?_color_read_Green 0005                    ?_initUSART4 0001      sendCharSerial4@charToSend 0001  
           ??_color_read_Clear 0007             ??_color_read_Green 0007                   _RGB2Hue$1696 0077  
               __end_of___flge 3A42                 __end_of___fleq 3E6C                    vfpfcnvrt@ap 00AA  
                  vfpfcnvrt@cp 00B7                    vfpfcnvrt@fp 00A6                 __end_of_efgtoa 186A  
               __end_of_floorf 357C                 __end_of_memcpy 4184                     floorf@F526 00EC  
               __end_of_strcpy 420E                     RGB2Hue@max 007B                     RGB2Hue@min 007D  
          color_read_Clear@tmp 000A            start_initialization 42D4                    __end_of_pad 3EE6  
        __end_of___fpclassifyf 3C40            color_read_Green@tmp 000A                  __15dleftdelay 00FB  
                  vfprintf@fmt 00BB                       ??___flge 006D                       ??___fleq 0009  
                     ??_efgtoa 0078                    __pdataBANK0 00F9                       ??_floorf 004F  
                     ??_memcpy 0007                       ??_strcpy 0005                      ___fladd@a 001E  
                    ___fladd@b 001A                ClickLEDOn@power 0001                      ___fldiv@a 0036  
                    ___fldiv@b 0032                       ?_RGB2Hue 0071                      ___flmul@a 004F  
                    ___flmul@b 004B                      ___flsub@a 002E                      ___flsub@b 002A  
                __pcstackBANK0 0060                  __pcstackBANK1 0178                    _efgtoa$1387 0080  
                     ?___fladd 001A                       ?___fldiv 0032                       ?___flneg 0001  
                     ?___flmul 004B                       ?___flsub 002A                       ?___fltol 0001  
         I2C_2_Master_Read@ack 0003           I2C_2_Master_Read@tmp 0004                    __smallconst 0E00  
            _I2C_2_Master_Idle 43E0              _I2C_2_Master_Init 43B6              _I2C_2_Master_Read 4252  
            _I2C_2_Master_Stop 4478             ?_I2C_2_Master_Idle 0001             ?_I2C_2_Master_Init 0001  
           ?_I2C_2_Master_Read 0001             ?_I2C_2_Master_Stop 0001                       ?_sprintf 00C1  
         Hue2Colour@colourname 0073              colour_read_all@cf 001A                   Hue2Colour@cf 0071  
            _sendStringSerial4 434A            ??_I2C_2_Master_Idle 0001            ??_I2C_2_Master_Init 0001  
          ??_I2C_2_Master_Read 0002                       _LATAbits 000F79            ??_I2C_2_Master_Stop 0002  
                     _LATFbits 000F7E                       _LATGbits 000F7F             ?_sendStringSerial4 0002  
                     _PIR4bits 000E37              ??_sendCharSerial4 0001                       _SSP2CON2 000EDA  
          ??_sendStringSerial4 0004                       _SSP2STAT 000ED8                      _vfpfcnvrt 313A  
    __end_of_I2C_2_Master_Idle 4408      __end_of_I2C_2_Master_Init 43E0      __end_of_I2C_2_Master_Read 4294  
    __end_of_I2C_2_Master_Stop 4482    I2C_2_Master_Write@data_byte 0002              ??_color_read_Blue 0007  
                   vfpfcnvrt@c 00B6                      copy_data0 42E8      __end_of_sendStringSerial4 4382  
__end_of_I2C_2_Master_RepStart 4478             color_read_Blue@tmp 000A                   ??_initUSART4 0001  
                     __Hrparam 0000                      memcpy@tmp 000B                     vfprintf@ap 00BD  
                     __Lrparam 0000                     vfprintf@fp 00B9                     ?_vfpfcnvrt 00A6  
                   _ANSELDbits 000EA7             ___fpclassifyf@F465 00F0                     sprintf@fmt 00C3  
                     ___xxtofl 357C             __end_of_initUSART4 442A                       __ptext10 442A  
                     __ptext11 4462                       __ptext20 3F4C                       __ptext12 4478  
                     __ptext21 313A                       __ptext13 4482                       __ptext30 336A  
                     __ptext22 0E70                       __ptext14 43E0                       __ptext31 3B42  
                     __ptext23 41CA                       __ptext15 43B6                       __ptext40 444A  
                     __ptext32 3836                       __ptext24 3E6C                       __ptext16 186A  
                     __ptext41 1F96                       __ptext33 4184                       __ptext25 420E  
                     __ptext17 357C                       __ptext42 393C                       __ptext34 24B4  
                     __ptext26 3C40                       __ptext18 3D0A                       __ptext43 4382  
                     __ptext35 4312                       __ptext27 4490                       __ptext19 3FA2  
                     __ptext36 2974                       __ptext28 4134                       __ptext37 3DC2  
                     __ptext29 3EE6                       __ptext38 2DA0                       __ptext39 434A  
                 _SSP2CON1bits 000ED9                   _SSP2CON2bits 000EDA                     strcpy@dest 0001  
              Color2String@buf 00E6               colour_read_all@B 0024               colour_read_all@C 0028  
             colour_read_all@G 0020               colour_read_all@R 001C                       efgtoa@fp 0071  
                     efgtoa@ne 007A                       efgtoa@pp 0082                       efgtoa@ou 008D  
                     isa$xinst 000000                     _RC4STAbits 000EE7                       _vfprintf 3F4C  
                     main@data 0178                       main@wall 01C8                  ?_Color2String 00E6  
                     memcpy@d1 0001                       memcpy@s1 0003                      sprintf@ap 00D9  
                    strcpy@src 0003              ??_colour_read_all 001C                    efgtoa@nmode 0084  
                  ??_vfpfcnvrt 00AC               _color_click_init 4294                 ??_Color2String 005F  
                     sprintf@f 00DB                       sprintf@s 00C1                     _SSP2DATPPS 000E1D  
                   _SSP2CLKPPS 000E1C                  ___fladd@signs 0026                     _TX4STAbits 000EE8  
              _sendCharSerial4 444A                   ___fladd@aexp 0027                   ___fladd@bexp 0028  
